
/home/rbp28668/Projects/pico/ST77355/st7735.elf:     file format elf32-littlearm

Sections:
Idx Name          Size      VMA       LMA       File off  Algn
  0 .boot2        00000100  10000000  10000000  00001000  2**0
                  CONTENTS, ALLOC, LOAD, READONLY, CODE
  1 .text         00009490  10000100  10000100  00001100  2**3
                  CONTENTS, ALLOC, LOAD, READONLY, CODE
  2 .rodata       00000ef4  10009590  10009590  0000a590  2**2
                  CONTENTS, ALLOC, LOAD, READONLY, DATA
  3 .ARM.exidx    00000008  1000a484  1000a484  0000b484  2**2
                  CONTENTS, ALLOC, LOAD, READONLY, DATA
  4 .binary_info  0000001c  1000a48c  1000a48c  0000b48c  2**2
                  CONTENTS, ALLOC, LOAD, DATA
  5 .ram_vector_table 000000c0  20000000  20000000  0000ce24  2**2
                  CONTENTS
  6 .data         00000d64  200000c0  1000a4a8  0000c0c0  2**4
                  CONTENTS, ALLOC, LOAD, CODE
  7 .uninitialized_data 00000000  20000e24  20000e24  0000cee4  2**0
                  CONTENTS
  8 .scratch_x    00000000  20040000  20040000  0000cee4  2**0
                  CONTENTS
  9 .scratch_y    00000000  20041000  20041000  0000cee4  2**0
                  CONTENTS
 10 .bss          00000520  20000e28  20000e28  0000ce28  2**3
                  ALLOC
 11 .heap         00000800  20001348  20001348  0000cee4  2**2
                  CONTENTS, READONLY
 12 .stack_dummy  00000800  20041000  20041000  0000d700  2**5
                  CONTENTS, READONLY
 13 .ARM.attributes 00000028  00000000  00000000  0000df00  2**0
                  CONTENTS, READONLY
 14 .comment      00000033  00000000  00000000  0000df28  2**0
                  CONTENTS, READONLY
 15 .debug_info   0000667d  00000000  00000000  0000df5b  2**0
                  CONTENTS, READONLY, DEBUGGING, OCTETS
 16 .debug_abbrev 000017f3  00000000  00000000  000145d8  2**0
                  CONTENTS, READONLY, DEBUGGING, OCTETS
 17 .debug_loc    00001da8  00000000  00000000  00015dcb  2**0
                  CONTENTS, READONLY, DEBUGGING, OCTETS
 18 .debug_aranges 00000170  00000000  00000000  00017b78  2**3
                  CONTENTS, READONLY, DEBUGGING, OCTETS
 19 .debug_ranges 00000210  00000000  00000000  00017ce8  2**0
                  CONTENTS, READONLY, DEBUGGING, OCTETS
 20 .debug_line   00001ed2  00000000  00000000  00017ef8  2**0
                  CONTENTS, READONLY, DEBUGGING, OCTETS
 21 .debug_str    00001745  00000000  00000000  00019dca  2**0
                  CONTENTS, READONLY, DEBUGGING, OCTETS
 22 .debug_frame  00000280  00000000  00000000  0001b510  2**2
                  CONTENTS, READONLY, DEBUGGING, OCTETS
 23 .stabstr      00000076  00000000  00000000  0001b790  2**0
                  CONTENTS, READONLY, DEBUGGING

/home/rbp28668/Projects/pico/ST77355/st7735.elf:     file format elf32-littlearm


Disassembly of section .boot2:

10000000 <__boot2_start__>:
10000000:	4b32b500 	.word	0x4b32b500
10000004:	60582021 	.word	0x60582021
10000008:	21026898 	.word	0x21026898
1000000c:	60984388 	.word	0x60984388
10000010:	611860d8 	.word	0x611860d8
10000014:	4b2e6158 	.word	0x4b2e6158
10000018:	60992100 	.word	0x60992100
1000001c:	61592102 	.word	0x61592102
10000020:	22f02101 	.word	0x22f02101
10000024:	492b5099 	.word	0x492b5099
10000028:	21016019 	.word	0x21016019
1000002c:	20356099 	.word	0x20356099
10000030:	f844f000 	.word	0xf844f000
10000034:	42902202 	.word	0x42902202
10000038:	2106d014 	.word	0x2106d014
1000003c:	f0006619 	.word	0xf0006619
10000040:	6e19f834 	.word	0x6e19f834
10000044:	66192101 	.word	0x66192101
10000048:	66182000 	.word	0x66182000
1000004c:	f000661a 	.word	0xf000661a
10000050:	6e19f82c 	.word	0x6e19f82c
10000054:	6e196e19 	.word	0x6e196e19
10000058:	f0002005 	.word	0xf0002005
1000005c:	2101f82f 	.word	0x2101f82f
10000060:	d1f94208 	.word	0xd1f94208
10000064:	60992100 	.word	0x60992100
10000068:	6019491b 	.word	0x6019491b
1000006c:	60592100 	.word	0x60592100
10000070:	481b491a 	.word	0x481b491a
10000074:	21016001 	.word	0x21016001
10000078:	21eb6099 	.word	0x21eb6099
1000007c:	21a06619 	.word	0x21a06619
10000080:	f0006619 	.word	0xf0006619
10000084:	2100f812 	.word	0x2100f812
10000088:	49166099 	.word	0x49166099
1000008c:	60014814 	.word	0x60014814
10000090:	60992101 	.word	0x60992101
10000094:	2800bc01 	.word	0x2800bc01
10000098:	4700d000 	.word	0x4700d000
1000009c:	49134812 	.word	0x49134812
100000a0:	c8036008 	.word	0xc8036008
100000a4:	8808f380 	.word	0x8808f380
100000a8:	b5034708 	.word	0xb5034708
100000ac:	20046a99 	.word	0x20046a99
100000b0:	d0fb4201 	.word	0xd0fb4201
100000b4:	42012001 	.word	0x42012001
100000b8:	bd03d1f8 	.word	0xbd03d1f8
100000bc:	6618b502 	.word	0x6618b502
100000c0:	f7ff6618 	.word	0xf7ff6618
100000c4:	6e18fff2 	.word	0x6e18fff2
100000c8:	bd026e18 	.word	0xbd026e18
100000cc:	40020000 	.word	0x40020000
100000d0:	18000000 	.word	0x18000000
100000d4:	00070000 	.word	0x00070000
100000d8:	005f0300 	.word	0x005f0300
100000dc:	00002221 	.word	0x00002221
100000e0:	180000f4 	.word	0x180000f4
100000e4:	a0002022 	.word	0xa0002022
100000e8:	10000100 	.word	0x10000100
100000ec:	e000ed08 	.word	0xe000ed08
	...
100000fc:	7a4eb274 	.word	0x7a4eb274

Disassembly of section .text:

10000100 <__VECTOR_TABLE>:
10000100:	20042000 	.word	0x20042000
10000104:	100001f7 	.word	0x100001f7
10000108:	100001c3 	.word	0x100001c3
1000010c:	100001c5 	.word	0x100001c5
10000110:	100001c1 	.word	0x100001c1
10000114:	100001c1 	.word	0x100001c1
10000118:	100001c1 	.word	0x100001c1
1000011c:	100001c1 	.word	0x100001c1
10000120:	100001c1 	.word	0x100001c1
10000124:	100001c1 	.word	0x100001c1
10000128:	100001c1 	.word	0x100001c1
1000012c:	100001c7 	.word	0x100001c7
10000130:	100001c1 	.word	0x100001c1
10000134:	100001c1 	.word	0x100001c1
10000138:	100001c9 	.word	0x100001c9
1000013c:	100001cb 	.word	0x100001cb
10000140:	100001cd 	.word	0x100001cd
10000144:	100001cd 	.word	0x100001cd
10000148:	100001cd 	.word	0x100001cd
1000014c:	100001cd 	.word	0x100001cd
10000150:	100001cd 	.word	0x100001cd
10000154:	100001cd 	.word	0x100001cd
10000158:	100001cd 	.word	0x100001cd
1000015c:	100001cd 	.word	0x100001cd
10000160:	100001cd 	.word	0x100001cd
10000164:	100001cd 	.word	0x100001cd
10000168:	100001cd 	.word	0x100001cd
1000016c:	100001cd 	.word	0x100001cd
10000170:	100001cd 	.word	0x100001cd
10000174:	100001cd 	.word	0x100001cd
10000178:	100001cd 	.word	0x100001cd
1000017c:	100001cd 	.word	0x100001cd
10000180:	100001cd 	.word	0x100001cd
10000184:	100001cd 	.word	0x100001cd
10000188:	100001cd 	.word	0x100001cd
1000018c:	100001cd 	.word	0x100001cd
10000190:	100001cd 	.word	0x100001cd
10000194:	100001cd 	.word	0x100001cd
10000198:	100001cd 	.word	0x100001cd
1000019c:	100001cd 	.word	0x100001cd
100001a0:	100001cd 	.word	0x100001cd
100001a4:	100001cd 	.word	0x100001cd
100001a8:	100001cd 	.word	0x100001cd
100001ac:	100001cd 	.word	0x100001cd
100001b0:	100001cd 	.word	0x100001cd
100001b4:	100001cd 	.word	0x100001cd
100001b8:	100001cd 	.word	0x100001cd
100001bc:	100001cd 	.word	0x100001cd

100001c0 <isr_invalid>:
100001c0:	be00      	bkpt	0x0000

100001c2 <isr_nmi>:
100001c2:	be00      	bkpt	0x0000

100001c4 <isr_hardfault>:
100001c4:	be00      	bkpt	0x0000

100001c6 <isr_svcall>:
100001c6:	be00      	bkpt	0x0000

100001c8 <isr_pendsv>:
100001c8:	be00      	bkpt	0x0000

100001ca <isr_systick>:
100001ca:	be00      	bkpt	0x0000

100001cc <__unhandled_user_irq>:
100001cc:	f000 f84b 	bl	10000266 <__get_current_exception>
100001d0:	3810      	subs	r0, #16

100001d2 <unhandled_user_irq_num_in_r0>:
100001d2:	be00      	bkpt	0x0000

100001d4 <binary_info_header>:
100001d4:	7188ebf2 	.word	0x7188ebf2
100001d8:	1000a48c 	.word	0x1000a48c
100001dc:	1000a4a8 	.word	0x1000a4a8
100001e0:	10000234 	.word	0x10000234
100001e4:	e71aa390 	.word	0xe71aa390

100001e8 <_entry_point>:
100001e8:	2000      	movs	r0, #0
100001ea:	4921      	ldr	r1, [pc, #132]	; (10000270 <__get_current_exception+0xa>)
100001ec:	6008      	str	r0, [r1, #0]
100001ee:	c806      	ldmia	r0!, {r1, r2}
100001f0:	f381 8808 	msr	MSP, r1
100001f4:	4710      	bx	r2

100001f6 <_reset_handler>:
100001f6:	481f      	ldr	r0, [pc, #124]	; (10000274 <__get_current_exception+0xe>)
100001f8:	6800      	ldr	r0, [r0, #0]
100001fa:	2800      	cmp	r0, #0
100001fc:	d12f      	bne.n	1000025e <hold_non_core0_in_bootrom>
100001fe:	a40d      	add	r4, pc, #52	; (adr r4, 10000234 <data_cpy_table>)
10000200:	cc0e      	ldmia	r4!, {r1, r2, r3}
10000202:	2900      	cmp	r1, #0
10000204:	d002      	beq.n	1000020c <_reset_handler+0x16>
10000206:	f000 f812 	bl	1000022e <data_cpy>
1000020a:	e7f9      	b.n	10000200 <_reset_handler+0xa>
1000020c:	491a      	ldr	r1, [pc, #104]	; (10000278 <__get_current_exception+0x12>)
1000020e:	4a1b      	ldr	r2, [pc, #108]	; (1000027c <__get_current_exception+0x16>)
10000210:	2000      	movs	r0, #0
10000212:	e000      	b.n	10000216 <bss_fill_test>

10000214 <bss_fill_loop>:
10000214:	c101      	stmia	r1!, {r0}

10000216 <bss_fill_test>:
10000216:	4291      	cmp	r1, r2
10000218:	d1fc      	bne.n	10000214 <bss_fill_loop>

1000021a <platform_entry>:
1000021a:	4919      	ldr	r1, [pc, #100]	; (10000280 <__get_current_exception+0x1a>)
1000021c:	4788      	blx	r1
1000021e:	4919      	ldr	r1, [pc, #100]	; (10000284 <__get_current_exception+0x1e>)
10000220:	4788      	blx	r1
10000222:	4919      	ldr	r1, [pc, #100]	; (10000288 <__get_current_exception+0x22>)
10000224:	4788      	blx	r1
10000226:	be00      	bkpt	0x0000
10000228:	e7fd      	b.n	10000226 <platform_entry+0xc>

1000022a <data_cpy_loop>:
1000022a:	c901      	ldmia	r1!, {r0}
1000022c:	c201      	stmia	r2!, {r0}

1000022e <data_cpy>:
1000022e:	429a      	cmp	r2, r3
10000230:	d3fb      	bcc.n	1000022a <data_cpy_loop>
10000232:	4770      	bx	lr

10000234 <data_cpy_table>:
10000234:	1000a4a8 	.word	0x1000a4a8
10000238:	200000c0 	.word	0x200000c0
1000023c:	20000e24 	.word	0x20000e24
10000240:	1000b20c 	.word	0x1000b20c
10000244:	20040000 	.word	0x20040000
10000248:	20040000 	.word	0x20040000
1000024c:	1000b20c 	.word	0x1000b20c
10000250:	20041000 	.word	0x20041000
10000254:	20041000 	.word	0x20041000
10000258:	00000000 	.word	0x00000000
1000025c:	4770      	bx	lr

1000025e <hold_non_core0_in_bootrom>:
1000025e:	480b      	ldr	r0, [pc, #44]	; (1000028c <__get_current_exception+0x26>)
10000260:	f008 f918 	bl	10008494 <rom_func_lookup>
10000264:	4700      	bx	r0

10000266 <__get_current_exception>:
10000266:	f3ef 8005 	mrs	r0, IPSR
1000026a:	b2c0      	uxtb	r0, r0
1000026c:	4770      	bx	lr
1000026e:	0000      	.short	0x0000
10000270:	e000ed08 	.word	0xe000ed08
10000274:	d0000000 	.word	0xd0000000
10000278:	20000e28 	.word	0x20000e28
1000027c:	20001348 	.word	0x20001348
10000280:	10007f31 	.word	0x10007f31
10000284:	1000035d 	.word	0x1000035d
10000288:	10008055 	.word	0x10008055
1000028c:	00005657 	.word	0x00005657

10000290 <__bi_50>:
10000290:	50520006 5360b3ab 1000a438              ..RP..`S8...

1000029c <__bi_38>:
1000029c:	50520006 02031c86 1000a448              ..RP....H...

100002a8 <__bi_30>:
100002a8:	50520006 9da22254 1000a450              ..RPT"..P...

100002b4 <__bi_22>:
100002b4:	50520005 68f465de 1000b20c              ..RP.e.h....

100002c0 <_init>:
100002c0:	b5f8      	push	{r3, r4, r5, r6, r7, lr}
100002c2:	46c0      	nop			; (mov r8, r8)

100002c4 <deregister_tm_clones>:
100002c4:	4804      	ldr	r0, [pc, #16]	; (100002d8 <deregister_tm_clones+0x14>)
100002c6:	4b05      	ldr	r3, [pc, #20]	; (100002dc <deregister_tm_clones+0x18>)
100002c8:	b510      	push	{r4, lr}
100002ca:	4283      	cmp	r3, r0
100002cc:	d003      	beq.n	100002d6 <deregister_tm_clones+0x12>
100002ce:	4b04      	ldr	r3, [pc, #16]	; (100002e0 <deregister_tm_clones+0x1c>)
100002d0:	2b00      	cmp	r3, #0
100002d2:	d000      	beq.n	100002d6 <deregister_tm_clones+0x12>
100002d4:	4798      	blx	r3
100002d6:	bd10      	pop	{r4, pc}
100002d8:	20000e24 	.word	0x20000e24
100002dc:	20000e24 	.word	0x20000e24
100002e0:	00000000 	.word	0x00000000

100002e4 <register_tm_clones>:
100002e4:	4806      	ldr	r0, [pc, #24]	; (10000300 <register_tm_clones+0x1c>)
100002e6:	4907      	ldr	r1, [pc, #28]	; (10000304 <register_tm_clones+0x20>)
100002e8:	1a09      	subs	r1, r1, r0
100002ea:	108b      	asrs	r3, r1, #2
100002ec:	0fc9      	lsrs	r1, r1, #31
100002ee:	18c9      	adds	r1, r1, r3
100002f0:	b510      	push	{r4, lr}
100002f2:	1049      	asrs	r1, r1, #1
100002f4:	d003      	beq.n	100002fe <register_tm_clones+0x1a>
100002f6:	4b04      	ldr	r3, [pc, #16]	; (10000308 <register_tm_clones+0x24>)
100002f8:	2b00      	cmp	r3, #0
100002fa:	d000      	beq.n	100002fe <register_tm_clones+0x1a>
100002fc:	4798      	blx	r3
100002fe:	bd10      	pop	{r4, pc}
10000300:	20000e24 	.word	0x20000e24
10000304:	20000e24 	.word	0x20000e24
10000308:	00000000 	.word	0x00000000

1000030c <__do_global_dtors_aux>:
1000030c:	b510      	push	{r4, lr}
1000030e:	4c07      	ldr	r4, [pc, #28]	; (1000032c <__do_global_dtors_aux+0x20>)
10000310:	7823      	ldrb	r3, [r4, #0]
10000312:	2b00      	cmp	r3, #0
10000314:	d109      	bne.n	1000032a <__do_global_dtors_aux+0x1e>
10000316:	f7ff ffd5 	bl	100002c4 <deregister_tm_clones>
1000031a:	4b05      	ldr	r3, [pc, #20]	; (10000330 <__do_global_dtors_aux+0x24>)
1000031c:	2b00      	cmp	r3, #0
1000031e:	d002      	beq.n	10000326 <__do_global_dtors_aux+0x1a>
10000320:	4804      	ldr	r0, [pc, #16]	; (10000334 <__do_global_dtors_aux+0x28>)
10000322:	e000      	b.n	10000326 <__do_global_dtors_aux+0x1a>
10000324:	bf00      	nop
10000326:	2301      	movs	r3, #1
10000328:	7023      	strb	r3, [r4, #0]
1000032a:	bd10      	pop	{r4, pc}
1000032c:	20001128 	.word	0x20001128
10000330:	00000000 	.word	0x00000000
10000334:	10009590 	.word	0x10009590

10000338 <frame_dummy>:
10000338:	4b05      	ldr	r3, [pc, #20]	; (10000350 <frame_dummy+0x18>)
1000033a:	b510      	push	{r4, lr}
1000033c:	2b00      	cmp	r3, #0
1000033e:	d003      	beq.n	10000348 <frame_dummy+0x10>
10000340:	4904      	ldr	r1, [pc, #16]	; (10000354 <frame_dummy+0x1c>)
10000342:	4805      	ldr	r0, [pc, #20]	; (10000358 <frame_dummy+0x20>)
10000344:	e000      	b.n	10000348 <frame_dummy+0x10>
10000346:	bf00      	nop
10000348:	f7ff ffcc 	bl	100002e4 <register_tm_clones>
1000034c:	bd10      	pop	{r4, pc}
1000034e:	46c0      	nop			; (mov r8, r8)
10000350:	00000000 	.word	0x00000000
10000354:	2000112c 	.word	0x2000112c
10000358:	10009590 	.word	0x10009590

1000035c <main>:
1000035c:	b5f0      	push	{r4, r5, r6, r7, lr}
1000035e:	2019      	movs	r0, #25
10000360:	b0a9      	sub	sp, #164	; 0xa4
10000362:	f006 fde5 	bl	10006f30 <gpio_init>
10000366:	23d0      	movs	r3, #208	; 0xd0
10000368:	2280      	movs	r2, #128	; 0x80
1000036a:	061b      	lsls	r3, r3, #24
1000036c:	0492      	lsls	r2, r2, #18
1000036e:	625a      	str	r2, [r3, #36]	; 0x24
10000370:	619a      	str	r2, [r3, #24]
10000372:	4b48      	ldr	r3, [pc, #288]	; (10000494 <main+0x138>)
10000374:	2210      	movs	r2, #16
10000376:	9301      	str	r3, [sp, #4]
10000378:	2313      	movs	r3, #19
1000037a:	4947      	ldr	r1, [pc, #284]	; (10000498 <main+0x13c>)
1000037c:	9300      	str	r3, [sp, #0]
1000037e:	a802      	add	r0, sp, #8
10000380:	3b01      	subs	r3, #1
10000382:	f000 f92b 	bl	100005dc <_ZN11HardwareSPIC1EP8spi_insthhhj>
10000386:	2111      	movs	r1, #17
10000388:	a802      	add	r0, sp, #8
1000038a:	f000 f8c5 	bl	10000518 <_ZN11HardwareSPI12setDedicatedEh>
1000038e:	2314      	movs	r3, #20
10000390:	2211      	movs	r2, #17
10000392:	9300      	str	r3, [sp, #0]
10000394:	a902      	add	r1, sp, #8
10000396:	3301      	adds	r3, #1
10000398:	a805      	add	r0, sp, #20
1000039a:	f000 f94b 	bl	10000634 <_ZN11ST7735_picoC1EP3SPIhhh>
1000039e:	2102      	movs	r1, #2
100003a0:	a805      	add	r0, sp, #20
100003a2:	f000 fd57 	bl	10000e54 <_ZN11ST7735_pico5initREh>
100003a6:	21f8      	movs	r1, #248	; 0xf8
100003a8:	a805      	add	r0, sp, #20
100003aa:	0209      	lsls	r1, r1, #8
100003ac:	f001 fc5a 	bl	10001c64 <_ZN11ST7735_pico10fillScreenEt>
100003b0:	20fa      	movs	r0, #250	; 0xfa
100003b2:	0080      	lsls	r0, r0, #2
100003b4:	f007 fa5c 	bl	10007870 <sleep_ms>
100003b8:	4e38      	ldr	r6, [pc, #224]	; (1000049c <main+0x140>)
100003ba:	4f39      	ldr	r7, [pc, #228]	; (100004a0 <main+0x144>)
100003bc:	2520      	movs	r5, #32
100003be:	2401      	movs	r4, #1
100003c0:	0063      	lsls	r3, r4, #1
100003c2:	0be4      	lsrs	r4, r4, #15
100003c4:	431c      	orrs	r4, r3
100003c6:	b2a4      	uxth	r4, r4
100003c8:	0021      	movs	r1, r4
100003ca:	a805      	add	r0, sp, #20
100003cc:	f001 fc4a 	bl	10001c64 <_ZN11ST7735_pico10fillScreenEt>
100003d0:	3d01      	subs	r5, #1
100003d2:	2028      	movs	r0, #40	; 0x28
100003d4:	f007 fa4c 	bl	10007870 <sleep_ms>
100003d8:	2d00      	cmp	r5, #0
100003da:	d1f1      	bne.n	100003c0 <main+0x64>
100003dc:	2100      	movs	r1, #0
100003de:	a805      	add	r0, sp, #20
100003e0:	f001 fc40 	bl	10001c64 <_ZN11ST7735_pico10fillScreenEt>
100003e4:	466b      	mov	r3, sp
100003e6:	241f      	movs	r4, #31
100003e8:	223a      	movs	r2, #58	; 0x3a
100003ea:	5e9b      	ldrsh	r3, [r3, r2]
100003ec:	466a      	mov	r2, sp
100003ee:	9401      	str	r4, [sp, #4]
100003f0:	213c      	movs	r1, #60	; 0x3c
100003f2:	5e52      	ldrsh	r2, [r2, r1]
100003f4:	a805      	add	r0, sp, #20
100003f6:	2100      	movs	r1, #0
100003f8:	9200      	str	r2, [sp, #0]
100003fa:	2200      	movs	r2, #0
100003fc:	f001 fe46 	bl	1000208c <_ZN11ST7735_pico8drawLineEsssst>
10000400:	466b      	mov	r3, sp
10000402:	223a      	movs	r2, #58	; 0x3a
10000404:	5e9b      	ldrsh	r3, [r3, r2]
10000406:	466a      	mov	r2, sp
10000408:	a805      	add	r0, sp, #20
1000040a:	213c      	movs	r1, #60	; 0x3c
1000040c:	5e52      	ldrsh	r2, [r2, r1]
1000040e:	2100      	movs	r1, #0
10000410:	9401      	str	r4, [sp, #4]
10000412:	9500      	str	r5, [sp, #0]
10000414:	f001 fe3a 	bl	1000208c <_ZN11ST7735_pico8drawLineEsssst>
10000418:	20fa      	movs	r0, #250	; 0xfa
1000041a:	0080      	lsls	r0, r0, #2
1000041c:	f007 fa28 	bl	10007870 <sleep_ms>
10000420:	a805      	add	r0, sp, #20
10000422:	2100      	movs	r1, #0
10000424:	f001 fc1e 	bl	10001c64 <_ZN11ST7735_pico10fillScreenEt>
10000428:	a805      	add	r0, sp, #20
1000042a:	491e      	ldr	r1, [pc, #120]	; (100004a4 <main+0x148>)
1000042c:	f003 f856 	bl	100034dc <_ZN11ST7735_pico12setTextColorEt>
10000430:	466b      	mov	r3, sp
10000432:	223c      	movs	r2, #60	; 0x3c
10000434:	5e9a      	ldrsh	r2, [r3, r2]
10000436:	0031      	movs	r1, r6
10000438:	0fd3      	lsrs	r3, r2, #31
1000043a:	189b      	adds	r3, r3, r2
1000043c:	105b      	asrs	r3, r3, #1
1000043e:	2201      	movs	r2, #1
10000440:	a805      	add	r0, sp, #20
10000442:	f005 fc77 	bl	10005d34 <_ZN11ST7735_pico10drawStringEPKcii>
10000446:	20fa      	movs	r0, #250	; 0xfa
10000448:	0080      	lsls	r0, r0, #2
1000044a:	f007 fa11 	bl	10007870 <sleep_ms>
1000044e:	21fc      	movs	r1, #252	; 0xfc
10000450:	a805      	add	r0, sp, #20
10000452:	00c9      	lsls	r1, r1, #3
10000454:	f003 f842 	bl	100034dc <_ZN11ST7735_pico12setTextColorEt>
10000458:	0039      	movs	r1, r7
1000045a:	a805      	add	r0, sp, #20
1000045c:	f003 fccc 	bl	10003df8 <_ZN11ST7735_pico7setFontERK17ILI9341_t3_font_t>
10000460:	a805      	add	r0, sp, #20
10000462:	2103      	movs	r1, #3
10000464:	f000 fa60 	bl	10000928 <_ZN11ST7735_pico11setRotationEh>
10000468:	a805      	add	r0, sp, #20
1000046a:	2300      	movs	r3, #0
1000046c:	2206      	movs	r2, #6
1000046e:	2101      	movs	r1, #1
10000470:	f002 ffe4 	bl	1000343c <_ZN11ST7735_pico9setCursorEssb>
10000474:	466b      	mov	r3, sp
10000476:	223c      	movs	r2, #60	; 0x3c
10000478:	5e9a      	ldrsh	r2, [r3, r2]
1000047a:	0031      	movs	r1, r6
1000047c:	0fd3      	lsrs	r3, r2, #31
1000047e:	189b      	adds	r3, r3, r2
10000480:	105b      	asrs	r3, r3, #1
10000482:	2201      	movs	r2, #1
10000484:	a805      	add	r0, sp, #20
10000486:	f005 fc55 	bl	10005d34 <_ZN11ST7735_pico10drawStringEPKcii>
1000048a:	20fa      	movs	r0, #250	; 0xfa
1000048c:	0080      	lsls	r0, r0, #2
1000048e:	f007 f9ef 	bl	10007870 <sleep_ms>
10000492:	e793      	b.n	100003bc <main+0x60>
10000494:	01312d00 	.word	0x01312d00
10000498:	4003c000 	.word	0x4003c000
1000049c:	10009590 	.word	0x10009590
100004a0:	10009bcc 	.word	0x10009bcc
100004a4:	0000ffff 	.word	0x0000ffff

100004a8 <_ZN11HardwareSPI4busyEv>:
100004a8:	6843      	ldr	r3, [r0, #4]
100004aa:	68d8      	ldr	r0, [r3, #12]
100004ac:	06c0      	lsls	r0, r0, #27
100004ae:	0fc0      	lsrs	r0, r0, #31
100004b0:	4770      	bx	lr
100004b2:	46c0      	nop			; (mov r8, r8)

100004b4 <_ZNK11HardwareSPI11isDedicatedEv>:
100004b4:	7a00      	ldrb	r0, [r0, #8]
100004b6:	38ff      	subs	r0, #255	; 0xff
100004b8:	1e43      	subs	r3, r0, #1
100004ba:	4198      	sbcs	r0, r3
100004bc:	b2c0      	uxtb	r0, r0
100004be:	4770      	bx	lr

100004c0 <_ZN11HardwareSPI10set_formatEj10spi_cpol_t10spi_cpha_t11spi_order_t>:
100004c0:	b510      	push	{r4, lr}
100004c2:	6844      	ldr	r4, [r0, #4]
100004c4:	0192      	lsls	r2, r2, #6
100004c6:	3901      	subs	r1, #1
100004c8:	6820      	ldr	r0, [r4, #0]
100004ca:	4311      	orrs	r1, r2
100004cc:	01db      	lsls	r3, r3, #7
100004ce:	4319      	orrs	r1, r3
100004d0:	4041      	eors	r1, r0
100004d2:	2080      	movs	r0, #128	; 0x80
100004d4:	23cf      	movs	r3, #207	; 0xcf
100004d6:	0140      	lsls	r0, r0, #5
100004d8:	4019      	ands	r1, r3
100004da:	4320      	orrs	r0, r4
100004dc:	6001      	str	r1, [r0, #0]
100004de:	bd10      	pop	{r4, pc}

100004e0 <_ZN11HardwareSPI9set_slaveEb>:
100004e0:	6843      	ldr	r3, [r0, #4]
100004e2:	3304      	adds	r3, #4
100004e4:	2900      	cmp	r1, #0
100004e6:	d005      	beq.n	100004f4 <_ZN11HardwareSPI9set_slaveEb+0x14>
100004e8:	2280      	movs	r2, #128	; 0x80
100004ea:	0192      	lsls	r2, r2, #6
100004ec:	4313      	orrs	r3, r2
100004ee:	2204      	movs	r2, #4
100004f0:	601a      	str	r2, [r3, #0]
100004f2:	4770      	bx	lr
100004f4:	22c0      	movs	r2, #192	; 0xc0
100004f6:	0192      	lsls	r2, r2, #6
100004f8:	4313      	orrs	r3, r2
100004fa:	2204      	movs	r2, #4
100004fc:	601a      	str	r2, [r3, #0]
100004fe:	e7f8      	b.n	100004f2 <_ZN11HardwareSPI9set_slaveEb+0x12>

10000500 <_ZN11HardwareSPI11is_writableEv>:
10000500:	6843      	ldr	r3, [r0, #4]
10000502:	68d8      	ldr	r0, [r3, #12]
10000504:	0780      	lsls	r0, r0, #30
10000506:	0fc0      	lsrs	r0, r0, #31
10000508:	4770      	bx	lr
1000050a:	46c0      	nop			; (mov r8, r8)

1000050c <_ZN11HardwareSPI11is_readableEv>:
1000050c:	6843      	ldr	r3, [r0, #4]
1000050e:	68d8      	ldr	r0, [r3, #12]
10000510:	0740      	lsls	r0, r0, #29
10000512:	0fc0      	lsrs	r0, r0, #31
10000514:	4770      	bx	lr
10000516:	46c0      	nop			; (mov r8, r8)

10000518 <_ZN11HardwareSPI12setDedicatedEh>:
10000518:	b570      	push	{r4, r5, r6, lr}
1000051a:	000c      	movs	r4, r1
1000051c:	0005      	movs	r5, r0
1000051e:	2101      	movs	r1, #1
10000520:	0020      	movs	r0, r4
10000522:	f006 fced 	bl	10006f00 <gpio_set_function>
10000526:	722c      	strb	r4, [r5, #8]
10000528:	bd70      	pop	{r4, r5, r6, pc}
1000052a:	46c0      	nop			; (mov r8, r8)

1000052c <_ZN11HardwareSPID1Ev>:
1000052c:	b510      	push	{r4, lr}
1000052e:	0004      	movs	r4, r0
10000530:	4b03      	ldr	r3, [pc, #12]	; (10000540 <_ZN11HardwareSPID1Ev+0x14>)
10000532:	3308      	adds	r3, #8
10000534:	6003      	str	r3, [r0, #0]
10000536:	6840      	ldr	r0, [r0, #4]
10000538:	f008 fb5a 	bl	10008bf0 <spi_deinit>
1000053c:	0020      	movs	r0, r4
1000053e:	bd10      	pop	{r4, pc}
10000540:	1000959c 	.word	0x1000959c

10000544 <_ZN11HardwareSPID0Ev>:
10000544:	b510      	push	{r4, lr}
10000546:	0004      	movs	r4, r0
10000548:	4b05      	ldr	r3, [pc, #20]	; (10000560 <_ZN11HardwareSPID0Ev+0x1c>)
1000054a:	3308      	adds	r3, #8
1000054c:	6003      	str	r3, [r0, #0]
1000054e:	6840      	ldr	r0, [r0, #4]
10000550:	f008 fb4e 	bl	10008bf0 <spi_deinit>
10000554:	0020      	movs	r0, r4
10000556:	210c      	movs	r1, #12
10000558:	f008 f954 	bl	10008804 <_ZdlPvj>
1000055c:	0020      	movs	r0, r4
1000055e:	bd10      	pop	{r4, pc}
10000560:	1000959c 	.word	0x1000959c

10000564 <_ZN11HardwareSPI10write_readEPKhPhj>:
10000564:	b510      	push	{r4, lr}
10000566:	6840      	ldr	r0, [r0, #4]
10000568:	f008 ffea 	bl	10009540 <__spi_write_read_blocking_veneer>
1000056c:	bd10      	pop	{r4, pc}
1000056e:	46c0      	nop			; (mov r8, r8)

10000570 <_ZN11HardwareSPI5writeEPKhj>:
10000570:	b510      	push	{r4, lr}
10000572:	6840      	ldr	r0, [r0, #4]
10000574:	f008 ffdc 	bl	10009530 <__spi_write_blocking_veneer>
10000578:	bd10      	pop	{r4, pc}
1000057a:	46c0      	nop			; (mov r8, r8)

1000057c <_ZN11HardwareSPI4readEhPhj>:
1000057c:	b510      	push	{r4, lr}
1000057e:	6840      	ldr	r0, [r0, #4]
10000580:	f008 ffb6 	bl	100094f0 <__spi_read_blocking_veneer>
10000584:	bd10      	pop	{r4, pc}
10000586:	46c0      	nop			; (mov r8, r8)

10000588 <_ZN11HardwareSPI14write16_read16EPKtPtj>:
10000588:	b510      	push	{r4, lr}
1000058a:	6840      	ldr	r0, [r0, #4]
1000058c:	f008 ffe0 	bl	10009550 <__spi_write16_read16_blocking_veneer>
10000590:	bd10      	pop	{r4, pc}
10000592:	46c0      	nop			; (mov r8, r8)

10000594 <_ZN11HardwareSPI7write16EPKtj>:
10000594:	b510      	push	{r4, lr}
10000596:	6840      	ldr	r0, [r0, #4]
10000598:	f008 fff2 	bl	10009580 <__spi_write16_blocking_veneer>
1000059c:	bd10      	pop	{r4, pc}
1000059e:	46c0      	nop			; (mov r8, r8)

100005a0 <_ZN11HardwareSPI6read16EtPtj>:
100005a0:	b510      	push	{r4, lr}
100005a2:	6840      	ldr	r0, [r0, #4]
100005a4:	f008 ffdc 	bl	10009560 <__spi_read16_blocking_veneer>
100005a8:	bd10      	pop	{r4, pc}
100005aa:	46c0      	nop			; (mov r8, r8)

100005ac <_ZN3SPI5writeEh>:
100005ac:	b510      	push	{r4, lr}
100005ae:	b082      	sub	sp, #8
100005b0:	466b      	mov	r3, sp
100005b2:	6802      	ldr	r2, [r0, #0]
100005b4:	71d9      	strb	r1, [r3, #7]
100005b6:	3307      	adds	r3, #7
100005b8:	6a94      	ldr	r4, [r2, #40]	; 0x28
100005ba:	0019      	movs	r1, r3
100005bc:	2201      	movs	r2, #1
100005be:	47a0      	blx	r4
100005c0:	b002      	add	sp, #8
100005c2:	bd10      	pop	{r4, pc}

100005c4 <_ZN3SPI7write16Et>:
100005c4:	b510      	push	{r4, lr}
100005c6:	b082      	sub	sp, #8
100005c8:	466b      	mov	r3, sp
100005ca:	6802      	ldr	r2, [r0, #0]
100005cc:	80d9      	strh	r1, [r3, #6]
100005ce:	3306      	adds	r3, #6
100005d0:	6b54      	ldr	r4, [r2, #52]	; 0x34
100005d2:	0019      	movs	r1, r3
100005d4:	2201      	movs	r2, #1
100005d6:	47a0      	blx	r4
100005d8:	b002      	add	sp, #8
100005da:	bd10      	pop	{r4, pc}

100005dc <_ZN11HardwareSPIC1EP8spi_insthhhj>:
100005dc:	b5f8      	push	{r3, r4, r5, r6, r7, lr}
100005de:	0004      	movs	r4, r0
100005e0:	001d      	movs	r5, r3
100005e2:	ab06      	add	r3, sp, #24
100005e4:	781f      	ldrb	r7, [r3, #0]
100005e6:	4b0c      	ldr	r3, [pc, #48]	; (10000618 <_ZN11HardwareSPIC1EP8spi_insthhhj+0x3c>)
100005e8:	0016      	movs	r6, r2
100005ea:	3308      	adds	r3, #8
100005ec:	6023      	str	r3, [r4, #0]
100005ee:	23ff      	movs	r3, #255	; 0xff
100005f0:	6061      	str	r1, [r4, #4]
100005f2:	7223      	strb	r3, [r4, #8]
100005f4:	0008      	movs	r0, r1
100005f6:	9907      	ldr	r1, [sp, #28]
100005f8:	f008 fa7e 	bl	10008af8 <spi_init>
100005fc:	0030      	movs	r0, r6
100005fe:	2101      	movs	r1, #1
10000600:	f006 fc7e 	bl	10006f00 <gpio_set_function>
10000604:	0028      	movs	r0, r5
10000606:	2101      	movs	r1, #1
10000608:	f006 fc7a 	bl	10006f00 <gpio_set_function>
1000060c:	0038      	movs	r0, r7
1000060e:	2101      	movs	r1, #1
10000610:	f006 fc76 	bl	10006f00 <gpio_set_function>
10000614:	0020      	movs	r0, r4
10000616:	bdf8      	pop	{r3, r4, r5, r6, r7, pc}
10000618:	1000959c 	.word	0x1000959c

1000061c <_ZN11ST7735_pico5writeEh>:
1000061c:	b510      	push	{r4, lr}
1000061e:	b082      	sub	sp, #8
10000620:	466b      	mov	r3, sp
10000622:	6802      	ldr	r2, [r0, #0]
10000624:	71d9      	strb	r1, [r3, #7]
10000626:	3307      	adds	r3, #7
10000628:	6894      	ldr	r4, [r2, #8]
1000062a:	0019      	movs	r1, r3
1000062c:	2201      	movs	r2, #1
1000062e:	47a0      	blx	r4
10000630:	b002      	add	sp, #8
10000632:	bd10      	pop	{r4, pc}

10000634 <_ZN11ST7735_picoC1EP3SPIhhh>:
10000634:	b5f0      	push	{r4, r5, r6, r7, lr}
10000636:	4657      	mov	r7, sl
10000638:	464e      	mov	r6, r9
1000063a:	4645      	mov	r5, r8
1000063c:	46de      	mov	lr, fp
1000063e:	0004      	movs	r4, r0
10000640:	b5e0      	push	{r5, r6, r7, lr}
10000642:	b083      	sub	sp, #12
10000644:	001e      	movs	r6, r3
10000646:	ab0c      	add	r3, sp, #48	; 0x30
10000648:	781f      	ldrb	r7, [r3, #0]
1000064a:	4b88      	ldr	r3, [pc, #544]	; (1000086c <_ZN11ST7735_picoC1EP3SPIhhh+0x238>)
1000064c:	6061      	str	r1, [r4, #4]
1000064e:	3308      	adds	r3, #8
10000650:	6023      	str	r3, [r4, #0]
10000652:	4b87      	ldr	r3, [pc, #540]	; (10000870 <_ZN11ST7735_picoC1EP3SPIhhh+0x23c>)
10000654:	0008      	movs	r0, r1
10000656:	6523      	str	r3, [r4, #80]	; 0x50
10000658:	23fe      	movs	r3, #254	; 0xfe
1000065a:	059b      	lsls	r3, r3, #22
1000065c:	65a3      	str	r3, [r4, #88]	; 0x58
1000065e:	2160      	movs	r1, #96	; 0x60
10000660:	2300      	movs	r3, #0
10000662:	65e3      	str	r3, [r4, #92]	; 0x5c
10000664:	5463      	strb	r3, [r4, r1]
10000666:	310c      	adds	r1, #12
10000668:	5263      	strh	r3, [r4, r1]
1000066a:	0231      	lsls	r1, r6, #8
1000066c:	430a      	orrs	r2, r1
1000066e:	2180      	movs	r1, #128	; 0x80
10000670:	5262      	strh	r2, [r4, r1]
10000672:	2282      	movs	r2, #130	; 0x82
10000674:	317f      	adds	r1, #127	; 0x7f
10000676:	54a7      	strb	r7, [r4, r2]
10000678:	3a08      	subs	r2, #8
1000067a:	52a1      	strh	r1, [r4, r2]
1000067c:	4a7d      	ldr	r2, [pc, #500]	; (10000874 <_ZN11ST7735_picoC1EP3SPIhhh+0x240>)
1000067e:	2102      	movs	r1, #2
10000680:	67e2      	str	r2, [r4, #124]	; 0x7c
10000682:	2244      	movs	r2, #68	; 0x44
10000684:	31ff      	adds	r1, #255	; 0xff
10000686:	52a1      	strh	r1, [r4, r2]
10000688:	3a45      	subs	r2, #69	; 0x45
1000068a:	3901      	subs	r1, #1
1000068c:	6362      	str	r2, [r4, #52]	; 0x34
1000068e:	39ff      	subs	r1, #255	; 0xff
10000690:	3249      	adds	r2, #73	; 0x49
10000692:	54a1      	strb	r1, [r4, r2]
10000694:	2228      	movs	r2, #40	; 0x28
10000696:	5ea1      	ldrsh	r1, [r4, r2]
10000698:	64e3      	str	r3, [r4, #76]	; 0x4c
1000069a:	8163      	strh	r3, [r4, #10]
1000069c:	60e3      	str	r3, [r4, #12]
1000069e:	6123      	str	r3, [r4, #16]
100006a0:	2226      	movs	r2, #38	; 0x26
100006a2:	5ea3      	ldrsh	r3, [r4, r2]
100006a4:	2518      	movs	r5, #24
100006a6:	5f62      	ldrsh	r2, [r4, r5]
100006a8:	469c      	mov	ip, r3
100006aa:	82a3      	strh	r3, [r4, #20]
100006ac:	82e1      	strh	r1, [r4, #22]
100006ae:	4293      	cmp	r3, r2
100006b0:	dd00      	ble.n	100006b4 <_ZN11ST7735_picoC1EP3SPIhhh+0x80>
100006b2:	4694      	mov	ip, r2
100006b4:	4665      	mov	r5, ip
100006b6:	b22d      	sxth	r5, r5
100006b8:	46ab      	mov	fp, r5
100006ba:	4665      	mov	r5, ip
100006bc:	042d      	lsls	r5, r5, #16
100006be:	d503      	bpl.n	100006c8 <_ZN11ST7735_picoC1EP3SPIhhh+0x94>
100006c0:	2500      	movs	r5, #0
100006c2:	46ac      	mov	ip, r5
100006c4:	2500      	movs	r5, #0
100006c6:	46ab      	mov	fp, r5
100006c8:	4665      	mov	r5, ip
100006ca:	18d2      	adds	r2, r2, r3
100006cc:	4694      	mov	ip, r2
100006ce:	b212      	sxth	r2, r2
100006d0:	83a5      	strh	r5, [r4, #28]
100006d2:	429a      	cmp	r2, r3
100006d4:	dd00      	ble.n	100006d8 <_ZN11ST7735_picoC1EP3SPIhhh+0xa4>
100006d6:	469c      	mov	ip, r3
100006d8:	4662      	mov	r2, ip
100006da:	b212      	sxth	r2, r2
100006dc:	4690      	mov	r8, r2
100006de:	4662      	mov	r2, ip
100006e0:	0412      	lsls	r2, r2, #16
100006e2:	d503      	bpl.n	100006ec <_ZN11ST7735_picoC1EP3SPIhhh+0xb8>
100006e4:	2200      	movs	r2, #0
100006e6:	4694      	mov	ip, r2
100006e8:	2200      	movs	r2, #0
100006ea:	4690      	mov	r8, r2
100006ec:	4662      	mov	r2, ip
100006ee:	8422      	strh	r2, [r4, #32]
100006f0:	251a      	movs	r5, #26
100006f2:	5f62      	ldrsh	r2, [r4, r5]
100006f4:	468c      	mov	ip, r1
100006f6:	4291      	cmp	r1, r2
100006f8:	dd00      	ble.n	100006fc <_ZN11ST7735_picoC1EP3SPIhhh+0xc8>
100006fa:	4694      	mov	ip, r2
100006fc:	4665      	mov	r5, ip
100006fe:	b22d      	sxth	r5, r5
10000700:	46a9      	mov	r9, r5
10000702:	4665      	mov	r5, ip
10000704:	042d      	lsls	r5, r5, #16
10000706:	d503      	bpl.n	10000710 <_ZN11ST7735_picoC1EP3SPIhhh+0xdc>
10000708:	2500      	movs	r5, #0
1000070a:	46ac      	mov	ip, r5
1000070c:	2500      	movs	r5, #0
1000070e:	46a9      	mov	r9, r5
10000710:	4665      	mov	r5, ip
10000712:	1852      	adds	r2, r2, r1
10000714:	4694      	mov	ip, r2
10000716:	b212      	sxth	r2, r2
10000718:	83e5      	strh	r5, [r4, #30]
1000071a:	428a      	cmp	r2, r1
1000071c:	dd00      	ble.n	10000720 <_ZN11ST7735_picoC1EP3SPIhhh+0xec>
1000071e:	468c      	mov	ip, r1
10000720:	4662      	mov	r2, ip
10000722:	b212      	sxth	r2, r2
10000724:	4692      	mov	sl, r2
10000726:	4662      	mov	r2, ip
10000728:	0412      	lsls	r2, r2, #16
1000072a:	d503      	bpl.n	10000734 <_ZN11ST7735_picoC1EP3SPIhhh+0x100>
1000072c:	2200      	movs	r2, #0
1000072e:	4694      	mov	ip, r2
10000730:	2200      	movs	r2, #0
10000732:	4692      	mov	sl, r2
10000734:	4662      	mov	r2, ip
10000736:	8462      	strh	r2, [r4, #34]	; 0x22
10000738:	45c3      	cmp	fp, r8
1000073a:	d100      	bne.n	1000073e <_ZN11ST7735_picoC1EP3SPIhhh+0x10a>
1000073c:	e06f      	b.n	1000081e <_ZN11ST7735_picoC1EP3SPIhhh+0x1ea>
1000073e:	464d      	mov	r5, r9
10000740:	4652      	mov	r2, sl
10000742:	1b52      	subs	r2, r2, r5
10000744:	0015      	movs	r5, r2
10000746:	426a      	negs	r2, r5
10000748:	416a      	adcs	r2, r5
1000074a:	2524      	movs	r5, #36	; 0x24
1000074c:	b2d2      	uxtb	r2, r2
1000074e:	46ac      	mov	ip, r5
10000750:	5562      	strb	r2, [r4, r5]
10000752:	4543      	cmp	r3, r8
10000754:	d069      	beq.n	1000082a <_ZN11ST7735_picoC1EP3SPIhhh+0x1f6>
10000756:	2500      	movs	r5, #0
10000758:	2225      	movs	r2, #37	; 0x25
1000075a:	54a5      	strb	r5, [r4, r2]
1000075c:	43da      	mvns	r2, r3
1000075e:	17d2      	asrs	r2, r2, #31
10000760:	401a      	ands	r2, r3
10000762:	8422      	strh	r2, [r4, #32]
10000764:	61a5      	str	r5, [r4, #24]
10000766:	61e5      	str	r5, [r4, #28]
10000768:	2900      	cmp	r1, #0
1000076a:	dd4e      	ble.n	1000080a <_ZN11ST7735_picoC1EP3SPIhhh+0x1d6>
1000076c:	8461      	strh	r1, [r4, #34]	; 0x22
1000076e:	2124      	movs	r1, #36	; 0x24
10000770:	1e5a      	subs	r2, r3, #1
10000772:	431a      	orrs	r2, r3
10000774:	0fd2      	lsrs	r2, r2, #31
10000776:	5462      	strb	r2, [r4, r1]
10000778:	2b00      	cmp	r3, #0
1000077a:	da4e      	bge.n	1000081a <_ZN11ST7735_picoC1EP3SPIhhh+0x1e6>
1000077c:	2200      	movs	r2, #0
1000077e:	2325      	movs	r3, #37	; 0x25
10000780:	54e2      	strb	r2, [r4, r3]
10000782:	6803      	ldr	r3, [r0, #0]
10000784:	68db      	ldr	r3, [r3, #12]
10000786:	4798      	blx	r3
10000788:	2800      	cmp	r0, #0
1000078a:	d103      	bne.n	10000794 <_ZN11ST7735_picoC1EP3SPIhhh+0x160>
1000078c:	2580      	movs	r5, #128	; 0x80
1000078e:	5d60      	ldrb	r0, [r4, r5]
10000790:	28ff      	cmp	r0, #255	; 0xff
10000792:	d12a      	bne.n	100007ea <_ZN11ST7735_picoC1EP3SPIhhh+0x1b6>
10000794:	6860      	ldr	r0, [r4, #4]
10000796:	6802      	ldr	r2, [r0, #0]
10000798:	6912      	ldr	r2, [r2, #16]
1000079a:	4790      	blx	r2
1000079c:	1e05      	subs	r5, r0, #0
1000079e:	d1f9      	bne.n	10000794 <_ZN11ST7735_picoC1EP3SPIhhh+0x160>
100007a0:	2201      	movs	r2, #1
100007a2:	4690      	mov	r8, r2
100007a4:	6860      	ldr	r0, [r4, #4]
100007a6:	2108      	movs	r1, #8
100007a8:	6803      	ldr	r3, [r0, #0]
100007aa:	9200      	str	r2, [sp, #0]
100007ac:	695b      	ldr	r3, [r3, #20]
100007ae:	2200      	movs	r2, #0
100007b0:	4699      	mov	r9, r3
100007b2:	2300      	movs	r3, #0
100007b4:	47c8      	blx	r9
100007b6:	0030      	movs	r0, r6
100007b8:	7265      	strb	r5, [r4, #9]
100007ba:	f006 fbb9 	bl	10006f30 <gpio_init>
100007be:	4643      	mov	r3, r8
100007c0:	25d0      	movs	r5, #208	; 0xd0
100007c2:	40b3      	lsls	r3, r6
100007c4:	062d      	lsls	r5, r5, #24
100007c6:	0038      	movs	r0, r7
100007c8:	626b      	str	r3, [r5, #36]	; 0x24
100007ca:	001e      	movs	r6, r3
100007cc:	f006 fbb0 	bl	10006f30 <gpio_init>
100007d0:	4643      	mov	r3, r8
100007d2:	0020      	movs	r0, r4
100007d4:	40bb      	lsls	r3, r7
100007d6:	626b      	str	r3, [r5, #36]	; 0x24
100007d8:	61ae      	str	r6, [r5, #24]
100007da:	61ab      	str	r3, [r5, #24]
100007dc:	b003      	add	sp, #12
100007de:	bcf0      	pop	{r4, r5, r6, r7}
100007e0:	46bb      	mov	fp, r7
100007e2:	46b2      	mov	sl, r6
100007e4:	46a9      	mov	r9, r5
100007e6:	46a0      	mov	r8, r4
100007e8:	bdf0      	pop	{r4, r5, r6, r7, pc}
100007ea:	f006 fba1 	bl	10006f30 <gpio_init>
100007ee:	2301      	movs	r3, #1
100007f0:	5d62      	ldrb	r2, [r4, r5]
100007f2:	6860      	ldr	r0, [r4, #4]
100007f4:	4093      	lsls	r3, r2
100007f6:	22d0      	movs	r2, #208	; 0xd0
100007f8:	0612      	lsls	r2, r2, #24
100007fa:	6253      	str	r3, [r2, #36]	; 0x24
100007fc:	6153      	str	r3, [r2, #20]
100007fe:	6802      	ldr	r2, [r0, #0]
10000800:	6912      	ldr	r2, [r2, #16]
10000802:	4790      	blx	r2
10000804:	1e05      	subs	r5, r0, #0
10000806:	d1c5      	bne.n	10000794 <_ZN11ST7735_picoC1EP3SPIhhh+0x160>
10000808:	e7ca      	b.n	100007a0 <_ZN11ST7735_picoC1EP3SPIhhh+0x16c>
1000080a:	8465      	strh	r5, [r4, #34]	; 0x22
1000080c:	2224      	movs	r2, #36	; 0x24
1000080e:	2501      	movs	r5, #1
10000810:	54a5      	strb	r5, [r4, r2]
10000812:	2b00      	cmp	r3, #0
10000814:	dbb2      	blt.n	1000077c <_ZN11ST7735_picoC1EP3SPIhhh+0x148>
10000816:	2900      	cmp	r1, #0
10000818:	d1b0      	bne.n	1000077c <_ZN11ST7735_picoC1EP3SPIhhh+0x148>
1000081a:	2201      	movs	r2, #1
1000081c:	e7af      	b.n	1000077e <_ZN11ST7735_picoC1EP3SPIhhh+0x14a>
1000081e:	2524      	movs	r5, #36	; 0x24
10000820:	2201      	movs	r2, #1
10000822:	46ac      	mov	ip, r5
10000824:	5562      	strb	r2, [r4, r5]
10000826:	4543      	cmp	r3, r8
10000828:	d195      	bne.n	10000756 <_ZN11ST7735_picoC1EP3SPIhhh+0x122>
1000082a:	465d      	mov	r5, fp
1000082c:	464a      	mov	r2, r9
1000082e:	4315      	orrs	r5, r2
10000830:	46ab      	mov	fp, r5
10000832:	d000      	beq.n	10000836 <_ZN11ST7735_picoC1EP3SPIhhh+0x202>
10000834:	e78f      	b.n	10000756 <_ZN11ST7735_picoC1EP3SPIhhh+0x122>
10000836:	458a      	cmp	sl, r1
10000838:	d000      	beq.n	1000083c <_ZN11ST7735_picoC1EP3SPIhhh+0x208>
1000083a:	e78c      	b.n	10000756 <_ZN11ST7735_picoC1EP3SPIhhh+0x122>
1000083c:	2201      	movs	r2, #1
1000083e:	4691      	mov	r9, r2
10000840:	464d      	mov	r5, r9
10000842:	3224      	adds	r2, #36	; 0x24
10000844:	54a5      	strb	r5, [r4, r2]
10000846:	465a      	mov	r2, fp
10000848:	61a2      	str	r2, [r4, #24]
1000084a:	61e2      	str	r2, [r4, #28]
1000084c:	4652      	mov	r2, sl
1000084e:	8423      	strh	r3, [r4, #32]
10000850:	2a00      	cmp	r2, #0
10000852:	d007      	beq.n	10000864 <_ZN11ST7735_picoC1EP3SPIhhh+0x230>
10000854:	8462      	strh	r2, [r4, #34]	; 0x22
10000856:	1e5a      	subs	r2, r3, #1
10000858:	4313      	orrs	r3, r2
1000085a:	4662      	mov	r2, ip
1000085c:	0fdb      	lsrs	r3, r3, #31
1000085e:	54a3      	strb	r3, [r4, r2]
10000860:	2201      	movs	r2, #1
10000862:	e78c      	b.n	1000077e <_ZN11ST7735_picoC1EP3SPIhhh+0x14a>
10000864:	4663      	mov	r3, ip
10000866:	8461      	strh	r1, [r4, #34]	; 0x22
10000868:	54e5      	strb	r5, [r4, r3]
1000086a:	e7d4      	b.n	10000816 <_ZN11ST7735_picoC1EP3SPIhhh+0x1e2>
1000086c:	100096bc 	.word	0x100096bc
10000870:	08010001 	.word	0x08010001
10000874:	008000a0 	.word	0x008000a0

10000878 <_ZN11ST7735_pico17writecommand_lastEh>:
10000878:	b5f0      	push	{r4, r5, r6, r7, lr}
1000087a:	7a43      	ldrb	r3, [r0, #9]
1000087c:	0004      	movs	r4, r0
1000087e:	000e      	movs	r6, r1
10000880:	b083      	sub	sp, #12
10000882:	2b00      	cmp	r3, #0
10000884:	d112      	bne.n	100008ac <_ZN11ST7735_pico17writecommand_lastEh+0x34>
10000886:	2381      	movs	r3, #129	; 0x81
10000888:	5ce2      	ldrb	r2, [r4, r3]
1000088a:	3b80      	subs	r3, #128	; 0x80
1000088c:	4093      	lsls	r3, r2
1000088e:	22d0      	movs	r2, #208	; 0xd0
10000890:	0612      	lsls	r2, r2, #24
10000892:	0031      	movs	r1, r6
10000894:	6860      	ldr	r0, [r4, #4]
10000896:	6193      	str	r3, [r2, #24]
10000898:	f7ff fe88 	bl	100005ac <_ZN3SPI5writeEh>
1000089c:	6860      	ldr	r0, [r4, #4]
1000089e:	6803      	ldr	r3, [r0, #0]
100008a0:	691b      	ldr	r3, [r3, #16]
100008a2:	4798      	blx	r3
100008a4:	2800      	cmp	r0, #0
100008a6:	d1f9      	bne.n	1000089c <_ZN11ST7735_pico17writecommand_lastEh+0x24>
100008a8:	b003      	add	sp, #12
100008aa:	bdf0      	pop	{r4, r5, r6, r7, pc}
100008ac:	6860      	ldr	r0, [r4, #4]
100008ae:	6803      	ldr	r3, [r0, #0]
100008b0:	691b      	ldr	r3, [r3, #16]
100008b2:	4798      	blx	r3
100008b4:	1e05      	subs	r5, r0, #0
100008b6:	d1f9      	bne.n	100008ac <_ZN11ST7735_pico17writecommand_lastEh+0x34>
100008b8:	2201      	movs	r2, #1
100008ba:	6860      	ldr	r0, [r4, #4]
100008bc:	2108      	movs	r1, #8
100008be:	6803      	ldr	r3, [r0, #0]
100008c0:	9200      	str	r2, [sp, #0]
100008c2:	695f      	ldr	r7, [r3, #20]
100008c4:	2200      	movs	r2, #0
100008c6:	2300      	movs	r3, #0
100008c8:	47b8      	blx	r7
100008ca:	7265      	strb	r5, [r4, #9]
100008cc:	e7db      	b.n	10000886 <_ZN11ST7735_pico17writecommand_lastEh+0xe>
100008ce:	46c0      	nop			; (mov r8, r8)

100008d0 <_ZN11ST7735_pico14writedata_lastEh>:
100008d0:	b5f0      	push	{r4, r5, r6, r7, lr}
100008d2:	7a43      	ldrb	r3, [r0, #9]
100008d4:	0004      	movs	r4, r0
100008d6:	000e      	movs	r6, r1
100008d8:	b083      	sub	sp, #12
100008da:	2b00      	cmp	r3, #0
100008dc:	d112      	bne.n	10000904 <_ZN11ST7735_pico14writedata_lastEh+0x34>
100008de:	2381      	movs	r3, #129	; 0x81
100008e0:	5ce2      	ldrb	r2, [r4, r3]
100008e2:	3b80      	subs	r3, #128	; 0x80
100008e4:	4093      	lsls	r3, r2
100008e6:	22d0      	movs	r2, #208	; 0xd0
100008e8:	0612      	lsls	r2, r2, #24
100008ea:	0031      	movs	r1, r6
100008ec:	6860      	ldr	r0, [r4, #4]
100008ee:	6153      	str	r3, [r2, #20]
100008f0:	f7ff fe5c 	bl	100005ac <_ZN3SPI5writeEh>
100008f4:	6860      	ldr	r0, [r4, #4]
100008f6:	6803      	ldr	r3, [r0, #0]
100008f8:	691b      	ldr	r3, [r3, #16]
100008fa:	4798      	blx	r3
100008fc:	2800      	cmp	r0, #0
100008fe:	d1f9      	bne.n	100008f4 <_ZN11ST7735_pico14writedata_lastEh+0x24>
10000900:	b003      	add	sp, #12
10000902:	bdf0      	pop	{r4, r5, r6, r7, pc}
10000904:	6860      	ldr	r0, [r4, #4]
10000906:	6803      	ldr	r3, [r0, #0]
10000908:	691b      	ldr	r3, [r3, #16]
1000090a:	4798      	blx	r3
1000090c:	1e05      	subs	r5, r0, #0
1000090e:	d1f9      	bne.n	10000904 <_ZN11ST7735_pico14writedata_lastEh+0x34>
10000910:	2201      	movs	r2, #1
10000912:	6860      	ldr	r0, [r4, #4]
10000914:	2108      	movs	r1, #8
10000916:	6803      	ldr	r3, [r0, #0]
10000918:	9200      	str	r2, [sp, #0]
1000091a:	695f      	ldr	r7, [r3, #20]
1000091c:	2200      	movs	r2, #0
1000091e:	2300      	movs	r3, #0
10000920:	47b8      	blx	r7
10000922:	7265      	strb	r5, [r4, #9]
10000924:	e7db      	b.n	100008de <_ZN11ST7735_pico14writedata_lastEh+0xe>
10000926:	46c0      	nop			; (mov r8, r8)

10000928 <_ZN11ST7735_pico11setRotationEh>:
10000928:	b5f0      	push	{r4, r5, r6, r7, lr}
1000092a:	46c6      	mov	lr, r8
1000092c:	b500      	push	{lr}
1000092e:	0004      	movs	r4, r0
10000930:	6840      	ldr	r0, [r0, #4]
10000932:	b082      	sub	sp, #8
10000934:	6803      	ldr	r3, [r0, #0]
10000936:	000e      	movs	r6, r1
10000938:	68db      	ldr	r3, [r3, #12]
1000093a:	4798      	blx	r3
1000093c:	2800      	cmp	r0, #0
1000093e:	d106      	bne.n	1000094e <_ZN11ST7735_pico11setRotationEh+0x26>
10000940:	2380      	movs	r3, #128	; 0x80
10000942:	5ce2      	ldrb	r2, [r4, r3]
10000944:	3b7f      	subs	r3, #127	; 0x7f
10000946:	4093      	lsls	r3, r2
10000948:	22d0      	movs	r2, #208	; 0xd0
1000094a:	0612      	lsls	r2, r2, #24
1000094c:	6193      	str	r3, [r2, #24]
1000094e:	7a63      	ldrb	r3, [r4, #9]
10000950:	2b00      	cmp	r3, #0
10000952:	d12e      	bne.n	100009b2 <_ZN11ST7735_pico11setRotationEh+0x8a>
10000954:	2381      	movs	r3, #129	; 0x81
10000956:	5ce2      	ldrb	r2, [r4, r3]
10000958:	3b80      	subs	r3, #128	; 0x80
1000095a:	4093      	lsls	r3, r2
1000095c:	22d0      	movs	r2, #208	; 0xd0
1000095e:	0612      	lsls	r2, r2, #24
10000960:	2136      	movs	r1, #54	; 0x36
10000962:	6193      	str	r3, [r2, #24]
10000964:	6860      	ldr	r0, [r4, #4]
10000966:	f7ff fe21 	bl	100005ac <_ZN3SPI5writeEh>
1000096a:	2103      	movs	r1, #3
1000096c:	2346      	movs	r3, #70	; 0x46
1000096e:	4031      	ands	r1, r6
10000970:	54e1      	strb	r1, [r4, r3]
10000972:	7a23      	ldrb	r3, [r4, #8]
10000974:	2902      	cmp	r1, #2
10000976:	d063      	beq.n	10000a40 <_ZN11ST7735_pico11setRotationEh+0x118>
10000978:	2903      	cmp	r1, #3
1000097a:	d044      	beq.n	10000a06 <_ZN11ST7735_pico11setRotationEh+0xde>
1000097c:	2901      	cmp	r1, #1
1000097e:	d029      	beq.n	100009d4 <_ZN11ST7735_pico11setRotationEh+0xac>
10000980:	2b02      	cmp	r3, #2
10000982:	d100      	bne.n	10000986 <_ZN11ST7735_pico11setRotationEh+0x5e>
10000984:	e0ee      	b.n	10000b64 <_ZN11ST7735_pico11setRotationEh+0x23c>
10000986:	2b05      	cmp	r3, #5
10000988:	d100      	bne.n	1000098c <_ZN11ST7735_pico11setRotationEh+0x64>
1000098a:	e0eb      	b.n	10000b64 <_ZN11ST7735_pico11setRotationEh+0x23c>
1000098c:	21c8      	movs	r1, #200	; 0xc8
1000098e:	0020      	movs	r0, r4
10000990:	f7ff ff9e 	bl	100008d0 <_ZN11ST7735_pico14writedata_lastEh>
10000994:	237e      	movs	r3, #126	; 0x7e
10000996:	5ae3      	ldrh	r3, [r4, r3]
10000998:	84e3      	strh	r3, [r4, #38]	; 0x26
1000099a:	237c      	movs	r3, #124	; 0x7c
1000099c:	5ae3      	ldrh	r3, [r4, r3]
1000099e:	8523      	strh	r3, [r4, #40]	; 0x28
100009a0:	2372      	movs	r3, #114	; 0x72
100009a2:	5ae2      	ldrh	r2, [r4, r3]
100009a4:	3304      	adds	r3, #4
100009a6:	52e2      	strh	r2, [r4, r3]
100009a8:	3b02      	subs	r3, #2
100009aa:	5ae2      	ldrh	r2, [r4, r3]
100009ac:	3304      	adds	r3, #4
100009ae:	52e2      	strh	r2, [r4, r3]
100009b0:	e062      	b.n	10000a78 <_ZN11ST7735_pico11setRotationEh+0x150>
100009b2:	6860      	ldr	r0, [r4, #4]
100009b4:	6803      	ldr	r3, [r0, #0]
100009b6:	691b      	ldr	r3, [r3, #16]
100009b8:	4798      	blx	r3
100009ba:	1e05      	subs	r5, r0, #0
100009bc:	d1f9      	bne.n	100009b2 <_ZN11ST7735_pico11setRotationEh+0x8a>
100009be:	2201      	movs	r2, #1
100009c0:	6860      	ldr	r0, [r4, #4]
100009c2:	2108      	movs	r1, #8
100009c4:	6803      	ldr	r3, [r0, #0]
100009c6:	9200      	str	r2, [sp, #0]
100009c8:	695f      	ldr	r7, [r3, #20]
100009ca:	2200      	movs	r2, #0
100009cc:	2300      	movs	r3, #0
100009ce:	47b8      	blx	r7
100009d0:	7265      	strb	r5, [r4, #9]
100009d2:	e7bf      	b.n	10000954 <_ZN11ST7735_pico11setRotationEh+0x2c>
100009d4:	2b02      	cmp	r3, #2
100009d6:	d100      	bne.n	100009da <_ZN11ST7735_pico11setRotationEh+0xb2>
100009d8:	e0ce      	b.n	10000b78 <_ZN11ST7735_pico11setRotationEh+0x250>
100009da:	2b05      	cmp	r3, #5
100009dc:	d100      	bne.n	100009e0 <_ZN11ST7735_pico11setRotationEh+0xb8>
100009de:	e0cb      	b.n	10000b78 <_ZN11ST7735_pico11setRotationEh+0x250>
100009e0:	21a8      	movs	r1, #168	; 0xa8
100009e2:	0020      	movs	r0, r4
100009e4:	f7ff ff74 	bl	100008d0 <_ZN11ST7735_pico14writedata_lastEh>
100009e8:	237e      	movs	r3, #126	; 0x7e
100009ea:	5ae3      	ldrh	r3, [r4, r3]
100009ec:	8523      	strh	r3, [r4, #40]	; 0x28
100009ee:	237c      	movs	r3, #124	; 0x7c
100009f0:	5ae3      	ldrh	r3, [r4, r3]
100009f2:	84e3      	strh	r3, [r4, #38]	; 0x26
100009f4:	2372      	movs	r3, #114	; 0x72
100009f6:	5ae2      	ldrh	r2, [r4, r3]
100009f8:	3306      	adds	r3, #6
100009fa:	52e2      	strh	r2, [r4, r3]
100009fc:	3b04      	subs	r3, #4
100009fe:	5ae2      	ldrh	r2, [r4, r3]
10000a00:	3302      	adds	r3, #2
10000a02:	52e2      	strh	r2, [r4, r3]
10000a04:	e038      	b.n	10000a78 <_ZN11ST7735_pico11setRotationEh+0x150>
10000a06:	2b02      	cmp	r3, #2
10000a08:	d100      	bne.n	10000a0c <_ZN11ST7735_pico11setRotationEh+0xe4>
10000a0a:	e0b0      	b.n	10000b6e <_ZN11ST7735_pico11setRotationEh+0x246>
10000a0c:	2b05      	cmp	r3, #5
10000a0e:	d100      	bne.n	10000a12 <_ZN11ST7735_pico11setRotationEh+0xea>
10000a10:	e0ad      	b.n	10000b6e <_ZN11ST7735_pico11setRotationEh+0x246>
10000a12:	2168      	movs	r1, #104	; 0x68
10000a14:	0020      	movs	r0, r4
10000a16:	f7ff ff5b 	bl	100008d0 <_ZN11ST7735_pico14writedata_lastEh>
10000a1a:	237c      	movs	r3, #124	; 0x7c
10000a1c:	5ae3      	ldrh	r3, [r4, r3]
10000a1e:	84e3      	strh	r3, [r4, #38]	; 0x26
10000a20:	237e      	movs	r3, #126	; 0x7e
10000a22:	5ae3      	ldrh	r3, [r4, r3]
10000a24:	8523      	strh	r3, [r4, #40]	; 0x28
10000a26:	2372      	movs	r3, #114	; 0x72
10000a28:	5ae2      	ldrh	r2, [r4, r3]
10000a2a:	3306      	adds	r3, #6
10000a2c:	52e2      	strh	r2, [r4, r3]
10000a2e:	2220      	movs	r2, #32
10000a30:	3b04      	subs	r3, #4
10000a32:	5ae3      	ldrh	r3, [r4, r3]
10000a34:	4393      	bics	r3, r2
10000a36:	1e5a      	subs	r2, r3, #1
10000a38:	4193      	sbcs	r3, r2
10000a3a:	2276      	movs	r2, #118	; 0x76
10000a3c:	52a3      	strh	r3, [r4, r2]
10000a3e:	e01b      	b.n	10000a78 <_ZN11ST7735_pico11setRotationEh+0x150>
10000a40:	2b02      	cmp	r3, #2
10000a42:	d100      	bne.n	10000a46 <_ZN11ST7735_pico11setRotationEh+0x11e>
10000a44:	e09d      	b.n	10000b82 <_ZN11ST7735_pico11setRotationEh+0x25a>
10000a46:	2b05      	cmp	r3, #5
10000a48:	d100      	bne.n	10000a4c <_ZN11ST7735_pico11setRotationEh+0x124>
10000a4a:	e09a      	b.n	10000b82 <_ZN11ST7735_pico11setRotationEh+0x25a>
10000a4c:	2108      	movs	r1, #8
10000a4e:	0020      	movs	r0, r4
10000a50:	f7ff ff3e 	bl	100008d0 <_ZN11ST7735_pico14writedata_lastEh>
10000a54:	237e      	movs	r3, #126	; 0x7e
10000a56:	5ae3      	ldrh	r3, [r4, r3]
10000a58:	84e3      	strh	r3, [r4, #38]	; 0x26
10000a5a:	237c      	movs	r3, #124	; 0x7c
10000a5c:	5ae3      	ldrh	r3, [r4, r3]
10000a5e:	8523      	strh	r3, [r4, #40]	; 0x28
10000a60:	2372      	movs	r3, #114	; 0x72
10000a62:	5ae2      	ldrh	r2, [r4, r3]
10000a64:	3304      	adds	r3, #4
10000a66:	52e2      	strh	r2, [r4, r3]
10000a68:	2220      	movs	r2, #32
10000a6a:	3b02      	subs	r3, #2
10000a6c:	5ae3      	ldrh	r3, [r4, r3]
10000a6e:	4393      	bics	r3, r2
10000a70:	1e5a      	subs	r2, r3, #1
10000a72:	4193      	sbcs	r3, r2
10000a74:	2278      	movs	r2, #120	; 0x78
10000a76:	52a3      	strh	r3, [r4, r2]
10000a78:	2346      	movs	r3, #70	; 0x46
10000a7a:	6860      	ldr	r0, [r4, #4]
10000a7c:	5ce2      	ldrb	r2, [r4, r3]
10000a7e:	3334      	adds	r3, #52	; 0x34
10000a80:	52e2      	strh	r2, [r4, r3]
10000a82:	6803      	ldr	r3, [r0, #0]
10000a84:	68db      	ldr	r3, [r3, #12]
10000a86:	4798      	blx	r3
10000a88:	2800      	cmp	r0, #0
10000a8a:	d106      	bne.n	10000a9a <_ZN11ST7735_pico11setRotationEh+0x172>
10000a8c:	2380      	movs	r3, #128	; 0x80
10000a8e:	5ce2      	ldrb	r2, [r4, r3]
10000a90:	3b7f      	subs	r3, #127	; 0x7f
10000a92:	4093      	lsls	r3, r2
10000a94:	22d0      	movs	r2, #208	; 0xd0
10000a96:	0612      	lsls	r2, r2, #24
10000a98:	6153      	str	r3, [r2, #20]
10000a9a:	2300      	movs	r3, #0
10000a9c:	2228      	movs	r2, #40	; 0x28
10000a9e:	5ea1      	ldrsh	r1, [r4, r2]
10000aa0:	6123      	str	r3, [r4, #16]
10000aa2:	2226      	movs	r2, #38	; 0x26
10000aa4:	5ea3      	ldrsh	r3, [r4, r2]
10000aa6:	2018      	movs	r0, #24
10000aa8:	5e22      	ldrsh	r2, [r4, r0]
10000aaa:	82a3      	strh	r3, [r4, #20]
10000aac:	82e1      	strh	r1, [r4, #22]
10000aae:	1c18      	adds	r0, r3, #0
10000ab0:	4293      	cmp	r3, r2
10000ab2:	dd00      	ble.n	10000ab6 <_ZN11ST7735_pico11setRotationEh+0x18e>
10000ab4:	1c10      	adds	r0, r2, #0
10000ab6:	b205      	sxth	r5, r0
10000ab8:	0406      	lsls	r6, r0, #16
10000aba:	d501      	bpl.n	10000ac0 <_ZN11ST7735_pico11setRotationEh+0x198>
10000abc:	2000      	movs	r0, #0
10000abe:	2500      	movs	r5, #0
10000ac0:	18d2      	adds	r2, r2, r3
10000ac2:	83a0      	strh	r0, [r4, #28]
10000ac4:	1c10      	adds	r0, r2, #0
10000ac6:	b212      	sxth	r2, r2
10000ac8:	429a      	cmp	r2, r3
10000aca:	dd00      	ble.n	10000ace <_ZN11ST7735_pico11setRotationEh+0x1a6>
10000acc:	1c18      	adds	r0, r3, #0
10000ace:	b206      	sxth	r6, r0
10000ad0:	0402      	lsls	r2, r0, #16
10000ad2:	d501      	bpl.n	10000ad8 <_ZN11ST7735_pico11setRotationEh+0x1b0>
10000ad4:	2000      	movs	r0, #0
10000ad6:	2600      	movs	r6, #0
10000ad8:	8420      	strh	r0, [r4, #32]
10000ada:	201a      	movs	r0, #26
10000adc:	5e22      	ldrsh	r2, [r4, r0]
10000ade:	1c08      	adds	r0, r1, #0
10000ae0:	4291      	cmp	r1, r2
10000ae2:	dd00      	ble.n	10000ae6 <_ZN11ST7735_pico11setRotationEh+0x1be>
10000ae4:	1c10      	adds	r0, r2, #0
10000ae6:	b207      	sxth	r7, r0
10000ae8:	46b8      	mov	r8, r7
10000aea:	0407      	lsls	r7, r0, #16
10000aec:	d502      	bpl.n	10000af4 <_ZN11ST7735_pico11setRotationEh+0x1cc>
10000aee:	2700      	movs	r7, #0
10000af0:	2000      	movs	r0, #0
10000af2:	46b8      	mov	r8, r7
10000af4:	1852      	adds	r2, r2, r1
10000af6:	83e0      	strh	r0, [r4, #30]
10000af8:	1c10      	adds	r0, r2, #0
10000afa:	b212      	sxth	r2, r2
10000afc:	428a      	cmp	r2, r1
10000afe:	dd00      	ble.n	10000b02 <_ZN11ST7735_pico11setRotationEh+0x1da>
10000b00:	1c08      	adds	r0, r1, #0
10000b02:	b202      	sxth	r2, r0
10000b04:	4694      	mov	ip, r2
10000b06:	0402      	lsls	r2, r0, #16
10000b08:	d502      	bpl.n	10000b10 <_ZN11ST7735_pico11setRotationEh+0x1e8>
10000b0a:	2200      	movs	r2, #0
10000b0c:	2000      	movs	r0, #0
10000b0e:	4694      	mov	ip, r2
10000b10:	8460      	strh	r0, [r4, #34]	; 0x22
10000b12:	42ae      	cmp	r6, r5
10000b14:	d044      	beq.n	10000ba0 <_ZN11ST7735_pico11setRotationEh+0x278>
10000b16:	4640      	mov	r0, r8
10000b18:	4662      	mov	r2, ip
10000b1a:	1a82      	subs	r2, r0, r2
10000b1c:	4250      	negs	r0, r2
10000b1e:	4142      	adcs	r2, r0
10000b20:	2024      	movs	r0, #36	; 0x24
10000b22:	b2d2      	uxtb	r2, r2
10000b24:	5422      	strb	r2, [r4, r0]
10000b26:	42b3      	cmp	r3, r6
10000b28:	d03f      	beq.n	10000baa <_ZN11ST7735_pico11setRotationEh+0x282>
10000b2a:	2000      	movs	r0, #0
10000b2c:	2225      	movs	r2, #37	; 0x25
10000b2e:	54a0      	strb	r0, [r4, r2]
10000b30:	43da      	mvns	r2, r3
10000b32:	17d2      	asrs	r2, r2, #31
10000b34:	401a      	ands	r2, r3
10000b36:	8422      	strh	r2, [r4, #32]
10000b38:	61a0      	str	r0, [r4, #24]
10000b3a:	61e0      	str	r0, [r4, #28]
10000b3c:	2900      	cmp	r1, #0
10000b3e:	dd25      	ble.n	10000b8c <_ZN11ST7735_pico11setRotationEh+0x264>
10000b40:	8461      	strh	r1, [r4, #34]	; 0x22
10000b42:	2124      	movs	r1, #36	; 0x24
10000b44:	1e5a      	subs	r2, r3, #1
10000b46:	431a      	orrs	r2, r3
10000b48:	0fd2      	lsrs	r2, r2, #31
10000b4a:	5462      	strb	r2, [r4, r1]
10000b4c:	2b00      	cmp	r3, #0
10000b4e:	da25      	bge.n	10000b9c <_ZN11ST7735_pico11setRotationEh+0x274>
10000b50:	2200      	movs	r2, #0
10000b52:	2325      	movs	r3, #37	; 0x25
10000b54:	54e2      	strb	r2, [r4, r3]
10000b56:	2300      	movs	r3, #0
10000b58:	8163      	strh	r3, [r4, #10]
10000b5a:	81a3      	strh	r3, [r4, #12]
10000b5c:	b002      	add	sp, #8
10000b5e:	bc80      	pop	{r7}
10000b60:	46b8      	mov	r8, r7
10000b62:	bdf0      	pop	{r4, r5, r6, r7, pc}
10000b64:	21c0      	movs	r1, #192	; 0xc0
10000b66:	0020      	movs	r0, r4
10000b68:	f7ff feb2 	bl	100008d0 <_ZN11ST7735_pico14writedata_lastEh>
10000b6c:	e712      	b.n	10000994 <_ZN11ST7735_pico11setRotationEh+0x6c>
10000b6e:	2160      	movs	r1, #96	; 0x60
10000b70:	0020      	movs	r0, r4
10000b72:	f7ff fead 	bl	100008d0 <_ZN11ST7735_pico14writedata_lastEh>
10000b76:	e750      	b.n	10000a1a <_ZN11ST7735_pico11setRotationEh+0xf2>
10000b78:	21a0      	movs	r1, #160	; 0xa0
10000b7a:	0020      	movs	r0, r4
10000b7c:	f7ff fea8 	bl	100008d0 <_ZN11ST7735_pico14writedata_lastEh>
10000b80:	e732      	b.n	100009e8 <_ZN11ST7735_pico11setRotationEh+0xc0>
10000b82:	2100      	movs	r1, #0
10000b84:	0020      	movs	r0, r4
10000b86:	f7ff fea3 	bl	100008d0 <_ZN11ST7735_pico14writedata_lastEh>
10000b8a:	e763      	b.n	10000a54 <_ZN11ST7735_pico11setRotationEh+0x12c>
10000b8c:	8460      	strh	r0, [r4, #34]	; 0x22
10000b8e:	2224      	movs	r2, #36	; 0x24
10000b90:	2001      	movs	r0, #1
10000b92:	54a0      	strb	r0, [r4, r2]
10000b94:	2b00      	cmp	r3, #0
10000b96:	dbdb      	blt.n	10000b50 <_ZN11ST7735_pico11setRotationEh+0x228>
10000b98:	2900      	cmp	r1, #0
10000b9a:	d1d9      	bne.n	10000b50 <_ZN11ST7735_pico11setRotationEh+0x228>
10000b9c:	2201      	movs	r2, #1
10000b9e:	e7d8      	b.n	10000b52 <_ZN11ST7735_pico11setRotationEh+0x22a>
10000ba0:	2201      	movs	r2, #1
10000ba2:	2024      	movs	r0, #36	; 0x24
10000ba4:	5422      	strb	r2, [r4, r0]
10000ba6:	42b3      	cmp	r3, r6
10000ba8:	d1bf      	bne.n	10000b2a <_ZN11ST7735_pico11setRotationEh+0x202>
10000baa:	4642      	mov	r2, r8
10000bac:	4315      	orrs	r5, r2
10000bae:	d1bc      	bne.n	10000b2a <_ZN11ST7735_pico11setRotationEh+0x202>
10000bb0:	4561      	cmp	r1, ip
10000bb2:	d1ba      	bne.n	10000b2a <_ZN11ST7735_pico11setRotationEh+0x202>
10000bb4:	2201      	movs	r2, #1
10000bb6:	2625      	movs	r6, #37	; 0x25
10000bb8:	55a2      	strb	r2, [r4, r6]
10000bba:	8423      	strh	r3, [r4, #32]
10000bbc:	61a5      	str	r5, [r4, #24]
10000bbe:	61e5      	str	r5, [r4, #28]
10000bc0:	8461      	strh	r1, [r4, #34]	; 0x22
10000bc2:	2900      	cmp	r1, #0
10000bc4:	d005      	beq.n	10000bd2 <_ZN11ST7735_pico11setRotationEh+0x2aa>
10000bc6:	1e5a      	subs	r2, r3, #1
10000bc8:	4313      	orrs	r3, r2
10000bca:	0fdb      	lsrs	r3, r3, #31
10000bcc:	2201      	movs	r2, #1
10000bce:	5423      	strb	r3, [r4, r0]
10000bd0:	e7bf      	b.n	10000b52 <_ZN11ST7735_pico11setRotationEh+0x22a>
10000bd2:	5422      	strb	r2, [r4, r0]
10000bd4:	2201      	movs	r2, #1
10000bd6:	e7bc      	b.n	10000b52 <_ZN11ST7735_pico11setRotationEh+0x22a>

10000bd8 <_ZN11ST7735_pico16writedata16_lastEt>:
10000bd8:	b5f0      	push	{r4, r5, r6, r7, lr}
10000bda:	7a43      	ldrb	r3, [r0, #9]
10000bdc:	0004      	movs	r4, r0
10000bde:	000d      	movs	r5, r1
10000be0:	b083      	sub	sp, #12
10000be2:	2b00      	cmp	r3, #0
10000be4:	d012      	beq.n	10000c0c <_ZN11ST7735_pico16writedata16_lastEt+0x34>
10000be6:	2381      	movs	r3, #129	; 0x81
10000be8:	5ce2      	ldrb	r2, [r4, r3]
10000bea:	3b80      	subs	r3, #128	; 0x80
10000bec:	4093      	lsls	r3, r2
10000bee:	22d0      	movs	r2, #208	; 0xd0
10000bf0:	0612      	lsls	r2, r2, #24
10000bf2:	0029      	movs	r1, r5
10000bf4:	6860      	ldr	r0, [r4, #4]
10000bf6:	6153      	str	r3, [r2, #20]
10000bf8:	f7ff fce4 	bl	100005c4 <_ZN3SPI7write16Et>
10000bfc:	6860      	ldr	r0, [r4, #4]
10000bfe:	6803      	ldr	r3, [r0, #0]
10000c00:	691b      	ldr	r3, [r3, #16]
10000c02:	4798      	blx	r3
10000c04:	2800      	cmp	r0, #0
10000c06:	d1f9      	bne.n	10000bfc <_ZN11ST7735_pico16writedata16_lastEt+0x24>
10000c08:	b003      	add	sp, #12
10000c0a:	bdf0      	pop	{r4, r5, r6, r7, pc}
10000c0c:	6860      	ldr	r0, [r4, #4]
10000c0e:	6803      	ldr	r3, [r0, #0]
10000c10:	691b      	ldr	r3, [r3, #16]
10000c12:	4798      	blx	r3
10000c14:	2800      	cmp	r0, #0
10000c16:	d1f9      	bne.n	10000c0c <_ZN11ST7735_pico16writedata16_lastEt+0x34>
10000c18:	2601      	movs	r6, #1
10000c1a:	6860      	ldr	r0, [r4, #4]
10000c1c:	2200      	movs	r2, #0
10000c1e:	6803      	ldr	r3, [r0, #0]
10000c20:	9600      	str	r6, [sp, #0]
10000c22:	695f      	ldr	r7, [r3, #20]
10000c24:	2110      	movs	r1, #16
10000c26:	2300      	movs	r3, #0
10000c28:	47b8      	blx	r7
10000c2a:	7266      	strb	r6, [r4, #9]
10000c2c:	e7db      	b.n	10000be6 <_ZN11ST7735_pico16writedata16_lastEt+0xe>
10000c2e:	46c0      	nop			; (mov r8, r8)

10000c30 <_ZN11ST7735_pico11commandListEPKh>:
10000c30:	b5f0      	push	{r4, r5, r6, r7, lr}
10000c32:	4657      	mov	r7, sl
10000c34:	4645      	mov	r5, r8
10000c36:	46de      	mov	lr, fp
10000c38:	464e      	mov	r6, r9
10000c3a:	b5e0      	push	{r5, r6, r7, lr}
10000c3c:	0007      	movs	r7, r0
10000c3e:	6840      	ldr	r0, [r0, #4]
10000c40:	b089      	sub	sp, #36	; 0x24
10000c42:	6803      	ldr	r3, [r0, #0]
10000c44:	000d      	movs	r5, r1
10000c46:	68db      	ldr	r3, [r3, #12]
10000c48:	4798      	blx	r3
10000c4a:	2800      	cmp	r0, #0
10000c4c:	d106      	bne.n	10000c5c <_ZN11ST7735_pico11commandListEPKh+0x2c>
10000c4e:	2380      	movs	r3, #128	; 0x80
10000c50:	5cfa      	ldrb	r2, [r7, r3]
10000c52:	3b7f      	subs	r3, #127	; 0x7f
10000c54:	4093      	lsls	r3, r2
10000c56:	22d0      	movs	r2, #208	; 0xd0
10000c58:	0612      	lsls	r2, r2, #24
10000c5a:	6193      	str	r3, [r2, #24]
10000c5c:	782b      	ldrb	r3, [r5, #0]
10000c5e:	1c6c      	adds	r4, r5, #1
10000c60:	1e5a      	subs	r2, r3, #1
10000c62:	b2d2      	uxtb	r2, r2
10000c64:	9206      	str	r2, [sp, #24]
10000c66:	2b00      	cmp	r3, #0
10000c68:	d05e      	beq.n	10000d28 <_ZN11ST7735_pico11commandListEPKh+0xf8>
10000c6a:	2301      	movs	r3, #1
10000c6c:	469b      	mov	fp, r3
10000c6e:	0038      	movs	r0, r7
10000c70:	7821      	ldrb	r1, [r4, #0]
10000c72:	f7ff fe01 	bl	10000878 <_ZN11ST7735_pico17writecommand_lastEh>
10000c76:	217f      	movs	r1, #127	; 0x7f
10000c78:	237e      	movs	r3, #126	; 0x7e
10000c7a:	7862      	ldrb	r2, [r4, #1]
10000c7c:	1ca0      	adds	r0, r4, #2
10000c7e:	4011      	ands	r1, r2
10000c80:	9004      	str	r0, [sp, #16]
10000c82:	9207      	str	r2, [sp, #28]
10000c84:	9105      	str	r1, [sp, #20]
10000c86:	4213      	tst	r3, r2
10000c88:	d062      	beq.n	10000d50 <_ZN11ST7735_pico11commandListEPKh+0x120>
10000c8a:	3303      	adds	r3, #3
10000c8c:	468c      	mov	ip, r1
10000c8e:	469a      	mov	sl, r3
10000c90:	23d0      	movs	r3, #208	; 0xd0
10000c92:	0005      	movs	r5, r0
10000c94:	061b      	lsls	r3, r3, #24
10000c96:	4460      	add	r0, ip
10000c98:	4681      	mov	r9, r0
10000c9a:	4698      	mov	r8, r3
10000c9c:	e010      	b.n	10000cc0 <_ZN11ST7735_pico11commandListEPKh+0x90>
10000c9e:	4653      	mov	r3, sl
10000ca0:	465a      	mov	r2, fp
10000ca2:	5cfb      	ldrb	r3, [r7, r3]
10000ca4:	0031      	movs	r1, r6
10000ca6:	409a      	lsls	r2, r3
10000ca8:	0013      	movs	r3, r2
10000caa:	4642      	mov	r2, r8
10000cac:	6878      	ldr	r0, [r7, #4]
10000cae:	6153      	str	r3, [r2, #20]
10000cb0:	f7ff fc7c 	bl	100005ac <_ZN3SPI5writeEh>
10000cb4:	464b      	mov	r3, r9
10000cb6:	3501      	adds	r5, #1
10000cb8:	1b5b      	subs	r3, r3, r5
10000cba:	b2db      	uxtb	r3, r3
10000cbc:	2b01      	cmp	r3, #1
10000cbe:	d917      	bls.n	10000cf0 <_ZN11ST7735_pico11commandListEPKh+0xc0>
10000cc0:	7a7b      	ldrb	r3, [r7, #9]
10000cc2:	782e      	ldrb	r6, [r5, #0]
10000cc4:	2b00      	cmp	r3, #0
10000cc6:	d0ea      	beq.n	10000c9e <_ZN11ST7735_pico11commandListEPKh+0x6e>
10000cc8:	6878      	ldr	r0, [r7, #4]
10000cca:	6803      	ldr	r3, [r0, #0]
10000ccc:	691b      	ldr	r3, [r3, #16]
10000cce:	4798      	blx	r3
10000cd0:	2800      	cmp	r0, #0
10000cd2:	d1f9      	bne.n	10000cc8 <_ZN11ST7735_pico11commandListEPKh+0x98>
10000cd4:	2201      	movs	r2, #1
10000cd6:	9003      	str	r0, [sp, #12]
10000cd8:	6878      	ldr	r0, [r7, #4]
10000cda:	2108      	movs	r1, #8
10000cdc:	6803      	ldr	r3, [r0, #0]
10000cde:	9200      	str	r2, [sp, #0]
10000ce0:	695b      	ldr	r3, [r3, #20]
10000ce2:	2200      	movs	r2, #0
10000ce4:	001c      	movs	r4, r3
10000ce6:	2300      	movs	r3, #0
10000ce8:	47a0      	blx	r4
10000cea:	9b03      	ldr	r3, [sp, #12]
10000cec:	727b      	strb	r3, [r7, #9]
10000cee:	e7d6      	b.n	10000c9e <_ZN11ST7735_pico11commandListEPKh+0x6e>
10000cf0:	9b05      	ldr	r3, [sp, #20]
10000cf2:	2b01      	cmp	r3, #1
10000cf4:	d05a      	beq.n	10000dac <_ZN11ST7735_pico11commandListEPKh+0x17c>
10000cf6:	3b02      	subs	r3, #2
10000cf8:	b2db      	uxtb	r3, r3
10000cfa:	3301      	adds	r3, #1
10000cfc:	9a04      	ldr	r2, [sp, #16]
10000cfe:	4694      	mov	ip, r2
10000d00:	4463      	add	r3, ip
10000d02:	1c5a      	adds	r2, r3, #1
10000d04:	0038      	movs	r0, r7
10000d06:	7819      	ldrb	r1, [r3, #0]
10000d08:	9204      	str	r2, [sp, #16]
10000d0a:	f7ff fde1 	bl	100008d0 <_ZN11ST7735_pico14writedata_lastEh>
10000d0e:	466b      	mov	r3, sp
10000d10:	7f1b      	ldrb	r3, [r3, #28]
10000d12:	9a04      	ldr	r2, [sp, #16]
10000d14:	b25b      	sxtb	r3, r3
10000d16:	0014      	movs	r4, r2
10000d18:	2b00      	cmp	r3, #0
10000d1a:	db1d      	blt.n	10000d58 <_ZN11ST7735_pico11commandListEPKh+0x128>
10000d1c:	9b06      	ldr	r3, [sp, #24]
10000d1e:	3b01      	subs	r3, #1
10000d20:	b2db      	uxtb	r3, r3
10000d22:	9306      	str	r3, [sp, #24]
10000d24:	2bff      	cmp	r3, #255	; 0xff
10000d26:	d1a2      	bne.n	10000c6e <_ZN11ST7735_pico11commandListEPKh+0x3e>
10000d28:	6878      	ldr	r0, [r7, #4]
10000d2a:	6803      	ldr	r3, [r0, #0]
10000d2c:	68db      	ldr	r3, [r3, #12]
10000d2e:	4798      	blx	r3
10000d30:	2800      	cmp	r0, #0
10000d32:	d106      	bne.n	10000d42 <_ZN11ST7735_pico11commandListEPKh+0x112>
10000d34:	2380      	movs	r3, #128	; 0x80
10000d36:	5cfa      	ldrb	r2, [r7, r3]
10000d38:	3b7f      	subs	r3, #127	; 0x7f
10000d3a:	4093      	lsls	r3, r2
10000d3c:	22d0      	movs	r2, #208	; 0xd0
10000d3e:	0612      	lsls	r2, r2, #24
10000d40:	6153      	str	r3, [r2, #20]
10000d42:	b009      	add	sp, #36	; 0x24
10000d44:	bcf0      	pop	{r4, r5, r6, r7}
10000d46:	46bb      	mov	fp, r7
10000d48:	46b2      	mov	sl, r6
10000d4a:	46a9      	mov	r9, r5
10000d4c:	46a0      	mov	r8, r4
10000d4e:	bdf0      	pop	{r4, r5, r6, r7, pc}
10000d50:	2900      	cmp	r1, #0
10000d52:	d0dc      	beq.n	10000d0e <_ZN11ST7735_pico11commandListEPKh+0xde>
10000d54:	9b04      	ldr	r3, [sp, #16]
10000d56:	e7d4      	b.n	10000d02 <_ZN11ST7735_pico11commandListEPKh+0xd2>
10000d58:	7815      	ldrb	r5, [r2, #0]
10000d5a:	3401      	adds	r4, #1
10000d5c:	2dff      	cmp	r5, #255	; 0xff
10000d5e:	d101      	bne.n	10000d64 <_ZN11ST7735_pico11commandListEPKh+0x134>
10000d60:	25fa      	movs	r5, #250	; 0xfa
10000d62:	006d      	lsls	r5, r5, #1
10000d64:	6878      	ldr	r0, [r7, #4]
10000d66:	6803      	ldr	r3, [r0, #0]
10000d68:	68db      	ldr	r3, [r3, #12]
10000d6a:	4798      	blx	r3
10000d6c:	2800      	cmp	r0, #0
10000d6e:	d106      	bne.n	10000d7e <_ZN11ST7735_pico11commandListEPKh+0x14e>
10000d70:	2380      	movs	r3, #128	; 0x80
10000d72:	465a      	mov	r2, fp
10000d74:	5cfb      	ldrb	r3, [r7, r3]
10000d76:	409a      	lsls	r2, r3
10000d78:	23d0      	movs	r3, #208	; 0xd0
10000d7a:	061b      	lsls	r3, r3, #24
10000d7c:	615a      	str	r2, [r3, #20]
10000d7e:	6878      	ldr	r0, [r7, #4]
10000d80:	6803      	ldr	r3, [r0, #0]
10000d82:	691b      	ldr	r3, [r3, #16]
10000d84:	4798      	blx	r3
10000d86:	2800      	cmp	r0, #0
10000d88:	d1f9      	bne.n	10000d7e <_ZN11ST7735_pico11commandListEPKh+0x14e>
10000d8a:	0028      	movs	r0, r5
10000d8c:	f006 fd70 	bl	10007870 <sleep_ms>
10000d90:	6878      	ldr	r0, [r7, #4]
10000d92:	6803      	ldr	r3, [r0, #0]
10000d94:	68db      	ldr	r3, [r3, #12]
10000d96:	4798      	blx	r3
10000d98:	2800      	cmp	r0, #0
10000d9a:	d1bf      	bne.n	10000d1c <_ZN11ST7735_pico11commandListEPKh+0xec>
10000d9c:	2380      	movs	r3, #128	; 0x80
10000d9e:	465a      	mov	r2, fp
10000da0:	5cfb      	ldrb	r3, [r7, r3]
10000da2:	409a      	lsls	r2, r3
10000da4:	23d0      	movs	r3, #208	; 0xd0
10000da6:	061b      	lsls	r3, r3, #24
10000da8:	619a      	str	r2, [r3, #24]
10000daa:	e7b7      	b.n	10000d1c <_ZN11ST7735_pico11commandListEPKh+0xec>
10000dac:	2301      	movs	r3, #1
10000dae:	e7a5      	b.n	10000cfc <_ZN11ST7735_pico11commandListEPKh+0xcc>

10000db0 <_ZN11ST7735_pico10commonInitEPKhh>:
10000db0:	b5f0      	push	{r4, r5, r6, r7, lr}
10000db2:	46c6      	mov	lr, r8
10000db4:	2300      	movs	r3, #0
10000db6:	2272      	movs	r2, #114	; 0x72
10000db8:	2681      	movs	r6, #129	; 0x81
10000dba:	0004      	movs	r4, r0
10000dbc:	b500      	push	{lr}
10000dbe:	5283      	strh	r3, [r0, r2]
10000dc0:	3206      	adds	r2, #6
10000dc2:	6743      	str	r3, [r0, #116]	; 0x74
10000dc4:	5283      	strh	r3, [r0, r2]
10000dc6:	5d80      	ldrb	r0, [r0, r6]
10000dc8:	000d      	movs	r5, r1
10000dca:	f006 f8b1 	bl	10006f30 <gpio_init>
10000dce:	5da3      	ldrb	r3, [r4, r6]
10000dd0:	3e80      	subs	r6, #128	; 0x80
10000dd2:	0032      	movs	r2, r6
10000dd4:	27d0      	movs	r7, #208	; 0xd0
10000dd6:	409a      	lsls	r2, r3
10000dd8:	6863      	ldr	r3, [r4, #4]
10000dda:	063f      	lsls	r7, r7, #24
10000ddc:	627a      	str	r2, [r7, #36]	; 0x24
10000dde:	2b00      	cmp	r3, #0
10000de0:	d02b      	beq.n	10000e3a <_ZN11ST7735_pico10commonInitEPKhh+0x8a>
10000de2:	2682      	movs	r6, #130	; 0x82
10000de4:	5da0      	ldrb	r0, [r4, r6]
10000de6:	28ff      	cmp	r0, #255	; 0xff
10000de8:	d01e      	beq.n	10000e28 <_ZN11ST7735_pico10commonInitEPKhh+0x78>
10000dea:	2701      	movs	r7, #1
10000dec:	f006 f8a0 	bl	10006f30 <gpio_init>
10000df0:	003a      	movs	r2, r7
10000df2:	5da3      	ldrb	r3, [r4, r6]
10000df4:	2064      	movs	r0, #100	; 0x64
10000df6:	409a      	lsls	r2, r3
10000df8:	0013      	movs	r3, r2
10000dfa:	22d0      	movs	r2, #208	; 0xd0
10000dfc:	0612      	lsls	r2, r2, #24
10000dfe:	6253      	str	r3, [r2, #36]	; 0x24
10000e00:	6153      	str	r3, [r2, #20]
10000e02:	4690      	mov	r8, r2
10000e04:	f006 fd34 	bl	10007870 <sleep_ms>
10000e08:	003a      	movs	r2, r7
10000e0a:	5da3      	ldrb	r3, [r4, r6]
10000e0c:	2064      	movs	r0, #100	; 0x64
10000e0e:	409a      	lsls	r2, r3
10000e10:	0013      	movs	r3, r2
10000e12:	4642      	mov	r2, r8
10000e14:	6193      	str	r3, [r2, #24]
10000e16:	f006 fd2b 	bl	10007870 <sleep_ms>
10000e1a:	5da3      	ldrb	r3, [r4, r6]
10000e1c:	20c8      	movs	r0, #200	; 0xc8
10000e1e:	409f      	lsls	r7, r3
10000e20:	4643      	mov	r3, r8
10000e22:	615f      	str	r7, [r3, #20]
10000e24:	f006 fd24 	bl	10007870 <sleep_ms>
10000e28:	2d00      	cmp	r5, #0
10000e2a:	d003      	beq.n	10000e34 <_ZN11ST7735_pico10commonInitEPKhh+0x84>
10000e2c:	0029      	movs	r1, r5
10000e2e:	0020      	movs	r0, r4
10000e30:	f7ff fefe 	bl	10000c30 <_ZN11ST7735_pico11commandListEPKh>
10000e34:	bc80      	pop	{r7}
10000e36:	46b8      	mov	r8, r7
10000e38:	bdf0      	pop	{r4, r5, r6, r7, pc}
10000e3a:	3380      	adds	r3, #128	; 0x80
10000e3c:	5ce0      	ldrb	r0, [r4, r3]
10000e3e:	4698      	mov	r8, r3
10000e40:	28ff      	cmp	r0, #255	; 0xff
10000e42:	d0ce      	beq.n	10000de2 <_ZN11ST7735_pico10commonInitEPKhh+0x32>
10000e44:	f006 f874 	bl	10006f30 <gpio_init>
10000e48:	4643      	mov	r3, r8
10000e4a:	5ce3      	ldrb	r3, [r4, r3]
10000e4c:	409e      	lsls	r6, r3
10000e4e:	627e      	str	r6, [r7, #36]	; 0x24
10000e50:	e7c7      	b.n	10000de2 <_ZN11ST7735_pico10commonInitEPKhh+0x32>
10000e52:	46c0      	nop			; (mov r8, r8)

10000e54 <_ZN11ST7735_pico5initREh>:
10000e54:	b5f0      	push	{r4, r5, r6, r7, lr}
10000e56:	2200      	movs	r2, #0
10000e58:	000d      	movs	r5, r1
10000e5a:	b083      	sub	sp, #12
10000e5c:	4948      	ldr	r1, [pc, #288]	; (10000f80 <_ZN11ST7735_pico5initREh+0x12c>)
10000e5e:	0004      	movs	r4, r0
10000e60:	f7ff ffa6 	bl	10000db0 <_ZN11ST7735_pico10commonInitEPKhh>
10000e64:	2d00      	cmp	r5, #0
10000e66:	d03d      	beq.n	10000ee4 <_ZN11ST7735_pico5initREh+0x90>
10000e68:	2d01      	cmp	r5, #1
10000e6a:	d05c      	beq.n	10000f26 <_ZN11ST7735_pico5initREh+0xd2>
10000e6c:	2d04      	cmp	r5, #4
10000e6e:	d048      	beq.n	10000f02 <_ZN11ST7735_pico5initREh+0xae>
10000e70:	2d05      	cmp	r5, #5
10000e72:	d100      	bne.n	10000e76 <_ZN11ST7735_pico5initREh+0x22>
10000e74:	e072      	b.n	10000f5c <_ZN11ST7735_pico5initREh+0x108>
10000e76:	2d06      	cmp	r5, #6
10000e78:	d063      	beq.n	10000f42 <_ZN11ST7735_pico5initREh+0xee>
10000e7a:	0020      	movs	r0, r4
10000e7c:	4941      	ldr	r1, [pc, #260]	; (10000f84 <_ZN11ST7735_pico5initREh+0x130>)
10000e7e:	f7ff fed7 	bl	10000c30 <_ZN11ST7735_pico11commandListEPKh>
10000e82:	0020      	movs	r0, r4
10000e84:	4940      	ldr	r1, [pc, #256]	; (10000f88 <_ZN11ST7735_pico5initREh+0x134>)
10000e86:	f7ff fed3 	bl	10000c30 <_ZN11ST7735_pico11commandListEPKh>
10000e8a:	2d02      	cmp	r5, #2
10000e8c:	d111      	bne.n	10000eb2 <_ZN11ST7735_pico5initREh+0x5e>
10000e8e:	7a63      	ldrb	r3, [r4, #9]
10000e90:	2b00      	cmp	r3, #0
10000e92:	d116      	bne.n	10000ec2 <_ZN11ST7735_pico5initREh+0x6e>
10000e94:	2381      	movs	r3, #129	; 0x81
10000e96:	5ce2      	ldrb	r2, [r4, r3]
10000e98:	3b80      	subs	r3, #128	; 0x80
10000e9a:	4093      	lsls	r3, r2
10000e9c:	22d0      	movs	r2, #208	; 0xd0
10000e9e:	0612      	lsls	r2, r2, #24
10000ea0:	2136      	movs	r1, #54	; 0x36
10000ea2:	6860      	ldr	r0, [r4, #4]
10000ea4:	6193      	str	r3, [r2, #24]
10000ea6:	f7ff fb81 	bl	100005ac <_ZN3SPI5writeEh>
10000eaa:	21c0      	movs	r1, #192	; 0xc0
10000eac:	0020      	movs	r0, r4
10000eae:	f7ff fd0f 	bl	100008d0 <_ZN11ST7735_pico14writedata_lastEh>
10000eb2:	6823      	ldr	r3, [r4, #0]
10000eb4:	7225      	strb	r5, [r4, #8]
10000eb6:	2100      	movs	r1, #0
10000eb8:	0020      	movs	r0, r4
10000eba:	681b      	ldr	r3, [r3, #0]
10000ebc:	4798      	blx	r3
10000ebe:	b003      	add	sp, #12
10000ec0:	bdf0      	pop	{r4, r5, r6, r7, pc}
10000ec2:	6860      	ldr	r0, [r4, #4]
10000ec4:	6803      	ldr	r3, [r0, #0]
10000ec6:	691b      	ldr	r3, [r3, #16]
10000ec8:	4798      	blx	r3
10000eca:	1e06      	subs	r6, r0, #0
10000ecc:	d1f9      	bne.n	10000ec2 <_ZN11ST7735_pico5initREh+0x6e>
10000ece:	2201      	movs	r2, #1
10000ed0:	6860      	ldr	r0, [r4, #4]
10000ed2:	2108      	movs	r1, #8
10000ed4:	6803      	ldr	r3, [r0, #0]
10000ed6:	9200      	str	r2, [sp, #0]
10000ed8:	695f      	ldr	r7, [r3, #20]
10000eda:	2200      	movs	r2, #0
10000edc:	2300      	movs	r3, #0
10000ede:	47b8      	blx	r7
10000ee0:	7266      	strb	r6, [r4, #9]
10000ee2:	e7d7      	b.n	10000e94 <_ZN11ST7735_pico5initREh+0x40>
10000ee4:	0020      	movs	r0, r4
10000ee6:	4929      	ldr	r1, [pc, #164]	; (10000f8c <_ZN11ST7735_pico5initREh+0x138>)
10000ee8:	f7ff fea2 	bl	10000c30 <_ZN11ST7735_pico11commandListEPKh>
10000eec:	2372      	movs	r3, #114	; 0x72
10000eee:	2202      	movs	r2, #2
10000ef0:	52e2      	strh	r2, [r4, r3]
10000ef2:	3302      	adds	r3, #2
10000ef4:	3a01      	subs	r2, #1
10000ef6:	0020      	movs	r0, r4
10000ef8:	4923      	ldr	r1, [pc, #140]	; (10000f88 <_ZN11ST7735_pico5initREh+0x134>)
10000efa:	52e2      	strh	r2, [r4, r3]
10000efc:	f7ff fe98 	bl	10000c30 <_ZN11ST7735_pico11commandListEPKh>
10000f00:	e7d7      	b.n	10000eb2 <_ZN11ST7735_pico5initREh+0x5e>
10000f02:	237c      	movs	r3, #124	; 0x7c
10000f04:	2280      	movs	r2, #128	; 0x80
10000f06:	0020      	movs	r0, r4
10000f08:	52e2      	strh	r2, [r4, r3]
10000f0a:	4921      	ldr	r1, [pc, #132]	; (10000f90 <_ZN11ST7735_pico5initREh+0x13c>)
10000f0c:	f7ff fe90 	bl	10000c30 <_ZN11ST7735_pico11commandListEPKh>
10000f10:	2372      	movs	r3, #114	; 0x72
10000f12:	2200      	movs	r2, #0
10000f14:	52e2      	strh	r2, [r4, r3]
10000f16:	3302      	adds	r3, #2
10000f18:	3220      	adds	r2, #32
10000f1a:	52e2      	strh	r2, [r4, r3]
10000f1c:	0020      	movs	r0, r4
10000f1e:	491a      	ldr	r1, [pc, #104]	; (10000f88 <_ZN11ST7735_pico5initREh+0x134>)
10000f20:	f7ff fe86 	bl	10000c30 <_ZN11ST7735_pico11commandListEPKh>
10000f24:	e7c5      	b.n	10000eb2 <_ZN11ST7735_pico5initREh+0x5e>
10000f26:	237c      	movs	r3, #124	; 0x7c
10000f28:	2280      	movs	r2, #128	; 0x80
10000f2a:	0020      	movs	r0, r4
10000f2c:	52e2      	strh	r2, [r4, r3]
10000f2e:	4918      	ldr	r1, [pc, #96]	; (10000f90 <_ZN11ST7735_pico5initREh+0x13c>)
10000f30:	f7ff fe7e 	bl	10000c30 <_ZN11ST7735_pico11commandListEPKh>
10000f34:	2372      	movs	r3, #114	; 0x72
10000f36:	2202      	movs	r2, #2
10000f38:	52e2      	strh	r2, [r4, r3]
10000f3a:	3302      	adds	r3, #2
10000f3c:	3201      	adds	r2, #1
10000f3e:	52e2      	strh	r2, [r4, r3]
10000f40:	e7ec      	b.n	10000f1c <_ZN11ST7735_pico5initREh+0xc8>
10000f42:	4b14      	ldr	r3, [pc, #80]	; (10000f94 <_ZN11ST7735_pico5initREh+0x140>)
10000f44:	0020      	movs	r0, r4
10000f46:	67e3      	str	r3, [r4, #124]	; 0x7c
10000f48:	4913      	ldr	r1, [pc, #76]	; (10000f98 <_ZN11ST7735_pico5initREh+0x144>)
10000f4a:	f7ff fe71 	bl	10000c30 <_ZN11ST7735_pico11commandListEPKh>
10000f4e:	2372      	movs	r3, #114	; 0x72
10000f50:	221a      	movs	r2, #26
10000f52:	52e2      	strh	r2, [r4, r3]
10000f54:	3302      	adds	r3, #2
10000f56:	3a19      	subs	r2, #25
10000f58:	52e2      	strh	r2, [r4, r3]
10000f5a:	e7df      	b.n	10000f1c <_ZN11ST7735_pico5initREh+0xc8>
10000f5c:	4b0d      	ldr	r3, [pc, #52]	; (10000f94 <_ZN11ST7735_pico5initREh+0x140>)
10000f5e:	0020      	movs	r0, r4
10000f60:	67e3      	str	r3, [r4, #124]	; 0x7c
10000f62:	490e      	ldr	r1, [pc, #56]	; (10000f9c <_ZN11ST7735_pico5initREh+0x148>)
10000f64:	f7ff fe64 	bl	10000c30 <_ZN11ST7735_pico11commandListEPKh>
10000f68:	2372      	movs	r3, #114	; 0x72
10000f6a:	2218      	movs	r2, #24
10000f6c:	52e2      	strh	r2, [r4, r3]
10000f6e:	2200      	movs	r2, #0
10000f70:	3302      	adds	r3, #2
10000f72:	0020      	movs	r0, r4
10000f74:	4904      	ldr	r1, [pc, #16]	; (10000f88 <_ZN11ST7735_pico5initREh+0x134>)
10000f76:	52e2      	strh	r2, [r4, r3]
10000f78:	f7ff fe5a 	bl	10000c30 <_ZN11ST7735_pico11commandListEPKh>
10000f7c:	e787      	b.n	10000e8e <_ZN11ST7735_pico5initREh+0x3a>
10000f7e:	46c0      	nop			; (mov r8, r8)
10000f80:	10009644 	.word	0x10009644
10000f84:	100096ac 	.word	0x100096ac
10000f88:	10009680 	.word	0x10009680
10000f8c:	10009604 	.word	0x10009604
10000f90:	10009614 	.word	0x10009614
10000f94:	005000a0 	.word	0x005000a0
10000f98:	10009634 	.word	0x10009634
10000f9c:	10009624 	.word	0x10009624

10000fa0 <_ZN11ST7735_pico9drawPixelEsst>:
10000fa0:	b5f0      	push	{r4, r5, r6, r7, lr}
10000fa2:	4646      	mov	r6, r8
10000fa4:	46d6      	mov	lr, sl
10000fa6:	464f      	mov	r7, r9
10000fa8:	0004      	movs	r4, r0
10000faa:	b5c0      	push	{r6, r7, lr}
10000fac:	8b00      	ldrh	r0, [r0, #24]
10000fae:	001d      	movs	r5, r3
10000fb0:	1841      	adds	r1, r0, r1
10000fb2:	201c      	movs	r0, #28
10000fb4:	5e23      	ldrsh	r3, [r4, r0]
10000fb6:	b28e      	uxth	r6, r1
10000fb8:	b209      	sxth	r1, r1
10000fba:	b082      	sub	sp, #8
10000fbc:	428b      	cmp	r3, r1
10000fbe:	dd00      	ble.n	10000fc2 <_ZN11ST7735_pico9drawPixelEsst+0x22>
10000fc0:	e0a8      	b.n	10001114 <_ZN11ST7735_pico9drawPixelEsst+0x174>
10000fc2:	2020      	movs	r0, #32
10000fc4:	5e23      	ldrsh	r3, [r4, r0]
10000fc6:	428b      	cmp	r3, r1
10000fc8:	dc00      	bgt.n	10000fcc <_ZN11ST7735_pico9drawPixelEsst+0x2c>
10000fca:	e0a3      	b.n	10001114 <_ZN11ST7735_pico9drawPixelEsst+0x174>
10000fcc:	8b63      	ldrh	r3, [r4, #26]
10000fce:	189a      	adds	r2, r3, r2
10000fd0:	211e      	movs	r1, #30
10000fd2:	5e63      	ldrsh	r3, [r4, r1]
10000fd4:	b297      	uxth	r7, r2
10000fd6:	b212      	sxth	r2, r2
10000fd8:	4293      	cmp	r3, r2
10000fda:	dd00      	ble.n	10000fde <_ZN11ST7735_pico9drawPixelEsst+0x3e>
10000fdc:	e09a      	b.n	10001114 <_ZN11ST7735_pico9drawPixelEsst+0x174>
10000fde:	2122      	movs	r1, #34	; 0x22
10000fe0:	5e63      	ldrsh	r3, [r4, r1]
10000fe2:	4293      	cmp	r3, r2
10000fe4:	dc00      	bgt.n	10000fe8 <_ZN11ST7735_pico9drawPixelEsst+0x48>
10000fe6:	e095      	b.n	10001114 <_ZN11ST7735_pico9drawPixelEsst+0x174>
10000fe8:	6860      	ldr	r0, [r4, #4]
10000fea:	6803      	ldr	r3, [r0, #0]
10000fec:	68db      	ldr	r3, [r3, #12]
10000fee:	4798      	blx	r3
10000ff0:	2800      	cmp	r0, #0
10000ff2:	d106      	bne.n	10001002 <_ZN11ST7735_pico9drawPixelEsst+0x62>
10000ff4:	2380      	movs	r3, #128	; 0x80
10000ff6:	5ce2      	ldrb	r2, [r4, r3]
10000ff8:	3b7f      	subs	r3, #127	; 0x7f
10000ffa:	4093      	lsls	r3, r2
10000ffc:	22d0      	movs	r2, #208	; 0xd0
10000ffe:	0612      	lsls	r2, r2, #24
10001000:	6193      	str	r3, [r2, #24]
10001002:	7a63      	ldrb	r3, [r4, #9]
10001004:	2b00      	cmp	r3, #0
10001006:	d000      	beq.n	1000100a <_ZN11ST7735_pico9drawPixelEsst+0x6a>
10001008:	e08a      	b.n	10001120 <_ZN11ST7735_pico9drawPixelEsst+0x180>
1000100a:	2381      	movs	r3, #129	; 0x81
1000100c:	5ce2      	ldrb	r2, [r4, r3]
1000100e:	3b80      	subs	r3, #128	; 0x80
10001010:	4093      	lsls	r3, r2
10001012:	22d0      	movs	r2, #208	; 0xd0
10001014:	0612      	lsls	r2, r2, #24
10001016:	6193      	str	r3, [r2, #24]
10001018:	212a      	movs	r1, #42	; 0x2a
1000101a:	6860      	ldr	r0, [r4, #4]
1000101c:	f7ff fac6 	bl	100005ac <_ZN3SPI5writeEh>
10001020:	2376      	movs	r3, #118	; 0x76
10001022:	5ae3      	ldrh	r3, [r4, r3]
10001024:	18f3      	adds	r3, r6, r3
10001026:	b29b      	uxth	r3, r3
10001028:	4698      	mov	r8, r3
1000102a:	7a63      	ldrb	r3, [r4, #9]
1000102c:	2b00      	cmp	r3, #0
1000102e:	d100      	bne.n	10001032 <_ZN11ST7735_pico9drawPixelEsst+0x92>
10001030:	e0e7      	b.n	10001202 <_ZN11ST7735_pico9drawPixelEsst+0x262>
10001032:	2381      	movs	r3, #129	; 0x81
10001034:	5ce2      	ldrb	r2, [r4, r3]
10001036:	3b80      	subs	r3, #128	; 0x80
10001038:	4093      	lsls	r3, r2
1000103a:	22d0      	movs	r2, #208	; 0xd0
1000103c:	0612      	lsls	r2, r2, #24
1000103e:	6153      	str	r3, [r2, #20]
10001040:	4641      	mov	r1, r8
10001042:	6860      	ldr	r0, [r4, #4]
10001044:	f7ff fabe 	bl	100005c4 <_ZN3SPI7write16Et>
10001048:	2376      	movs	r3, #118	; 0x76
1000104a:	5ae3      	ldrh	r3, [r4, r3]
1000104c:	3301      	adds	r3, #1
1000104e:	18f6      	adds	r6, r6, r3
10001050:	7a63      	ldrb	r3, [r4, #9]
10001052:	b2b6      	uxth	r6, r6
10001054:	2b00      	cmp	r3, #0
10001056:	d100      	bne.n	1000105a <_ZN11ST7735_pico9drawPixelEsst+0xba>
10001058:	e0ad      	b.n	100011b6 <_ZN11ST7735_pico9drawPixelEsst+0x216>
1000105a:	2381      	movs	r3, #129	; 0x81
1000105c:	5ce2      	ldrb	r2, [r4, r3]
1000105e:	3b80      	subs	r3, #128	; 0x80
10001060:	4093      	lsls	r3, r2
10001062:	22d0      	movs	r2, #208	; 0xd0
10001064:	0612      	lsls	r2, r2, #24
10001066:	6153      	str	r3, [r2, #20]
10001068:	0031      	movs	r1, r6
1000106a:	6860      	ldr	r0, [r4, #4]
1000106c:	f7ff faaa 	bl	100005c4 <_ZN3SPI7write16Et>
10001070:	7a63      	ldrb	r3, [r4, #9]
10001072:	2b00      	cmp	r3, #0
10001074:	d000      	beq.n	10001078 <_ZN11ST7735_pico9drawPixelEsst+0xd8>
10001076:	e0b2      	b.n	100011de <_ZN11ST7735_pico9drawPixelEsst+0x23e>
10001078:	2381      	movs	r3, #129	; 0x81
1000107a:	5ce2      	ldrb	r2, [r4, r3]
1000107c:	3b80      	subs	r3, #128	; 0x80
1000107e:	4093      	lsls	r3, r2
10001080:	22d0      	movs	r2, #208	; 0xd0
10001082:	0612      	lsls	r2, r2, #24
10001084:	6193      	str	r3, [r2, #24]
10001086:	212b      	movs	r1, #43	; 0x2b
10001088:	6860      	ldr	r0, [r4, #4]
1000108a:	f7ff fa8f 	bl	100005ac <_ZN3SPI5writeEh>
1000108e:	2378      	movs	r3, #120	; 0x78
10001090:	5ae6      	ldrh	r6, [r4, r3]
10001092:	7a63      	ldrb	r3, [r4, #9]
10001094:	19be      	adds	r6, r7, r6
10001096:	b2b6      	uxth	r6, r6
10001098:	2b00      	cmp	r3, #0
1000109a:	d100      	bne.n	1000109e <_ZN11ST7735_pico9drawPixelEsst+0xfe>
1000109c:	e077      	b.n	1000118e <_ZN11ST7735_pico9drawPixelEsst+0x1ee>
1000109e:	2381      	movs	r3, #129	; 0x81
100010a0:	5ce2      	ldrb	r2, [r4, r3]
100010a2:	3b80      	subs	r3, #128	; 0x80
100010a4:	4093      	lsls	r3, r2
100010a6:	22d0      	movs	r2, #208	; 0xd0
100010a8:	0612      	lsls	r2, r2, #24
100010aa:	6153      	str	r3, [r2, #20]
100010ac:	0031      	movs	r1, r6
100010ae:	6860      	ldr	r0, [r4, #4]
100010b0:	f7ff fa88 	bl	100005c4 <_ZN3SPI7write16Et>
100010b4:	2378      	movs	r3, #120	; 0x78
100010b6:	5ae3      	ldrh	r3, [r4, r3]
100010b8:	3301      	adds	r3, #1
100010ba:	18ff      	adds	r7, r7, r3
100010bc:	7a63      	ldrb	r3, [r4, #9]
100010be:	b2bf      	uxth	r7, r7
100010c0:	2b00      	cmp	r3, #0
100010c2:	d052      	beq.n	1000116a <_ZN11ST7735_pico9drawPixelEsst+0x1ca>
100010c4:	2381      	movs	r3, #129	; 0x81
100010c6:	5ce2      	ldrb	r2, [r4, r3]
100010c8:	3b80      	subs	r3, #128	; 0x80
100010ca:	4093      	lsls	r3, r2
100010cc:	22d0      	movs	r2, #208	; 0xd0
100010ce:	0612      	lsls	r2, r2, #24
100010d0:	6153      	str	r3, [r2, #20]
100010d2:	0039      	movs	r1, r7
100010d4:	6860      	ldr	r0, [r4, #4]
100010d6:	f7ff fa75 	bl	100005c4 <_ZN3SPI7write16Et>
100010da:	7a63      	ldrb	r3, [r4, #9]
100010dc:	2b00      	cmp	r3, #0
100010de:	d133      	bne.n	10001148 <_ZN11ST7735_pico9drawPixelEsst+0x1a8>
100010e0:	2601      	movs	r6, #1
100010e2:	2381      	movs	r3, #129	; 0x81
100010e4:	0032      	movs	r2, r6
100010e6:	5ce3      	ldrb	r3, [r4, r3]
100010e8:	27d0      	movs	r7, #208	; 0xd0
100010ea:	409a      	lsls	r2, r3
100010ec:	063f      	lsls	r7, r7, #24
100010ee:	212c      	movs	r1, #44	; 0x2c
100010f0:	6860      	ldr	r0, [r4, #4]
100010f2:	61ba      	str	r2, [r7, #24]
100010f4:	f7ff fa5a 	bl	100005ac <_ZN3SPI5writeEh>
100010f8:	0020      	movs	r0, r4
100010fa:	0029      	movs	r1, r5
100010fc:	f7ff fd6c 	bl	10000bd8 <_ZN11ST7735_pico16writedata16_lastEt>
10001100:	6860      	ldr	r0, [r4, #4]
10001102:	6803      	ldr	r3, [r0, #0]
10001104:	68db      	ldr	r3, [r3, #12]
10001106:	4798      	blx	r3
10001108:	2800      	cmp	r0, #0
1000110a:	d103      	bne.n	10001114 <_ZN11ST7735_pico9drawPixelEsst+0x174>
1000110c:	2380      	movs	r3, #128	; 0x80
1000110e:	5ce3      	ldrb	r3, [r4, r3]
10001110:	409e      	lsls	r6, r3
10001112:	617e      	str	r6, [r7, #20]
10001114:	b002      	add	sp, #8
10001116:	bce0      	pop	{r5, r6, r7}
10001118:	46ba      	mov	sl, r7
1000111a:	46b1      	mov	r9, r6
1000111c:	46a8      	mov	r8, r5
1000111e:	bdf0      	pop	{r4, r5, r6, r7, pc}
10001120:	6860      	ldr	r0, [r4, #4]
10001122:	6803      	ldr	r3, [r0, #0]
10001124:	691b      	ldr	r3, [r3, #16]
10001126:	4798      	blx	r3
10001128:	4680      	mov	r8, r0
1000112a:	2800      	cmp	r0, #0
1000112c:	d1f8      	bne.n	10001120 <_ZN11ST7735_pico9drawPixelEsst+0x180>
1000112e:	2201      	movs	r2, #1
10001130:	6860      	ldr	r0, [r4, #4]
10001132:	2108      	movs	r1, #8
10001134:	6803      	ldr	r3, [r0, #0]
10001136:	9200      	str	r2, [sp, #0]
10001138:	695b      	ldr	r3, [r3, #20]
1000113a:	2200      	movs	r2, #0
1000113c:	4699      	mov	r9, r3
1000113e:	2300      	movs	r3, #0
10001140:	47c8      	blx	r9
10001142:	4643      	mov	r3, r8
10001144:	7263      	strb	r3, [r4, #9]
10001146:	e760      	b.n	1000100a <_ZN11ST7735_pico9drawPixelEsst+0x6a>
10001148:	6860      	ldr	r0, [r4, #4]
1000114a:	6803      	ldr	r3, [r0, #0]
1000114c:	691b      	ldr	r3, [r3, #16]
1000114e:	4798      	blx	r3
10001150:	1e06      	subs	r6, r0, #0
10001152:	d1f9      	bne.n	10001148 <_ZN11ST7735_pico9drawPixelEsst+0x1a8>
10001154:	2201      	movs	r2, #1
10001156:	6860      	ldr	r0, [r4, #4]
10001158:	2108      	movs	r1, #8
1000115a:	6803      	ldr	r3, [r0, #0]
1000115c:	9200      	str	r2, [sp, #0]
1000115e:	695f      	ldr	r7, [r3, #20]
10001160:	2200      	movs	r2, #0
10001162:	2300      	movs	r3, #0
10001164:	47b8      	blx	r7
10001166:	7266      	strb	r6, [r4, #9]
10001168:	e7ba      	b.n	100010e0 <_ZN11ST7735_pico9drawPixelEsst+0x140>
1000116a:	6860      	ldr	r0, [r4, #4]
1000116c:	6803      	ldr	r3, [r0, #0]
1000116e:	691b      	ldr	r3, [r3, #16]
10001170:	4798      	blx	r3
10001172:	2800      	cmp	r0, #0
10001174:	d1f9      	bne.n	1000116a <_ZN11ST7735_pico9drawPixelEsst+0x1ca>
10001176:	2601      	movs	r6, #1
10001178:	6860      	ldr	r0, [r4, #4]
1000117a:	2200      	movs	r2, #0
1000117c:	6803      	ldr	r3, [r0, #0]
1000117e:	9600      	str	r6, [sp, #0]
10001180:	695b      	ldr	r3, [r3, #20]
10001182:	2110      	movs	r1, #16
10001184:	4698      	mov	r8, r3
10001186:	2300      	movs	r3, #0
10001188:	47c0      	blx	r8
1000118a:	7266      	strb	r6, [r4, #9]
1000118c:	e79a      	b.n	100010c4 <_ZN11ST7735_pico9drawPixelEsst+0x124>
1000118e:	6860      	ldr	r0, [r4, #4]
10001190:	6803      	ldr	r3, [r0, #0]
10001192:	691b      	ldr	r3, [r3, #16]
10001194:	4798      	blx	r3
10001196:	2800      	cmp	r0, #0
10001198:	d1f9      	bne.n	1000118e <_ZN11ST7735_pico9drawPixelEsst+0x1ee>
1000119a:	2201      	movs	r2, #1
1000119c:	4690      	mov	r8, r2
1000119e:	6860      	ldr	r0, [r4, #4]
100011a0:	2110      	movs	r1, #16
100011a2:	6803      	ldr	r3, [r0, #0]
100011a4:	9200      	str	r2, [sp, #0]
100011a6:	695b      	ldr	r3, [r3, #20]
100011a8:	2200      	movs	r2, #0
100011aa:	4699      	mov	r9, r3
100011ac:	2300      	movs	r3, #0
100011ae:	47c8      	blx	r9
100011b0:	4643      	mov	r3, r8
100011b2:	7263      	strb	r3, [r4, #9]
100011b4:	e773      	b.n	1000109e <_ZN11ST7735_pico9drawPixelEsst+0xfe>
100011b6:	6860      	ldr	r0, [r4, #4]
100011b8:	6803      	ldr	r3, [r0, #0]
100011ba:	691b      	ldr	r3, [r3, #16]
100011bc:	4798      	blx	r3
100011be:	2800      	cmp	r0, #0
100011c0:	d1f9      	bne.n	100011b6 <_ZN11ST7735_pico9drawPixelEsst+0x216>
100011c2:	2201      	movs	r2, #1
100011c4:	4690      	mov	r8, r2
100011c6:	6860      	ldr	r0, [r4, #4]
100011c8:	2110      	movs	r1, #16
100011ca:	6803      	ldr	r3, [r0, #0]
100011cc:	9200      	str	r2, [sp, #0]
100011ce:	695b      	ldr	r3, [r3, #20]
100011d0:	2200      	movs	r2, #0
100011d2:	4699      	mov	r9, r3
100011d4:	2300      	movs	r3, #0
100011d6:	47c8      	blx	r9
100011d8:	4643      	mov	r3, r8
100011da:	7263      	strb	r3, [r4, #9]
100011dc:	e73d      	b.n	1000105a <_ZN11ST7735_pico9drawPixelEsst+0xba>
100011de:	6860      	ldr	r0, [r4, #4]
100011e0:	6803      	ldr	r3, [r0, #0]
100011e2:	691b      	ldr	r3, [r3, #16]
100011e4:	4798      	blx	r3
100011e6:	1e06      	subs	r6, r0, #0
100011e8:	d1f9      	bne.n	100011de <_ZN11ST7735_pico9drawPixelEsst+0x23e>
100011ea:	2201      	movs	r2, #1
100011ec:	6860      	ldr	r0, [r4, #4]
100011ee:	2108      	movs	r1, #8
100011f0:	6803      	ldr	r3, [r0, #0]
100011f2:	9200      	str	r2, [sp, #0]
100011f4:	695b      	ldr	r3, [r3, #20]
100011f6:	2200      	movs	r2, #0
100011f8:	4698      	mov	r8, r3
100011fa:	2300      	movs	r3, #0
100011fc:	47c0      	blx	r8
100011fe:	7266      	strb	r6, [r4, #9]
10001200:	e73a      	b.n	10001078 <_ZN11ST7735_pico9drawPixelEsst+0xd8>
10001202:	6860      	ldr	r0, [r4, #4]
10001204:	6803      	ldr	r3, [r0, #0]
10001206:	691b      	ldr	r3, [r3, #16]
10001208:	4798      	blx	r3
1000120a:	2800      	cmp	r0, #0
1000120c:	d1f9      	bne.n	10001202 <_ZN11ST7735_pico9drawPixelEsst+0x262>
1000120e:	2201      	movs	r2, #1
10001210:	4691      	mov	r9, r2
10001212:	6860      	ldr	r0, [r4, #4]
10001214:	2110      	movs	r1, #16
10001216:	6803      	ldr	r3, [r0, #0]
10001218:	9200      	str	r2, [sp, #0]
1000121a:	695b      	ldr	r3, [r3, #20]
1000121c:	2200      	movs	r2, #0
1000121e:	469a      	mov	sl, r3
10001220:	2300      	movs	r3, #0
10001222:	47d0      	blx	sl
10001224:	464b      	mov	r3, r9
10001226:	7263      	strb	r3, [r4, #9]
10001228:	e703      	b.n	10001032 <_ZN11ST7735_pico9drawPixelEsst+0x92>
1000122a:	46c0      	nop			; (mov r8, r8)

1000122c <_ZN11ST7735_pico13drawFastVLineEssst>:
1000122c:	b5f0      	push	{r4, r5, r6, r7, lr}
1000122e:	464e      	mov	r6, r9
10001230:	4645      	mov	r5, r8
10001232:	46de      	mov	lr, fp
10001234:	4657      	mov	r7, sl
10001236:	0004      	movs	r4, r0
10001238:	b5e0      	push	{r5, r6, r7, lr}
1000123a:	b085      	sub	sp, #20
1000123c:	001e      	movs	r6, r3
1000123e:	ab0e      	add	r3, sp, #56	; 0x38
10001240:	881b      	ldrh	r3, [r3, #0]
10001242:	4698      	mov	r8, r3
10001244:	8b03      	ldrh	r3, [r0, #24]
10001246:	1859      	adds	r1, r3, r1
10001248:	b28b      	uxth	r3, r1
1000124a:	4699      	mov	r9, r3
1000124c:	201c      	movs	r0, #28
1000124e:	5e23      	ldrsh	r3, [r4, r0]
10001250:	b209      	sxth	r1, r1
10001252:	428b      	cmp	r3, r1
10001254:	dd00      	ble.n	10001258 <_ZN11ST7735_pico13drawFastVLineEssst+0x2c>
10001256:	e0e3      	b.n	10001420 <_ZN11ST7735_pico13drawFastVLineEssst+0x1f4>
10001258:	2020      	movs	r0, #32
1000125a:	5e23      	ldrsh	r3, [r4, r0]
1000125c:	428b      	cmp	r3, r1
1000125e:	dc00      	bgt.n	10001262 <_ZN11ST7735_pico13drawFastVLineEssst+0x36>
10001260:	e0de      	b.n	10001420 <_ZN11ST7735_pico13drawFastVLineEssst+0x1f4>
10001262:	8b63      	ldrh	r3, [r4, #26]
10001264:	189b      	adds	r3, r3, r2
10001266:	2122      	movs	r1, #34	; 0x22
10001268:	5e62      	ldrsh	r2, [r4, r1]
1000126a:	b29f      	uxth	r7, r3
1000126c:	b21b      	sxth	r3, r3
1000126e:	429a      	cmp	r2, r3
10001270:	dc00      	bgt.n	10001274 <_ZN11ST7735_pico13drawFastVLineEssst+0x48>
10001272:	e0d5      	b.n	10001420 <_ZN11ST7735_pico13drawFastVLineEssst+0x1f4>
10001274:	201e      	movs	r0, #30
10001276:	5e21      	ldrsh	r1, [r4, r0]
10001278:	4299      	cmp	r1, r3
1000127a:	dd05      	ble.n	10001288 <_ZN11ST7735_pico13drawFastVLineEssst+0x5c>
1000127c:	b28b      	uxth	r3, r1
1000127e:	1aff      	subs	r7, r7, r3
10001280:	19be      	adds	r6, r7, r6
10001282:	001f      	movs	r7, r3
10001284:	000b      	movs	r3, r1
10001286:	b236      	sxth	r6, r6
10001288:	199b      	adds	r3, r3, r6
1000128a:	4293      	cmp	r3, r2
1000128c:	dd00      	ble.n	10001290 <_ZN11ST7735_pico13drawFastVLineEssst+0x64>
1000128e:	e0ce      	b.n	1000142e <_ZN11ST7735_pico13drawFastVLineEssst+0x202>
10001290:	2e00      	cmp	r6, #0
10001292:	dc00      	bgt.n	10001296 <_ZN11ST7735_pico13drawFastVLineEssst+0x6a>
10001294:	e0c4      	b.n	10001420 <_ZN11ST7735_pico13drawFastVLineEssst+0x1f4>
10001296:	6860      	ldr	r0, [r4, #4]
10001298:	6803      	ldr	r3, [r0, #0]
1000129a:	68db      	ldr	r3, [r3, #12]
1000129c:	4798      	blx	r3
1000129e:	2800      	cmp	r0, #0
100012a0:	d106      	bne.n	100012b0 <_ZN11ST7735_pico13drawFastVLineEssst+0x84>
100012a2:	2380      	movs	r3, #128	; 0x80
100012a4:	5ce2      	ldrb	r2, [r4, r3]
100012a6:	3b7f      	subs	r3, #127	; 0x7f
100012a8:	4093      	lsls	r3, r2
100012aa:	22d0      	movs	r2, #208	; 0xd0
100012ac:	0612      	lsls	r2, r2, #24
100012ae:	6193      	str	r3, [r2, #24]
100012b0:	b2b3      	uxth	r3, r6
100012b2:	9303      	str	r3, [sp, #12]
100012b4:	7a63      	ldrb	r3, [r4, #9]
100012b6:	2b00      	cmp	r3, #0
100012b8:	d000      	beq.n	100012bc <_ZN11ST7735_pico13drawFastVLineEssst+0x90>
100012ba:	e146      	b.n	1000154a <_ZN11ST7735_pico13drawFastVLineEssst+0x31e>
100012bc:	2381      	movs	r3, #129	; 0x81
100012be:	5ce2      	ldrb	r2, [r4, r3]
100012c0:	3b80      	subs	r3, #128	; 0x80
100012c2:	4093      	lsls	r3, r2
100012c4:	22d0      	movs	r2, #208	; 0xd0
100012c6:	0612      	lsls	r2, r2, #24
100012c8:	6193      	str	r3, [r2, #24]
100012ca:	212a      	movs	r1, #42	; 0x2a
100012cc:	6860      	ldr	r0, [r4, #4]
100012ce:	f7ff f96d 	bl	100005ac <_ZN3SPI5writeEh>
100012d2:	2376      	movs	r3, #118	; 0x76
100012d4:	5ae3      	ldrh	r3, [r4, r3]
100012d6:	444b      	add	r3, r9
100012d8:	b29b      	uxth	r3, r3
100012da:	469a      	mov	sl, r3
100012dc:	7a63      	ldrb	r3, [r4, #9]
100012de:	2b00      	cmp	r3, #0
100012e0:	d100      	bne.n	100012e4 <_ZN11ST7735_pico13drawFastVLineEssst+0xb8>
100012e2:	e11c      	b.n	1000151e <_ZN11ST7735_pico13drawFastVLineEssst+0x2f2>
100012e4:	2381      	movs	r3, #129	; 0x81
100012e6:	5ce2      	ldrb	r2, [r4, r3]
100012e8:	3b80      	subs	r3, #128	; 0x80
100012ea:	4093      	lsls	r3, r2
100012ec:	22d0      	movs	r2, #208	; 0xd0
100012ee:	0612      	lsls	r2, r2, #24
100012f0:	4651      	mov	r1, sl
100012f2:	6153      	str	r3, [r2, #20]
100012f4:	6860      	ldr	r0, [r4, #4]
100012f6:	f7ff f965 	bl	100005c4 <_ZN3SPI7write16Et>
100012fa:	2376      	movs	r3, #118	; 0x76
100012fc:	5ae1      	ldrh	r1, [r4, r3]
100012fe:	4449      	add	r1, r9
10001300:	b28b      	uxth	r3, r1
10001302:	4699      	mov	r9, r3
10001304:	7a63      	ldrb	r3, [r4, #9]
10001306:	2b00      	cmp	r3, #0
10001308:	d100      	bne.n	1000130c <_ZN11ST7735_pico13drawFastVLineEssst+0xe0>
1000130a:	e0f2      	b.n	100014f2 <_ZN11ST7735_pico13drawFastVLineEssst+0x2c6>
1000130c:	2381      	movs	r3, #129	; 0x81
1000130e:	5ce2      	ldrb	r2, [r4, r3]
10001310:	3b80      	subs	r3, #128	; 0x80
10001312:	4093      	lsls	r3, r2
10001314:	22d0      	movs	r2, #208	; 0xd0
10001316:	0612      	lsls	r2, r2, #24
10001318:	6153      	str	r3, [r2, #20]
1000131a:	4649      	mov	r1, r9
1000131c:	6860      	ldr	r0, [r4, #4]
1000131e:	f7ff f951 	bl	100005c4 <_ZN3SPI7write16Et>
10001322:	7a63      	ldrb	r3, [r4, #9]
10001324:	2b00      	cmp	r3, #0
10001326:	d000      	beq.n	1000132a <_ZN11ST7735_pico13drawFastVLineEssst+0xfe>
10001328:	e0cd      	b.n	100014c6 <_ZN11ST7735_pico13drawFastVLineEssst+0x29a>
1000132a:	2381      	movs	r3, #129	; 0x81
1000132c:	5ce2      	ldrb	r2, [r4, r3]
1000132e:	3b80      	subs	r3, #128	; 0x80
10001330:	4093      	lsls	r3, r2
10001332:	22d0      	movs	r2, #208	; 0xd0
10001334:	0612      	lsls	r2, r2, #24
10001336:	6193      	str	r3, [r2, #24]
10001338:	212b      	movs	r1, #43	; 0x2b
1000133a:	6860      	ldr	r0, [r4, #4]
1000133c:	f7ff f936 	bl	100005ac <_ZN3SPI5writeEh>
10001340:	2378      	movs	r3, #120	; 0x78
10001342:	5ae3      	ldrh	r3, [r4, r3]
10001344:	18fb      	adds	r3, r7, r3
10001346:	b29b      	uxth	r3, r3
10001348:	4699      	mov	r9, r3
1000134a:	7a63      	ldrb	r3, [r4, #9]
1000134c:	2b00      	cmp	r3, #0
1000134e:	d100      	bne.n	10001352 <_ZN11ST7735_pico13drawFastVLineEssst+0x126>
10001350:	e08e      	b.n	10001470 <_ZN11ST7735_pico13drawFastVLineEssst+0x244>
10001352:	2381      	movs	r3, #129	; 0x81
10001354:	5ce2      	ldrb	r2, [r4, r3]
10001356:	3b80      	subs	r3, #128	; 0x80
10001358:	4093      	lsls	r3, r2
1000135a:	22d0      	movs	r2, #208	; 0xd0
1000135c:	0612      	lsls	r2, r2, #24
1000135e:	6153      	str	r3, [r2, #20]
10001360:	4649      	mov	r1, r9
10001362:	6860      	ldr	r0, [r4, #4]
10001364:	f7ff f92e 	bl	100005c4 <_ZN3SPI7write16Et>
10001368:	2378      	movs	r3, #120	; 0x78
1000136a:	5ae3      	ldrh	r3, [r4, r3]
1000136c:	3b01      	subs	r3, #1
1000136e:	18ff      	adds	r7, r7, r3
10001370:	9b03      	ldr	r3, [sp, #12]
10001372:	469c      	mov	ip, r3
10001374:	7a63      	ldrb	r3, [r4, #9]
10001376:	4467      	add	r7, ip
10001378:	b2bf      	uxth	r7, r7
1000137a:	2b00      	cmp	r3, #0
1000137c:	d062      	beq.n	10001444 <_ZN11ST7735_pico13drawFastVLineEssst+0x218>
1000137e:	2381      	movs	r3, #129	; 0x81
10001380:	5ce2      	ldrb	r2, [r4, r3]
10001382:	3b80      	subs	r3, #128	; 0x80
10001384:	4093      	lsls	r3, r2
10001386:	22d0      	movs	r2, #208	; 0xd0
10001388:	0612      	lsls	r2, r2, #24
1000138a:	6153      	str	r3, [r2, #20]
1000138c:	0039      	movs	r1, r7
1000138e:	6860      	ldr	r0, [r4, #4]
10001390:	f7ff f918 	bl	100005c4 <_ZN3SPI7write16Et>
10001394:	7a63      	ldrb	r3, [r4, #9]
10001396:	2b00      	cmp	r3, #0
10001398:	d000      	beq.n	1000139c <_ZN11ST7735_pico13drawFastVLineEssst+0x170>
1000139a:	e07f      	b.n	1000149c <_ZN11ST7735_pico13drawFastVLineEssst+0x270>
1000139c:	2381      	movs	r3, #129	; 0x81
1000139e:	5ce2      	ldrb	r2, [r4, r3]
100013a0:	3b80      	subs	r3, #128	; 0x80
100013a2:	4093      	lsls	r3, r2
100013a4:	22d0      	movs	r2, #208	; 0xd0
100013a6:	0612      	lsls	r2, r2, #24
100013a8:	6193      	str	r3, [r2, #24]
100013aa:	212c      	movs	r1, #44	; 0x2c
100013ac:	6860      	ldr	r0, [r4, #4]
100013ae:	4691      	mov	r9, r2
100013b0:	f7ff f8fc 	bl	100005ac <_ZN3SPI5writeEh>
100013b4:	2381      	movs	r3, #129	; 0x81
100013b6:	2701      	movs	r7, #1
100013b8:	469a      	mov	sl, r3
100013ba:	2e01      	cmp	r6, #1
100013bc:	d026      	beq.n	1000140c <_ZN11ST7735_pico13drawFastVLineEssst+0x1e0>
100013be:	4646      	mov	r6, r8
100013c0:	9d03      	ldr	r5, [sp, #12]
100013c2:	e00e      	b.n	100013e2 <_ZN11ST7735_pico13drawFastVLineEssst+0x1b6>
100013c4:	4653      	mov	r3, sl
100013c6:	003a      	movs	r2, r7
100013c8:	5ce3      	ldrb	r3, [r4, r3]
100013ca:	3d01      	subs	r5, #1
100013cc:	409a      	lsls	r2, r3
100013ce:	0013      	movs	r3, r2
100013d0:	464a      	mov	r2, r9
100013d2:	0031      	movs	r1, r6
100013d4:	6860      	ldr	r0, [r4, #4]
100013d6:	6153      	str	r3, [r2, #20]
100013d8:	b2ad      	uxth	r5, r5
100013da:	f7ff f8f3 	bl	100005c4 <_ZN3SPI7write16Et>
100013de:	2d01      	cmp	r5, #1
100013e0:	d913      	bls.n	1000140a <_ZN11ST7735_pico13drawFastVLineEssst+0x1de>
100013e2:	7a63      	ldrb	r3, [r4, #9]
100013e4:	2b00      	cmp	r3, #0
100013e6:	d1ed      	bne.n	100013c4 <_ZN11ST7735_pico13drawFastVLineEssst+0x198>
100013e8:	6860      	ldr	r0, [r4, #4]
100013ea:	6803      	ldr	r3, [r0, #0]
100013ec:	691b      	ldr	r3, [r3, #16]
100013ee:	4798      	blx	r3
100013f0:	2800      	cmp	r0, #0
100013f2:	d1f9      	bne.n	100013e8 <_ZN11ST7735_pico13drawFastVLineEssst+0x1bc>
100013f4:	6860      	ldr	r0, [r4, #4]
100013f6:	2200      	movs	r2, #0
100013f8:	6803      	ldr	r3, [r0, #0]
100013fa:	9700      	str	r7, [sp, #0]
100013fc:	695b      	ldr	r3, [r3, #20]
100013fe:	2110      	movs	r1, #16
10001400:	4698      	mov	r8, r3
10001402:	2300      	movs	r3, #0
10001404:	47c0      	blx	r8
10001406:	7267      	strb	r7, [r4, #9]
10001408:	e7dc      	b.n	100013c4 <_ZN11ST7735_pico13drawFastVLineEssst+0x198>
1000140a:	46b0      	mov	r8, r6
1000140c:	0020      	movs	r0, r4
1000140e:	4641      	mov	r1, r8
10001410:	f7ff fbe2 	bl	10000bd8 <_ZN11ST7735_pico16writedata16_lastEt>
10001414:	6860      	ldr	r0, [r4, #4]
10001416:	6803      	ldr	r3, [r0, #0]
10001418:	68db      	ldr	r3, [r3, #12]
1000141a:	4798      	blx	r3
1000141c:	2800      	cmp	r0, #0
1000141e:	d009      	beq.n	10001434 <_ZN11ST7735_pico13drawFastVLineEssst+0x208>
10001420:	b005      	add	sp, #20
10001422:	bcf0      	pop	{r4, r5, r6, r7}
10001424:	46bb      	mov	fp, r7
10001426:	46b2      	mov	sl, r6
10001428:	46a9      	mov	r9, r5
1000142a:	46a0      	mov	r8, r4
1000142c:	bdf0      	pop	{r4, r5, r6, r7, pc}
1000142e:	1bd2      	subs	r2, r2, r7
10001430:	b216      	sxth	r6, r2
10001432:	e72d      	b.n	10001290 <_ZN11ST7735_pico13drawFastVLineEssst+0x64>
10001434:	2380      	movs	r3, #128	; 0x80
10001436:	5ce2      	ldrb	r2, [r4, r3]
10001438:	3b7f      	subs	r3, #127	; 0x7f
1000143a:	4093      	lsls	r3, r2
1000143c:	22d0      	movs	r2, #208	; 0xd0
1000143e:	0612      	lsls	r2, r2, #24
10001440:	6153      	str	r3, [r2, #20]
10001442:	e7ed      	b.n	10001420 <_ZN11ST7735_pico13drawFastVLineEssst+0x1f4>
10001444:	4665      	mov	r5, ip
10001446:	6860      	ldr	r0, [r4, #4]
10001448:	6803      	ldr	r3, [r0, #0]
1000144a:	691b      	ldr	r3, [r3, #16]
1000144c:	4798      	blx	r3
1000144e:	2800      	cmp	r0, #0
10001450:	d1f9      	bne.n	10001446 <_ZN11ST7735_pico13drawFastVLineEssst+0x21a>
10001452:	2201      	movs	r2, #1
10001454:	4691      	mov	r9, r2
10001456:	6860      	ldr	r0, [r4, #4]
10001458:	2110      	movs	r1, #16
1000145a:	6803      	ldr	r3, [r0, #0]
1000145c:	9200      	str	r2, [sp, #0]
1000145e:	695b      	ldr	r3, [r3, #20]
10001460:	2200      	movs	r2, #0
10001462:	469a      	mov	sl, r3
10001464:	9503      	str	r5, [sp, #12]
10001466:	2300      	movs	r3, #0
10001468:	47d0      	blx	sl
1000146a:	464b      	mov	r3, r9
1000146c:	7263      	strb	r3, [r4, #9]
1000146e:	e786      	b.n	1000137e <_ZN11ST7735_pico13drawFastVLineEssst+0x152>
10001470:	9d03      	ldr	r5, [sp, #12]
10001472:	6860      	ldr	r0, [r4, #4]
10001474:	6803      	ldr	r3, [r0, #0]
10001476:	691b      	ldr	r3, [r3, #16]
10001478:	4798      	blx	r3
1000147a:	2800      	cmp	r0, #0
1000147c:	d1f9      	bne.n	10001472 <_ZN11ST7735_pico13drawFastVLineEssst+0x246>
1000147e:	2201      	movs	r2, #1
10001480:	4692      	mov	sl, r2
10001482:	6860      	ldr	r0, [r4, #4]
10001484:	2110      	movs	r1, #16
10001486:	6803      	ldr	r3, [r0, #0]
10001488:	9200      	str	r2, [sp, #0]
1000148a:	695b      	ldr	r3, [r3, #20]
1000148c:	2200      	movs	r2, #0
1000148e:	469b      	mov	fp, r3
10001490:	9503      	str	r5, [sp, #12]
10001492:	2300      	movs	r3, #0
10001494:	47d8      	blx	fp
10001496:	4653      	mov	r3, sl
10001498:	7263      	strb	r3, [r4, #9]
1000149a:	e75a      	b.n	10001352 <_ZN11ST7735_pico13drawFastVLineEssst+0x126>
1000149c:	9d03      	ldr	r5, [sp, #12]
1000149e:	6860      	ldr	r0, [r4, #4]
100014a0:	6803      	ldr	r3, [r0, #0]
100014a2:	691b      	ldr	r3, [r3, #16]
100014a4:	4798      	blx	r3
100014a6:	2800      	cmp	r0, #0
100014a8:	d1f9      	bne.n	1000149e <_ZN11ST7735_pico13drawFastVLineEssst+0x272>
100014aa:	2201      	movs	r2, #1
100014ac:	0007      	movs	r7, r0
100014ae:	6860      	ldr	r0, [r4, #4]
100014b0:	2108      	movs	r1, #8
100014b2:	6803      	ldr	r3, [r0, #0]
100014b4:	9200      	str	r2, [sp, #0]
100014b6:	695b      	ldr	r3, [r3, #20]
100014b8:	2200      	movs	r2, #0
100014ba:	4699      	mov	r9, r3
100014bc:	9503      	str	r5, [sp, #12]
100014be:	2300      	movs	r3, #0
100014c0:	47c8      	blx	r9
100014c2:	7267      	strb	r7, [r4, #9]
100014c4:	e76a      	b.n	1000139c <_ZN11ST7735_pico13drawFastVLineEssst+0x170>
100014c6:	9d03      	ldr	r5, [sp, #12]
100014c8:	6860      	ldr	r0, [r4, #4]
100014ca:	6803      	ldr	r3, [r0, #0]
100014cc:	691b      	ldr	r3, [r3, #16]
100014ce:	4798      	blx	r3
100014d0:	2800      	cmp	r0, #0
100014d2:	d1f9      	bne.n	100014c8 <_ZN11ST7735_pico13drawFastVLineEssst+0x29c>
100014d4:	2201      	movs	r2, #1
100014d6:	4681      	mov	r9, r0
100014d8:	6860      	ldr	r0, [r4, #4]
100014da:	2108      	movs	r1, #8
100014dc:	6803      	ldr	r3, [r0, #0]
100014de:	9200      	str	r2, [sp, #0]
100014e0:	695b      	ldr	r3, [r3, #20]
100014e2:	2200      	movs	r2, #0
100014e4:	469a      	mov	sl, r3
100014e6:	9503      	str	r5, [sp, #12]
100014e8:	2300      	movs	r3, #0
100014ea:	47d0      	blx	sl
100014ec:	464b      	mov	r3, r9
100014ee:	7263      	strb	r3, [r4, #9]
100014f0:	e71b      	b.n	1000132a <_ZN11ST7735_pico13drawFastVLineEssst+0xfe>
100014f2:	9d03      	ldr	r5, [sp, #12]
100014f4:	6860      	ldr	r0, [r4, #4]
100014f6:	6803      	ldr	r3, [r0, #0]
100014f8:	691b      	ldr	r3, [r3, #16]
100014fa:	4798      	blx	r3
100014fc:	2800      	cmp	r0, #0
100014fe:	d1f9      	bne.n	100014f4 <_ZN11ST7735_pico13drawFastVLineEssst+0x2c8>
10001500:	2201      	movs	r2, #1
10001502:	4692      	mov	sl, r2
10001504:	6860      	ldr	r0, [r4, #4]
10001506:	2110      	movs	r1, #16
10001508:	6803      	ldr	r3, [r0, #0]
1000150a:	9200      	str	r2, [sp, #0]
1000150c:	695b      	ldr	r3, [r3, #20]
1000150e:	2200      	movs	r2, #0
10001510:	469b      	mov	fp, r3
10001512:	9503      	str	r5, [sp, #12]
10001514:	2300      	movs	r3, #0
10001516:	47d8      	blx	fp
10001518:	4653      	mov	r3, sl
1000151a:	7263      	strb	r3, [r4, #9]
1000151c:	e6f6      	b.n	1000130c <_ZN11ST7735_pico13drawFastVLineEssst+0xe0>
1000151e:	9d03      	ldr	r5, [sp, #12]
10001520:	6860      	ldr	r0, [r4, #4]
10001522:	6803      	ldr	r3, [r0, #0]
10001524:	691b      	ldr	r3, [r3, #16]
10001526:	4798      	blx	r3
10001528:	2800      	cmp	r0, #0
1000152a:	d1f9      	bne.n	10001520 <_ZN11ST7735_pico13drawFastVLineEssst+0x2f4>
1000152c:	2201      	movs	r2, #1
1000152e:	4693      	mov	fp, r2
10001530:	6860      	ldr	r0, [r4, #4]
10001532:	9503      	str	r5, [sp, #12]
10001534:	6803      	ldr	r3, [r0, #0]
10001536:	9200      	str	r2, [sp, #0]
10001538:	695b      	ldr	r3, [r3, #20]
1000153a:	2200      	movs	r2, #0
1000153c:	001d      	movs	r5, r3
1000153e:	2110      	movs	r1, #16
10001540:	2300      	movs	r3, #0
10001542:	47a8      	blx	r5
10001544:	465b      	mov	r3, fp
10001546:	7263      	strb	r3, [r4, #9]
10001548:	e6cc      	b.n	100012e4 <_ZN11ST7735_pico13drawFastVLineEssst+0xb8>
1000154a:	b2b5      	uxth	r5, r6
1000154c:	6860      	ldr	r0, [r4, #4]
1000154e:	6803      	ldr	r3, [r0, #0]
10001550:	691b      	ldr	r3, [r3, #16]
10001552:	4798      	blx	r3
10001554:	2800      	cmp	r0, #0
10001556:	d1f9      	bne.n	1000154c <_ZN11ST7735_pico13drawFastVLineEssst+0x320>
10001558:	2201      	movs	r2, #1
1000155a:	4682      	mov	sl, r0
1000155c:	6860      	ldr	r0, [r4, #4]
1000155e:	2108      	movs	r1, #8
10001560:	6803      	ldr	r3, [r0, #0]
10001562:	9200      	str	r2, [sp, #0]
10001564:	695b      	ldr	r3, [r3, #20]
10001566:	2200      	movs	r2, #0
10001568:	469b      	mov	fp, r3
1000156a:	9503      	str	r5, [sp, #12]
1000156c:	2300      	movs	r3, #0
1000156e:	47d8      	blx	fp
10001570:	4653      	mov	r3, sl
10001572:	7263      	strb	r3, [r4, #9]
10001574:	e6a2      	b.n	100012bc <_ZN11ST7735_pico13drawFastVLineEssst+0x90>
10001576:	46c0      	nop			; (mov r8, r8)

10001578 <_ZN11ST7735_pico13drawFastHLineEssst>:
10001578:	b5f0      	push	{r4, r5, r6, r7, lr}
1000157a:	464e      	mov	r6, r9
1000157c:	4645      	mov	r5, r8
1000157e:	46de      	mov	lr, fp
10001580:	4657      	mov	r7, sl
10001582:	0004      	movs	r4, r0
10001584:	b5e0      	push	{r5, r6, r7, lr}
10001586:	b085      	sub	sp, #20
10001588:	001e      	movs	r6, r3
1000158a:	ab0e      	add	r3, sp, #56	; 0x38
1000158c:	881b      	ldrh	r3, [r3, #0]
1000158e:	0008      	movs	r0, r1
10001590:	4698      	mov	r8, r3
10001592:	8b63      	ldrh	r3, [r4, #26]
10001594:	189a      	adds	r2, r3, r2
10001596:	b293      	uxth	r3, r2
10001598:	4699      	mov	r9, r3
1000159a:	211e      	movs	r1, #30
1000159c:	5e63      	ldrsh	r3, [r4, r1]
1000159e:	b212      	sxth	r2, r2
100015a0:	4293      	cmp	r3, r2
100015a2:	dd00      	ble.n	100015a6 <_ZN11ST7735_pico13drawFastHLineEssst+0x2e>
100015a4:	e0e1      	b.n	1000176a <_ZN11ST7735_pico13drawFastHLineEssst+0x1f2>
100015a6:	8b21      	ldrh	r1, [r4, #24]
100015a8:	1809      	adds	r1, r1, r0
100015aa:	2320      	movs	r3, #32
100015ac:	5ee0      	ldrsh	r0, [r4, r3]
100015ae:	b28f      	uxth	r7, r1
100015b0:	b209      	sxth	r1, r1
100015b2:	4288      	cmp	r0, r1
100015b4:	dc00      	bgt.n	100015b8 <_ZN11ST7735_pico13drawFastHLineEssst+0x40>
100015b6:	e0d8      	b.n	1000176a <_ZN11ST7735_pico13drawFastHLineEssst+0x1f2>
100015b8:	2522      	movs	r5, #34	; 0x22
100015ba:	5f63      	ldrsh	r3, [r4, r5]
100015bc:	4293      	cmp	r3, r2
100015be:	dc00      	bgt.n	100015c2 <_ZN11ST7735_pico13drawFastHLineEssst+0x4a>
100015c0:	e0d3      	b.n	1000176a <_ZN11ST7735_pico13drawFastHLineEssst+0x1f2>
100015c2:	231c      	movs	r3, #28
100015c4:	5ee2      	ldrsh	r2, [r4, r3]
100015c6:	428a      	cmp	r2, r1
100015c8:	dd05      	ble.n	100015d6 <_ZN11ST7735_pico13drawFastHLineEssst+0x5e>
100015ca:	b293      	uxth	r3, r2
100015cc:	1aff      	subs	r7, r7, r3
100015ce:	19be      	adds	r6, r7, r6
100015d0:	0011      	movs	r1, r2
100015d2:	001f      	movs	r7, r3
100015d4:	b236      	sxth	r6, r6
100015d6:	1989      	adds	r1, r1, r6
100015d8:	4281      	cmp	r1, r0
100015da:	dd00      	ble.n	100015de <_ZN11ST7735_pico13drawFastHLineEssst+0x66>
100015dc:	e0cc      	b.n	10001778 <_ZN11ST7735_pico13drawFastHLineEssst+0x200>
100015de:	2e00      	cmp	r6, #0
100015e0:	dc00      	bgt.n	100015e4 <_ZN11ST7735_pico13drawFastHLineEssst+0x6c>
100015e2:	e0c2      	b.n	1000176a <_ZN11ST7735_pico13drawFastHLineEssst+0x1f2>
100015e4:	6860      	ldr	r0, [r4, #4]
100015e6:	6803      	ldr	r3, [r0, #0]
100015e8:	68db      	ldr	r3, [r3, #12]
100015ea:	4798      	blx	r3
100015ec:	2800      	cmp	r0, #0
100015ee:	d106      	bne.n	100015fe <_ZN11ST7735_pico13drawFastHLineEssst+0x86>
100015f0:	2380      	movs	r3, #128	; 0x80
100015f2:	5ce2      	ldrb	r2, [r4, r3]
100015f4:	3b7f      	subs	r3, #127	; 0x7f
100015f6:	4093      	lsls	r3, r2
100015f8:	22d0      	movs	r2, #208	; 0xd0
100015fa:	0612      	lsls	r2, r2, #24
100015fc:	6193      	str	r3, [r2, #24]
100015fe:	b2b3      	uxth	r3, r6
10001600:	9303      	str	r3, [sp, #12]
10001602:	7a63      	ldrb	r3, [r4, #9]
10001604:	2b00      	cmp	r3, #0
10001606:	d000      	beq.n	1000160a <_ZN11ST7735_pico13drawFastHLineEssst+0x92>
10001608:	e143      	b.n	10001892 <_ZN11ST7735_pico13drawFastHLineEssst+0x31a>
1000160a:	2381      	movs	r3, #129	; 0x81
1000160c:	5ce2      	ldrb	r2, [r4, r3]
1000160e:	3b80      	subs	r3, #128	; 0x80
10001610:	4093      	lsls	r3, r2
10001612:	22d0      	movs	r2, #208	; 0xd0
10001614:	0612      	lsls	r2, r2, #24
10001616:	6193      	str	r3, [r2, #24]
10001618:	212a      	movs	r1, #42	; 0x2a
1000161a:	6860      	ldr	r0, [r4, #4]
1000161c:	f7fe ffc6 	bl	100005ac <_ZN3SPI5writeEh>
10001620:	2376      	movs	r3, #118	; 0x76
10001622:	5ae3      	ldrh	r3, [r4, r3]
10001624:	18fb      	adds	r3, r7, r3
10001626:	b29b      	uxth	r3, r3
10001628:	469a      	mov	sl, r3
1000162a:	7a63      	ldrb	r3, [r4, #9]
1000162c:	2b00      	cmp	r3, #0
1000162e:	d100      	bne.n	10001632 <_ZN11ST7735_pico13drawFastHLineEssst+0xba>
10001630:	e119      	b.n	10001866 <_ZN11ST7735_pico13drawFastHLineEssst+0x2ee>
10001632:	2381      	movs	r3, #129	; 0x81
10001634:	5ce2      	ldrb	r2, [r4, r3]
10001636:	3b80      	subs	r3, #128	; 0x80
10001638:	4093      	lsls	r3, r2
1000163a:	22d0      	movs	r2, #208	; 0xd0
1000163c:	0612      	lsls	r2, r2, #24
1000163e:	6153      	str	r3, [r2, #20]
10001640:	4651      	mov	r1, sl
10001642:	6860      	ldr	r0, [r4, #4]
10001644:	f7fe ffbe 	bl	100005c4 <_ZN3SPI7write16Et>
10001648:	2376      	movs	r3, #118	; 0x76
1000164a:	5ae3      	ldrh	r3, [r4, r3]
1000164c:	3b01      	subs	r3, #1
1000164e:	18ff      	adds	r7, r7, r3
10001650:	9b03      	ldr	r3, [sp, #12]
10001652:	469c      	mov	ip, r3
10001654:	7a63      	ldrb	r3, [r4, #9]
10001656:	4467      	add	r7, ip
10001658:	b2bf      	uxth	r7, r7
1000165a:	2b00      	cmp	r3, #0
1000165c:	d100      	bne.n	10001660 <_ZN11ST7735_pico13drawFastHLineEssst+0xe8>
1000165e:	e0ec      	b.n	1000183a <_ZN11ST7735_pico13drawFastHLineEssst+0x2c2>
10001660:	2381      	movs	r3, #129	; 0x81
10001662:	5ce2      	ldrb	r2, [r4, r3]
10001664:	3b80      	subs	r3, #128	; 0x80
10001666:	4093      	lsls	r3, r2
10001668:	22d0      	movs	r2, #208	; 0xd0
1000166a:	0612      	lsls	r2, r2, #24
1000166c:	6153      	str	r3, [r2, #20]
1000166e:	0039      	movs	r1, r7
10001670:	6860      	ldr	r0, [r4, #4]
10001672:	f7fe ffa7 	bl	100005c4 <_ZN3SPI7write16Et>
10001676:	7a63      	ldrb	r3, [r4, #9]
10001678:	2b00      	cmp	r3, #0
1000167a:	d000      	beq.n	1000167e <_ZN11ST7735_pico13drawFastHLineEssst+0x106>
1000167c:	e0c8      	b.n	10001810 <_ZN11ST7735_pico13drawFastHLineEssst+0x298>
1000167e:	2381      	movs	r3, #129	; 0x81
10001680:	5ce2      	ldrb	r2, [r4, r3]
10001682:	3b80      	subs	r3, #128	; 0x80
10001684:	4093      	lsls	r3, r2
10001686:	22d0      	movs	r2, #208	; 0xd0
10001688:	0612      	lsls	r2, r2, #24
1000168a:	6193      	str	r3, [r2, #24]
1000168c:	212b      	movs	r1, #43	; 0x2b
1000168e:	6860      	ldr	r0, [r4, #4]
10001690:	f7fe ff8c 	bl	100005ac <_ZN3SPI5writeEh>
10001694:	2378      	movs	r3, #120	; 0x78
10001696:	5ae7      	ldrh	r7, [r4, r3]
10001698:	7a63      	ldrb	r3, [r4, #9]
1000169a:	444f      	add	r7, r9
1000169c:	b2bf      	uxth	r7, r7
1000169e:	2b00      	cmp	r3, #0
100016a0:	d100      	bne.n	100016a4 <_ZN11ST7735_pico13drawFastHLineEssst+0x12c>
100016a2:	e08a      	b.n	100017ba <_ZN11ST7735_pico13drawFastHLineEssst+0x242>
100016a4:	2381      	movs	r3, #129	; 0x81
100016a6:	5ce2      	ldrb	r2, [r4, r3]
100016a8:	3b80      	subs	r3, #128	; 0x80
100016aa:	4093      	lsls	r3, r2
100016ac:	22d0      	movs	r2, #208	; 0xd0
100016ae:	0612      	lsls	r2, r2, #24
100016b0:	0039      	movs	r1, r7
100016b2:	6153      	str	r3, [r2, #20]
100016b4:	6860      	ldr	r0, [r4, #4]
100016b6:	f7fe ff85 	bl	100005c4 <_ZN3SPI7write16Et>
100016ba:	2378      	movs	r3, #120	; 0x78
100016bc:	5ae1      	ldrh	r1, [r4, r3]
100016be:	7a63      	ldrb	r3, [r4, #9]
100016c0:	4449      	add	r1, r9
100016c2:	b28f      	uxth	r7, r1
100016c4:	2b00      	cmp	r3, #0
100016c6:	d062      	beq.n	1000178e <_ZN11ST7735_pico13drawFastHLineEssst+0x216>
100016c8:	2381      	movs	r3, #129	; 0x81
100016ca:	5ce2      	ldrb	r2, [r4, r3]
100016cc:	3b80      	subs	r3, #128	; 0x80
100016ce:	4093      	lsls	r3, r2
100016d0:	22d0      	movs	r2, #208	; 0xd0
100016d2:	0612      	lsls	r2, r2, #24
100016d4:	6153      	str	r3, [r2, #20]
100016d6:	0039      	movs	r1, r7
100016d8:	6860      	ldr	r0, [r4, #4]
100016da:	f7fe ff73 	bl	100005c4 <_ZN3SPI7write16Et>
100016de:	7a63      	ldrb	r3, [r4, #9]
100016e0:	2b00      	cmp	r3, #0
100016e2:	d000      	beq.n	100016e6 <_ZN11ST7735_pico13drawFastHLineEssst+0x16e>
100016e4:	e07f      	b.n	100017e6 <_ZN11ST7735_pico13drawFastHLineEssst+0x26e>
100016e6:	2381      	movs	r3, #129	; 0x81
100016e8:	5ce2      	ldrb	r2, [r4, r3]
100016ea:	3b80      	subs	r3, #128	; 0x80
100016ec:	4093      	lsls	r3, r2
100016ee:	22d0      	movs	r2, #208	; 0xd0
100016f0:	0612      	lsls	r2, r2, #24
100016f2:	6193      	str	r3, [r2, #24]
100016f4:	212c      	movs	r1, #44	; 0x2c
100016f6:	6860      	ldr	r0, [r4, #4]
100016f8:	4691      	mov	r9, r2
100016fa:	f7fe ff57 	bl	100005ac <_ZN3SPI5writeEh>
100016fe:	2381      	movs	r3, #129	; 0x81
10001700:	2701      	movs	r7, #1
10001702:	469a      	mov	sl, r3
10001704:	2e01      	cmp	r6, #1
10001706:	d026      	beq.n	10001756 <_ZN11ST7735_pico13drawFastHLineEssst+0x1de>
10001708:	4646      	mov	r6, r8
1000170a:	9d03      	ldr	r5, [sp, #12]
1000170c:	e00e      	b.n	1000172c <_ZN11ST7735_pico13drawFastHLineEssst+0x1b4>
1000170e:	4653      	mov	r3, sl
10001710:	003a      	movs	r2, r7
10001712:	5ce3      	ldrb	r3, [r4, r3]
10001714:	3d01      	subs	r5, #1
10001716:	409a      	lsls	r2, r3
10001718:	0013      	movs	r3, r2
1000171a:	464a      	mov	r2, r9
1000171c:	0031      	movs	r1, r6
1000171e:	6860      	ldr	r0, [r4, #4]
10001720:	6153      	str	r3, [r2, #20]
10001722:	b2ad      	uxth	r5, r5
10001724:	f7fe ff4e 	bl	100005c4 <_ZN3SPI7write16Et>
10001728:	2d01      	cmp	r5, #1
1000172a:	d913      	bls.n	10001754 <_ZN11ST7735_pico13drawFastHLineEssst+0x1dc>
1000172c:	7a63      	ldrb	r3, [r4, #9]
1000172e:	2b00      	cmp	r3, #0
10001730:	d1ed      	bne.n	1000170e <_ZN11ST7735_pico13drawFastHLineEssst+0x196>
10001732:	6860      	ldr	r0, [r4, #4]
10001734:	6803      	ldr	r3, [r0, #0]
10001736:	691b      	ldr	r3, [r3, #16]
10001738:	4798      	blx	r3
1000173a:	2800      	cmp	r0, #0
1000173c:	d1f9      	bne.n	10001732 <_ZN11ST7735_pico13drawFastHLineEssst+0x1ba>
1000173e:	6860      	ldr	r0, [r4, #4]
10001740:	2200      	movs	r2, #0
10001742:	6803      	ldr	r3, [r0, #0]
10001744:	9700      	str	r7, [sp, #0]
10001746:	695b      	ldr	r3, [r3, #20]
10001748:	2110      	movs	r1, #16
1000174a:	4698      	mov	r8, r3
1000174c:	2300      	movs	r3, #0
1000174e:	47c0      	blx	r8
10001750:	7267      	strb	r7, [r4, #9]
10001752:	e7dc      	b.n	1000170e <_ZN11ST7735_pico13drawFastHLineEssst+0x196>
10001754:	46b0      	mov	r8, r6
10001756:	0020      	movs	r0, r4
10001758:	4641      	mov	r1, r8
1000175a:	f7ff fa3d 	bl	10000bd8 <_ZN11ST7735_pico16writedata16_lastEt>
1000175e:	6860      	ldr	r0, [r4, #4]
10001760:	6803      	ldr	r3, [r0, #0]
10001762:	68db      	ldr	r3, [r3, #12]
10001764:	4798      	blx	r3
10001766:	2800      	cmp	r0, #0
10001768:	d009      	beq.n	1000177e <_ZN11ST7735_pico13drawFastHLineEssst+0x206>
1000176a:	b005      	add	sp, #20
1000176c:	bcf0      	pop	{r4, r5, r6, r7}
1000176e:	46bb      	mov	fp, r7
10001770:	46b2      	mov	sl, r6
10001772:	46a9      	mov	r9, r5
10001774:	46a0      	mov	r8, r4
10001776:	bdf0      	pop	{r4, r5, r6, r7, pc}
10001778:	1bc6      	subs	r6, r0, r7
1000177a:	b236      	sxth	r6, r6
1000177c:	e72f      	b.n	100015de <_ZN11ST7735_pico13drawFastHLineEssst+0x66>
1000177e:	2380      	movs	r3, #128	; 0x80
10001780:	5ce2      	ldrb	r2, [r4, r3]
10001782:	3b7f      	subs	r3, #127	; 0x7f
10001784:	4093      	lsls	r3, r2
10001786:	22d0      	movs	r2, #208	; 0xd0
10001788:	0612      	lsls	r2, r2, #24
1000178a:	6153      	str	r3, [r2, #20]
1000178c:	e7ed      	b.n	1000176a <_ZN11ST7735_pico13drawFastHLineEssst+0x1f2>
1000178e:	9d03      	ldr	r5, [sp, #12]
10001790:	6860      	ldr	r0, [r4, #4]
10001792:	6803      	ldr	r3, [r0, #0]
10001794:	691b      	ldr	r3, [r3, #16]
10001796:	4798      	blx	r3
10001798:	2800      	cmp	r0, #0
1000179a:	d1f9      	bne.n	10001790 <_ZN11ST7735_pico13drawFastHLineEssst+0x218>
1000179c:	2201      	movs	r2, #1
1000179e:	4691      	mov	r9, r2
100017a0:	6860      	ldr	r0, [r4, #4]
100017a2:	2110      	movs	r1, #16
100017a4:	6803      	ldr	r3, [r0, #0]
100017a6:	9200      	str	r2, [sp, #0]
100017a8:	695b      	ldr	r3, [r3, #20]
100017aa:	2200      	movs	r2, #0
100017ac:	469a      	mov	sl, r3
100017ae:	9503      	str	r5, [sp, #12]
100017b0:	2300      	movs	r3, #0
100017b2:	47d0      	blx	sl
100017b4:	464b      	mov	r3, r9
100017b6:	7263      	strb	r3, [r4, #9]
100017b8:	e786      	b.n	100016c8 <_ZN11ST7735_pico13drawFastHLineEssst+0x150>
100017ba:	9d03      	ldr	r5, [sp, #12]
100017bc:	6860      	ldr	r0, [r4, #4]
100017be:	6803      	ldr	r3, [r0, #0]
100017c0:	691b      	ldr	r3, [r3, #16]
100017c2:	4798      	blx	r3
100017c4:	2800      	cmp	r0, #0
100017c6:	d1f9      	bne.n	100017bc <_ZN11ST7735_pico13drawFastHLineEssst+0x244>
100017c8:	2201      	movs	r2, #1
100017ca:	4692      	mov	sl, r2
100017cc:	6860      	ldr	r0, [r4, #4]
100017ce:	2110      	movs	r1, #16
100017d0:	6803      	ldr	r3, [r0, #0]
100017d2:	9200      	str	r2, [sp, #0]
100017d4:	695b      	ldr	r3, [r3, #20]
100017d6:	2200      	movs	r2, #0
100017d8:	469b      	mov	fp, r3
100017da:	9503      	str	r5, [sp, #12]
100017dc:	2300      	movs	r3, #0
100017de:	47d8      	blx	fp
100017e0:	4653      	mov	r3, sl
100017e2:	7263      	strb	r3, [r4, #9]
100017e4:	e75e      	b.n	100016a4 <_ZN11ST7735_pico13drawFastHLineEssst+0x12c>
100017e6:	9d03      	ldr	r5, [sp, #12]
100017e8:	6860      	ldr	r0, [r4, #4]
100017ea:	6803      	ldr	r3, [r0, #0]
100017ec:	691b      	ldr	r3, [r3, #16]
100017ee:	4798      	blx	r3
100017f0:	2800      	cmp	r0, #0
100017f2:	d1f9      	bne.n	100017e8 <_ZN11ST7735_pico13drawFastHLineEssst+0x270>
100017f4:	2201      	movs	r2, #1
100017f6:	0007      	movs	r7, r0
100017f8:	6860      	ldr	r0, [r4, #4]
100017fa:	2108      	movs	r1, #8
100017fc:	6803      	ldr	r3, [r0, #0]
100017fe:	9200      	str	r2, [sp, #0]
10001800:	695b      	ldr	r3, [r3, #20]
10001802:	2200      	movs	r2, #0
10001804:	4699      	mov	r9, r3
10001806:	9503      	str	r5, [sp, #12]
10001808:	2300      	movs	r3, #0
1000180a:	47c8      	blx	r9
1000180c:	7267      	strb	r7, [r4, #9]
1000180e:	e76a      	b.n	100016e6 <_ZN11ST7735_pico13drawFastHLineEssst+0x16e>
10001810:	9d03      	ldr	r5, [sp, #12]
10001812:	6860      	ldr	r0, [r4, #4]
10001814:	6803      	ldr	r3, [r0, #0]
10001816:	691b      	ldr	r3, [r3, #16]
10001818:	4798      	blx	r3
1000181a:	2800      	cmp	r0, #0
1000181c:	d1f9      	bne.n	10001812 <_ZN11ST7735_pico13drawFastHLineEssst+0x29a>
1000181e:	2201      	movs	r2, #1
10001820:	0007      	movs	r7, r0
10001822:	6860      	ldr	r0, [r4, #4]
10001824:	2108      	movs	r1, #8
10001826:	6803      	ldr	r3, [r0, #0]
10001828:	9200      	str	r2, [sp, #0]
1000182a:	695b      	ldr	r3, [r3, #20]
1000182c:	2200      	movs	r2, #0
1000182e:	469a      	mov	sl, r3
10001830:	9503      	str	r5, [sp, #12]
10001832:	2300      	movs	r3, #0
10001834:	47d0      	blx	sl
10001836:	7267      	strb	r7, [r4, #9]
10001838:	e721      	b.n	1000167e <_ZN11ST7735_pico13drawFastHLineEssst+0x106>
1000183a:	4665      	mov	r5, ip
1000183c:	6860      	ldr	r0, [r4, #4]
1000183e:	6803      	ldr	r3, [r0, #0]
10001840:	691b      	ldr	r3, [r3, #16]
10001842:	4798      	blx	r3
10001844:	2800      	cmp	r0, #0
10001846:	d1f9      	bne.n	1000183c <_ZN11ST7735_pico13drawFastHLineEssst+0x2c4>
10001848:	2201      	movs	r2, #1
1000184a:	4692      	mov	sl, r2
1000184c:	6860      	ldr	r0, [r4, #4]
1000184e:	2110      	movs	r1, #16
10001850:	6803      	ldr	r3, [r0, #0]
10001852:	9200      	str	r2, [sp, #0]
10001854:	695b      	ldr	r3, [r3, #20]
10001856:	2200      	movs	r2, #0
10001858:	469b      	mov	fp, r3
1000185a:	9503      	str	r5, [sp, #12]
1000185c:	2300      	movs	r3, #0
1000185e:	47d8      	blx	fp
10001860:	4653      	mov	r3, sl
10001862:	7263      	strb	r3, [r4, #9]
10001864:	e6fc      	b.n	10001660 <_ZN11ST7735_pico13drawFastHLineEssst+0xe8>
10001866:	9d03      	ldr	r5, [sp, #12]
10001868:	6860      	ldr	r0, [r4, #4]
1000186a:	6803      	ldr	r3, [r0, #0]
1000186c:	691b      	ldr	r3, [r3, #16]
1000186e:	4798      	blx	r3
10001870:	2800      	cmp	r0, #0
10001872:	d1f9      	bne.n	10001868 <_ZN11ST7735_pico13drawFastHLineEssst+0x2f0>
10001874:	2201      	movs	r2, #1
10001876:	4693      	mov	fp, r2
10001878:	6860      	ldr	r0, [r4, #4]
1000187a:	9503      	str	r5, [sp, #12]
1000187c:	6803      	ldr	r3, [r0, #0]
1000187e:	9200      	str	r2, [sp, #0]
10001880:	695b      	ldr	r3, [r3, #20]
10001882:	2200      	movs	r2, #0
10001884:	001d      	movs	r5, r3
10001886:	2110      	movs	r1, #16
10001888:	2300      	movs	r3, #0
1000188a:	47a8      	blx	r5
1000188c:	465b      	mov	r3, fp
1000188e:	7263      	strb	r3, [r4, #9]
10001890:	e6cf      	b.n	10001632 <_ZN11ST7735_pico13drawFastHLineEssst+0xba>
10001892:	b2b5      	uxth	r5, r6
10001894:	6860      	ldr	r0, [r4, #4]
10001896:	6803      	ldr	r3, [r0, #0]
10001898:	691b      	ldr	r3, [r3, #16]
1000189a:	4798      	blx	r3
1000189c:	2800      	cmp	r0, #0
1000189e:	d1f9      	bne.n	10001894 <_ZN11ST7735_pico13drawFastHLineEssst+0x31c>
100018a0:	2201      	movs	r2, #1
100018a2:	4682      	mov	sl, r0
100018a4:	6860      	ldr	r0, [r4, #4]
100018a6:	2108      	movs	r1, #8
100018a8:	6803      	ldr	r3, [r0, #0]
100018aa:	9200      	str	r2, [sp, #0]
100018ac:	695b      	ldr	r3, [r3, #20]
100018ae:	2200      	movs	r2, #0
100018b0:	469b      	mov	fp, r3
100018b2:	9503      	str	r5, [sp, #12]
100018b4:	2300      	movs	r3, #0
100018b6:	47d8      	blx	fp
100018b8:	4653      	mov	r3, sl
100018ba:	7263      	strb	r3, [r4, #9]
100018bc:	e6a5      	b.n	1000160a <_ZN11ST7735_pico13drawFastHLineEssst+0x92>
100018be:	46c0      	nop			; (mov r8, r8)

100018c0 <_ZN11ST7735_pico8fillRectEsssst>:
100018c0:	b5f0      	push	{r4, r5, r6, r7, lr}
100018c2:	4645      	mov	r5, r8
100018c4:	46de      	mov	lr, fp
100018c6:	4657      	mov	r7, sl
100018c8:	464e      	mov	r6, r9
100018ca:	0004      	movs	r4, r0
100018cc:	b5e0      	push	{r5, r6, r7, lr}
100018ce:	b087      	sub	sp, #28
100018d0:	001f      	movs	r7, r3
100018d2:	ab10      	add	r3, sp, #64	; 0x40
100018d4:	2500      	movs	r5, #0
100018d6:	5f58      	ldrsh	r0, [r3, r5]
100018d8:	ab11      	add	r3, sp, #68	; 0x44
100018da:	881b      	ldrh	r3, [r3, #0]
100018dc:	4683      	mov	fp, r0
100018de:	9304      	str	r3, [sp, #16]
100018e0:	8b23      	ldrh	r3, [r4, #24]
100018e2:	185b      	adds	r3, r3, r1
100018e4:	2020      	movs	r0, #32
100018e6:	5e21      	ldrsh	r1, [r4, r0]
100018e8:	b29d      	uxth	r5, r3
100018ea:	b21b      	sxth	r3, r3
100018ec:	4299      	cmp	r1, r3
100018ee:	dc00      	bgt.n	100018f2 <_ZN11ST7735_pico8fillRectEsssst+0x32>
100018f0:	e114      	b.n	10001b1c <_ZN11ST7735_pico8fillRectEsssst+0x25c>
100018f2:	8b60      	ldrh	r0, [r4, #26]
100018f4:	1882      	adds	r2, r0, r2
100018f6:	b290      	uxth	r0, r2
100018f8:	4682      	mov	sl, r0
100018fa:	2622      	movs	r6, #34	; 0x22
100018fc:	5fa0      	ldrsh	r0, [r4, r6]
100018fe:	b212      	sxth	r2, r2
10001900:	9005      	str	r0, [sp, #20]
10001902:	4290      	cmp	r0, r2
10001904:	dc00      	bgt.n	10001908 <_ZN11ST7735_pico8fillRectEsssst+0x48>
10001906:	e109      	b.n	10001b1c <_ZN11ST7735_pico8fillRectEsssst+0x25c>
10001908:	46bc      	mov	ip, r7
1000190a:	9703      	str	r7, [sp, #12]
1000190c:	271c      	movs	r7, #28
1000190e:	5fe6      	ldrsh	r6, [r4, r7]
10001910:	449c      	add	ip, r3
10001912:	45b4      	cmp	ip, r6
10001914:	dc00      	bgt.n	10001918 <_ZN11ST7735_pico8fillRectEsssst+0x58>
10001916:	e101      	b.n	10001b1c <_ZN11ST7735_pico8fillRectEsssst+0x25c>
10001918:	4691      	mov	r9, r2
1000191a:	201e      	movs	r0, #30
1000191c:	5e27      	ldrsh	r7, [r4, r0]
1000191e:	44d9      	add	r9, fp
10001920:	46b8      	mov	r8, r7
10001922:	45b9      	cmp	r9, r7
10001924:	dc00      	bgt.n	10001928 <_ZN11ST7735_pico8fillRectEsssst+0x68>
10001926:	e0f9      	b.n	10001b1c <_ZN11ST7735_pico8fillRectEsssst+0x25c>
10001928:	429e      	cmp	r6, r3
1000192a:	dd09      	ble.n	10001940 <_ZN11ST7735_pico8fillRectEsssst+0x80>
1000192c:	b2b3      	uxth	r3, r6
1000192e:	1ae8      	subs	r0, r5, r3
10001930:	9d03      	ldr	r5, [sp, #12]
10001932:	46ac      	mov	ip, r5
10001934:	4460      	add	r0, ip
10001936:	b200      	sxth	r0, r0
10001938:	4684      	mov	ip, r0
1000193a:	001d      	movs	r5, r3
1000193c:	9003      	str	r0, [sp, #12]
1000193e:	44b4      	add	ip, r6
10001940:	4590      	cmp	r8, r2
10001942:	dd09      	ble.n	10001958 <_ZN11ST7735_pico8fillRectEsssst+0x98>
10001944:	4643      	mov	r3, r8
10001946:	b29a      	uxth	r2, r3
10001948:	4653      	mov	r3, sl
1000194a:	1a9b      	subs	r3, r3, r2
1000194c:	445b      	add	r3, fp
1000194e:	b21b      	sxth	r3, r3
10001950:	469b      	mov	fp, r3
10001952:	44d8      	add	r8, fp
10001954:	46c1      	mov	r9, r8
10001956:	4692      	mov	sl, r2
10001958:	4561      	cmp	r1, ip
1000195a:	da00      	bge.n	1000195e <_ZN11ST7735_pico8fillRectEsssst+0x9e>
1000195c:	e0ed      	b.n	10001b3a <_ZN11ST7735_pico8fillRectEsssst+0x27a>
1000195e:	466b      	mov	r3, sp
10001960:	899b      	ldrh	r3, [r3, #12]
10001962:	4698      	mov	r8, r3
10001964:	9b05      	ldr	r3, [sp, #20]
10001966:	454b      	cmp	r3, r9
10001968:	da00      	bge.n	1000196c <_ZN11ST7735_pico8fillRectEsssst+0xac>
1000196a:	e0de      	b.n	10001b2a <_ZN11ST7735_pico8fillRectEsssst+0x26a>
1000196c:	465b      	mov	r3, fp
1000196e:	b29b      	uxth	r3, r3
10001970:	4699      	mov	r9, r3
10001972:	6860      	ldr	r0, [r4, #4]
10001974:	6803      	ldr	r3, [r0, #0]
10001976:	68db      	ldr	r3, [r3, #12]
10001978:	4798      	blx	r3
1000197a:	2800      	cmp	r0, #0
1000197c:	d106      	bne.n	1000198c <_ZN11ST7735_pico8fillRectEsssst+0xcc>
1000197e:	2380      	movs	r3, #128	; 0x80
10001980:	5ce2      	ldrb	r2, [r4, r3]
10001982:	3b7f      	subs	r3, #127	; 0x7f
10001984:	4093      	lsls	r3, r2
10001986:	22d0      	movs	r2, #208	; 0xd0
10001988:	0612      	lsls	r2, r2, #24
1000198a:	6193      	str	r3, [r2, #24]
1000198c:	7a63      	ldrb	r3, [r4, #9]
1000198e:	2b00      	cmp	r3, #0
10001990:	d000      	beq.n	10001994 <_ZN11ST7735_pico8fillRectEsssst+0xd4>
10001992:	e101      	b.n	10001b98 <_ZN11ST7735_pico8fillRectEsssst+0x2d8>
10001994:	2381      	movs	r3, #129	; 0x81
10001996:	5ce2      	ldrb	r2, [r4, r3]
10001998:	3b80      	subs	r3, #128	; 0x80
1000199a:	4093      	lsls	r3, r2
1000199c:	22d0      	movs	r2, #208	; 0xd0
1000199e:	0612      	lsls	r2, r2, #24
100019a0:	6193      	str	r3, [r2, #24]
100019a2:	212a      	movs	r1, #42	; 0x2a
100019a4:	6860      	ldr	r0, [r4, #4]
100019a6:	f7fe fe01 	bl	100005ac <_ZN3SPI5writeEh>
100019aa:	2376      	movs	r3, #118	; 0x76
100019ac:	5ae6      	ldrh	r6, [r4, r3]
100019ae:	7a63      	ldrb	r3, [r4, #9]
100019b0:	19ae      	adds	r6, r5, r6
100019b2:	b2b6      	uxth	r6, r6
100019b4:	2b00      	cmp	r3, #0
100019b6:	d100      	bne.n	100019ba <_ZN11ST7735_pico8fillRectEsssst+0xfa>
100019b8:	e0d9      	b.n	10001b6e <_ZN11ST7735_pico8fillRectEsssst+0x2ae>
100019ba:	2381      	movs	r3, #129	; 0x81
100019bc:	5ce2      	ldrb	r2, [r4, r3]
100019be:	3b80      	subs	r3, #128	; 0x80
100019c0:	4093      	lsls	r3, r2
100019c2:	22d0      	movs	r2, #208	; 0xd0
100019c4:	0612      	lsls	r2, r2, #24
100019c6:	6153      	str	r3, [r2, #20]
100019c8:	0031      	movs	r1, r6
100019ca:	6860      	ldr	r0, [r4, #4]
100019cc:	f7fe fdfa 	bl	100005c4 <_ZN3SPI7write16Et>
100019d0:	2376      	movs	r3, #118	; 0x76
100019d2:	5ae3      	ldrh	r3, [r4, r3]
100019d4:	3b01      	subs	r3, #1
100019d6:	18ed      	adds	r5, r5, r3
100019d8:	7a63      	ldrb	r3, [r4, #9]
100019da:	4445      	add	r5, r8
100019dc:	b2ad      	uxth	r5, r5
100019de:	2b00      	cmp	r3, #0
100019e0:	d100      	bne.n	100019e4 <_ZN11ST7735_pico8fillRectEsssst+0x124>
100019e2:	e12a      	b.n	10001c3a <_ZN11ST7735_pico8fillRectEsssst+0x37a>
100019e4:	2381      	movs	r3, #129	; 0x81
100019e6:	5ce2      	ldrb	r2, [r4, r3]
100019e8:	3b80      	subs	r3, #128	; 0x80
100019ea:	4093      	lsls	r3, r2
100019ec:	22d0      	movs	r2, #208	; 0xd0
100019ee:	0612      	lsls	r2, r2, #24
100019f0:	6153      	str	r3, [r2, #20]
100019f2:	0029      	movs	r1, r5
100019f4:	6860      	ldr	r0, [r4, #4]
100019f6:	f7fe fde5 	bl	100005c4 <_ZN3SPI7write16Et>
100019fa:	7a63      	ldrb	r3, [r4, #9]
100019fc:	2b00      	cmp	r3, #0
100019fe:	d000      	beq.n	10001a02 <_ZN11ST7735_pico8fillRectEsssst+0x142>
10001a00:	e107      	b.n	10001c12 <_ZN11ST7735_pico8fillRectEsssst+0x352>
10001a02:	2381      	movs	r3, #129	; 0x81
10001a04:	5ce2      	ldrb	r2, [r4, r3]
10001a06:	3b80      	subs	r3, #128	; 0x80
10001a08:	4093      	lsls	r3, r2
10001a0a:	22d0      	movs	r2, #208	; 0xd0
10001a0c:	0612      	lsls	r2, r2, #24
10001a0e:	6193      	str	r3, [r2, #24]
10001a10:	212b      	movs	r1, #43	; 0x2b
10001a12:	6860      	ldr	r0, [r4, #4]
10001a14:	f7fe fdca 	bl	100005ac <_ZN3SPI5writeEh>
10001a18:	2378      	movs	r3, #120	; 0x78
10001a1a:	5ae5      	ldrh	r5, [r4, r3]
10001a1c:	7a63      	ldrb	r3, [r4, #9]
10001a1e:	4455      	add	r5, sl
10001a20:	b2ad      	uxth	r5, r5
10001a22:	2b00      	cmp	r3, #0
10001a24:	d100      	bne.n	10001a28 <_ZN11ST7735_pico8fillRectEsssst+0x168>
10001a26:	e0e0      	b.n	10001bea <_ZN11ST7735_pico8fillRectEsssst+0x32a>
10001a28:	2381      	movs	r3, #129	; 0x81
10001a2a:	5ce2      	ldrb	r2, [r4, r3]
10001a2c:	3b80      	subs	r3, #128	; 0x80
10001a2e:	4093      	lsls	r3, r2
10001a30:	22d0      	movs	r2, #208	; 0xd0
10001a32:	0612      	lsls	r2, r2, #24
10001a34:	0029      	movs	r1, r5
10001a36:	6153      	str	r3, [r2, #20]
10001a38:	6860      	ldr	r0, [r4, #4]
10001a3a:	f7fe fdc3 	bl	100005c4 <_ZN3SPI7write16Et>
10001a3e:	2378      	movs	r3, #120	; 0x78
10001a40:	5ae3      	ldrh	r3, [r4, r3]
10001a42:	3b01      	subs	r3, #1
10001a44:	4453      	add	r3, sl
10001a46:	444b      	add	r3, r9
10001a48:	b29d      	uxth	r5, r3
10001a4a:	7a63      	ldrb	r3, [r4, #9]
10001a4c:	2b00      	cmp	r3, #0
10001a4e:	d100      	bne.n	10001a52 <_ZN11ST7735_pico8fillRectEsssst+0x192>
10001a50:	e0b7      	b.n	10001bc2 <_ZN11ST7735_pico8fillRectEsssst+0x302>
10001a52:	2381      	movs	r3, #129	; 0x81
10001a54:	5ce2      	ldrb	r2, [r4, r3]
10001a56:	3b80      	subs	r3, #128	; 0x80
10001a58:	4093      	lsls	r3, r2
10001a5a:	22d0      	movs	r2, #208	; 0xd0
10001a5c:	0612      	lsls	r2, r2, #24
10001a5e:	6153      	str	r3, [r2, #20]
10001a60:	0029      	movs	r1, r5
10001a62:	6860      	ldr	r0, [r4, #4]
10001a64:	f7fe fdae 	bl	100005c4 <_ZN3SPI7write16Et>
10001a68:	7a63      	ldrb	r3, [r4, #9]
10001a6a:	2b00      	cmp	r3, #0
10001a6c:	d16b      	bne.n	10001b46 <_ZN11ST7735_pico8fillRectEsssst+0x286>
10001a6e:	2381      	movs	r3, #129	; 0x81
10001a70:	5ce2      	ldrb	r2, [r4, r3]
10001a72:	3b80      	subs	r3, #128	; 0x80
10001a74:	4093      	lsls	r3, r2
10001a76:	22d0      	movs	r2, #208	; 0xd0
10001a78:	0612      	lsls	r2, r2, #24
10001a7a:	6193      	str	r3, [r2, #24]
10001a7c:	212c      	movs	r1, #44	; 0x2c
10001a7e:	6860      	ldr	r0, [r4, #4]
10001a80:	f7fe fd94 	bl	100005ac <_ZN3SPI5writeEh>
10001a84:	465b      	mov	r3, fp
10001a86:	2601      	movs	r6, #1
10001a88:	2b00      	cmp	r3, #0
10001a8a:	dd3a      	ble.n	10001b02 <_ZN11ST7735_pico8fillRectEsssst+0x242>
10001a8c:	9f04      	ldr	r7, [sp, #16]
10001a8e:	9b03      	ldr	r3, [sp, #12]
10001a90:	001d      	movs	r5, r3
10001a92:	2b01      	cmp	r3, #1
10001a94:	dd2a      	ble.n	10001aec <_ZN11ST7735_pico8fillRectEsssst+0x22c>
10001a96:	2381      	movs	r3, #129	; 0x81
10001a98:	4699      	mov	r9, r3
10001a9a:	23d0      	movs	r3, #208	; 0xd0
10001a9c:	061b      	lsls	r3, r3, #24
10001a9e:	4698      	mov	r8, r3
10001aa0:	e00f      	b.n	10001ac2 <_ZN11ST7735_pico8fillRectEsssst+0x202>
10001aa2:	464b      	mov	r3, r9
10001aa4:	0032      	movs	r2, r6
10001aa6:	5ce3      	ldrb	r3, [r4, r3]
10001aa8:	3d01      	subs	r5, #1
10001aaa:	409a      	lsls	r2, r3
10001aac:	0013      	movs	r3, r2
10001aae:	4642      	mov	r2, r8
10001ab0:	0039      	movs	r1, r7
10001ab2:	6153      	str	r3, [r2, #20]
10001ab4:	6860      	ldr	r0, [r4, #4]
10001ab6:	f7fe fd85 	bl	100005c4 <_ZN3SPI7write16Et>
10001aba:	b2ab      	uxth	r3, r5
10001abc:	b22d      	sxth	r5, r5
10001abe:	2b01      	cmp	r3, #1
10001ac0:	d014      	beq.n	10001aec <_ZN11ST7735_pico8fillRectEsssst+0x22c>
10001ac2:	7a63      	ldrb	r3, [r4, #9]
10001ac4:	2b00      	cmp	r3, #0
10001ac6:	d1ec      	bne.n	10001aa2 <_ZN11ST7735_pico8fillRectEsssst+0x1e2>
10001ac8:	6860      	ldr	r0, [r4, #4]
10001aca:	6803      	ldr	r3, [r0, #0]
10001acc:	691b      	ldr	r3, [r3, #16]
10001ace:	4798      	blx	r3
10001ad0:	2800      	cmp	r0, #0
10001ad2:	d1f9      	bne.n	10001ac8 <_ZN11ST7735_pico8fillRectEsssst+0x208>
10001ad4:	2201      	movs	r2, #1
10001ad6:	6860      	ldr	r0, [r4, #4]
10001ad8:	2110      	movs	r1, #16
10001ada:	6803      	ldr	r3, [r0, #0]
10001adc:	9200      	str	r2, [sp, #0]
10001ade:	695b      	ldr	r3, [r3, #20]
10001ae0:	2200      	movs	r2, #0
10001ae2:	469a      	mov	sl, r3
10001ae4:	2300      	movs	r3, #0
10001ae6:	47d0      	blx	sl
10001ae8:	7266      	strb	r6, [r4, #9]
10001aea:	e7da      	b.n	10001aa2 <_ZN11ST7735_pico8fillRectEsssst+0x1e2>
10001aec:	0039      	movs	r1, r7
10001aee:	0020      	movs	r0, r4
10001af0:	f7ff f872 	bl	10000bd8 <_ZN11ST7735_pico16writedata16_lastEt>
10001af4:	465b      	mov	r3, fp
10001af6:	3b01      	subs	r3, #1
10001af8:	b29a      	uxth	r2, r3
10001afa:	b21b      	sxth	r3, r3
10001afc:	469b      	mov	fp, r3
10001afe:	2a00      	cmp	r2, #0
10001b00:	d1c5      	bne.n	10001a8e <_ZN11ST7735_pico8fillRectEsssst+0x1ce>
10001b02:	6860      	ldr	r0, [r4, #4]
10001b04:	6803      	ldr	r3, [r0, #0]
10001b06:	68db      	ldr	r3, [r3, #12]
10001b08:	4798      	blx	r3
10001b0a:	2800      	cmp	r0, #0
10001b0c:	d106      	bne.n	10001b1c <_ZN11ST7735_pico8fillRectEsssst+0x25c>
10001b0e:	2380      	movs	r3, #128	; 0x80
10001b10:	5ce2      	ldrb	r2, [r4, r3]
10001b12:	3b7f      	subs	r3, #127	; 0x7f
10001b14:	4093      	lsls	r3, r2
10001b16:	22d0      	movs	r2, #208	; 0xd0
10001b18:	0612      	lsls	r2, r2, #24
10001b1a:	6153      	str	r3, [r2, #20]
10001b1c:	b007      	add	sp, #28
10001b1e:	bcf0      	pop	{r4, r5, r6, r7}
10001b20:	46bb      	mov	fp, r7
10001b22:	46b2      	mov	sl, r6
10001b24:	46a9      	mov	r9, r5
10001b26:	46a0      	mov	r8, r4
10001b28:	bdf0      	pop	{r4, r5, r6, r7, pc}
10001b2a:	001a      	movs	r2, r3
10001b2c:	4653      	mov	r3, sl
10001b2e:	1ad0      	subs	r0, r2, r3
10001b30:	b283      	uxth	r3, r0
10001b32:	4699      	mov	r9, r3
10001b34:	b203      	sxth	r3, r0
10001b36:	469b      	mov	fp, r3
10001b38:	e71b      	b.n	10001972 <_ZN11ST7735_pico8fillRectEsssst+0xb2>
10001b3a:	1b49      	subs	r1, r1, r5
10001b3c:	b28b      	uxth	r3, r1
10001b3e:	4698      	mov	r8, r3
10001b40:	b20b      	sxth	r3, r1
10001b42:	9303      	str	r3, [sp, #12]
10001b44:	e70e      	b.n	10001964 <_ZN11ST7735_pico8fillRectEsssst+0xa4>
10001b46:	9f04      	ldr	r7, [sp, #16]
10001b48:	6860      	ldr	r0, [r4, #4]
10001b4a:	6803      	ldr	r3, [r0, #0]
10001b4c:	691b      	ldr	r3, [r3, #16]
10001b4e:	4798      	blx	r3
10001b50:	2800      	cmp	r0, #0
10001b52:	d1f9      	bne.n	10001b48 <_ZN11ST7735_pico8fillRectEsssst+0x288>
10001b54:	2201      	movs	r2, #1
10001b56:	0005      	movs	r5, r0
10001b58:	6860      	ldr	r0, [r4, #4]
10001b5a:	2108      	movs	r1, #8
10001b5c:	6803      	ldr	r3, [r0, #0]
10001b5e:	9200      	str	r2, [sp, #0]
10001b60:	695e      	ldr	r6, [r3, #20]
10001b62:	2200      	movs	r2, #0
10001b64:	2300      	movs	r3, #0
10001b66:	9704      	str	r7, [sp, #16]
10001b68:	47b0      	blx	r6
10001b6a:	7265      	strb	r5, [r4, #9]
10001b6c:	e77f      	b.n	10001a6e <_ZN11ST7735_pico8fillRectEsssst+0x1ae>
10001b6e:	9f04      	ldr	r7, [sp, #16]
10001b70:	6860      	ldr	r0, [r4, #4]
10001b72:	6803      	ldr	r3, [r0, #0]
10001b74:	691b      	ldr	r3, [r3, #16]
10001b76:	4798      	blx	r3
10001b78:	2800      	cmp	r0, #0
10001b7a:	d1f9      	bne.n	10001b70 <_ZN11ST7735_pico8fillRectEsssst+0x2b0>
10001b7c:	9704      	str	r7, [sp, #16]
10001b7e:	2701      	movs	r7, #1
10001b80:	6860      	ldr	r0, [r4, #4]
10001b82:	2200      	movs	r2, #0
10001b84:	6803      	ldr	r3, [r0, #0]
10001b86:	9700      	str	r7, [sp, #0]
10001b88:	695b      	ldr	r3, [r3, #20]
10001b8a:	2110      	movs	r1, #16
10001b8c:	001f      	movs	r7, r3
10001b8e:	2300      	movs	r3, #0
10001b90:	47b8      	blx	r7
10001b92:	2701      	movs	r7, #1
10001b94:	7267      	strb	r7, [r4, #9]
10001b96:	e710      	b.n	100019ba <_ZN11ST7735_pico8fillRectEsssst+0xfa>
10001b98:	9f04      	ldr	r7, [sp, #16]
10001b9a:	6860      	ldr	r0, [r4, #4]
10001b9c:	6803      	ldr	r3, [r0, #0]
10001b9e:	691b      	ldr	r3, [r3, #16]
10001ba0:	4798      	blx	r3
10001ba2:	2800      	cmp	r0, #0
10001ba4:	d1f9      	bne.n	10001b9a <_ZN11ST7735_pico8fillRectEsssst+0x2da>
10001ba6:	2201      	movs	r2, #1
10001ba8:	0006      	movs	r6, r0
10001baa:	6860      	ldr	r0, [r4, #4]
10001bac:	9704      	str	r7, [sp, #16]
10001bae:	6803      	ldr	r3, [r0, #0]
10001bb0:	9200      	str	r2, [sp, #0]
10001bb2:	695b      	ldr	r3, [r3, #20]
10001bb4:	2200      	movs	r2, #0
10001bb6:	001f      	movs	r7, r3
10001bb8:	2108      	movs	r1, #8
10001bba:	2300      	movs	r3, #0
10001bbc:	47b8      	blx	r7
10001bbe:	7266      	strb	r6, [r4, #9]
10001bc0:	e6e8      	b.n	10001994 <_ZN11ST7735_pico8fillRectEsssst+0xd4>
10001bc2:	9f04      	ldr	r7, [sp, #16]
10001bc4:	6860      	ldr	r0, [r4, #4]
10001bc6:	6803      	ldr	r3, [r0, #0]
10001bc8:	691b      	ldr	r3, [r3, #16]
10001bca:	4798      	blx	r3
10001bcc:	2800      	cmp	r0, #0
10001bce:	d1f9      	bne.n	10001bc4 <_ZN11ST7735_pico8fillRectEsssst+0x304>
10001bd0:	2601      	movs	r6, #1
10001bd2:	6860      	ldr	r0, [r4, #4]
10001bd4:	2200      	movs	r2, #0
10001bd6:	6803      	ldr	r3, [r0, #0]
10001bd8:	9600      	str	r6, [sp, #0]
10001bda:	695b      	ldr	r3, [r3, #20]
10001bdc:	2110      	movs	r1, #16
10001bde:	4698      	mov	r8, r3
10001be0:	9704      	str	r7, [sp, #16]
10001be2:	2300      	movs	r3, #0
10001be4:	47c0      	blx	r8
10001be6:	7266      	strb	r6, [r4, #9]
10001be8:	e733      	b.n	10001a52 <_ZN11ST7735_pico8fillRectEsssst+0x192>
10001bea:	9f04      	ldr	r7, [sp, #16]
10001bec:	6860      	ldr	r0, [r4, #4]
10001bee:	6803      	ldr	r3, [r0, #0]
10001bf0:	691b      	ldr	r3, [r3, #16]
10001bf2:	4798      	blx	r3
10001bf4:	2800      	cmp	r0, #0
10001bf6:	d1f9      	bne.n	10001bec <_ZN11ST7735_pico8fillRectEsssst+0x32c>
10001bf8:	2601      	movs	r6, #1
10001bfa:	6860      	ldr	r0, [r4, #4]
10001bfc:	2200      	movs	r2, #0
10001bfe:	6803      	ldr	r3, [r0, #0]
10001c00:	9600      	str	r6, [sp, #0]
10001c02:	695b      	ldr	r3, [r3, #20]
10001c04:	2110      	movs	r1, #16
10001c06:	4698      	mov	r8, r3
10001c08:	9704      	str	r7, [sp, #16]
10001c0a:	2300      	movs	r3, #0
10001c0c:	47c0      	blx	r8
10001c0e:	7266      	strb	r6, [r4, #9]
10001c10:	e70a      	b.n	10001a28 <_ZN11ST7735_pico8fillRectEsssst+0x168>
10001c12:	9f04      	ldr	r7, [sp, #16]
10001c14:	6860      	ldr	r0, [r4, #4]
10001c16:	6803      	ldr	r3, [r0, #0]
10001c18:	691b      	ldr	r3, [r3, #16]
10001c1a:	4798      	blx	r3
10001c1c:	2800      	cmp	r0, #0
10001c1e:	d1f9      	bne.n	10001c14 <_ZN11ST7735_pico8fillRectEsssst+0x354>
10001c20:	2201      	movs	r2, #1
10001c22:	0005      	movs	r5, r0
10001c24:	6860      	ldr	r0, [r4, #4]
10001c26:	2108      	movs	r1, #8
10001c28:	6803      	ldr	r3, [r0, #0]
10001c2a:	9200      	str	r2, [sp, #0]
10001c2c:	695e      	ldr	r6, [r3, #20]
10001c2e:	2200      	movs	r2, #0
10001c30:	2300      	movs	r3, #0
10001c32:	9704      	str	r7, [sp, #16]
10001c34:	47b0      	blx	r6
10001c36:	7265      	strb	r5, [r4, #9]
10001c38:	e6e3      	b.n	10001a02 <_ZN11ST7735_pico8fillRectEsssst+0x142>
10001c3a:	9f04      	ldr	r7, [sp, #16]
10001c3c:	6860      	ldr	r0, [r4, #4]
10001c3e:	6803      	ldr	r3, [r0, #0]
10001c40:	691b      	ldr	r3, [r3, #16]
10001c42:	4798      	blx	r3
10001c44:	2800      	cmp	r0, #0
10001c46:	d1f9      	bne.n	10001c3c <_ZN11ST7735_pico8fillRectEsssst+0x37c>
10001c48:	2601      	movs	r6, #1
10001c4a:	6860      	ldr	r0, [r4, #4]
10001c4c:	2200      	movs	r2, #0
10001c4e:	6803      	ldr	r3, [r0, #0]
10001c50:	9600      	str	r6, [sp, #0]
10001c52:	695b      	ldr	r3, [r3, #20]
10001c54:	2110      	movs	r1, #16
10001c56:	4698      	mov	r8, r3
10001c58:	9704      	str	r7, [sp, #16]
10001c5a:	2300      	movs	r3, #0
10001c5c:	47c0      	blx	r8
10001c5e:	7266      	strb	r6, [r4, #9]
10001c60:	e6c0      	b.n	100019e4 <_ZN11ST7735_pico8fillRectEsssst+0x124>
10001c62:	46c0      	nop			; (mov r8, r8)

10001c64 <_ZN11ST7735_pico10fillScreenEt>:
10001c64:	b500      	push	{lr}
10001c66:	b083      	sub	sp, #12
10001c68:	9101      	str	r1, [sp, #4]
10001c6a:	2226      	movs	r2, #38	; 0x26
10001c6c:	5e83      	ldrsh	r3, [r0, r2]
10001c6e:	2128      	movs	r1, #40	; 0x28
10001c70:	5e42      	ldrsh	r2, [r0, r1]
10001c72:	2100      	movs	r1, #0
10001c74:	9200      	str	r2, [sp, #0]
10001c76:	2200      	movs	r2, #0
10001c78:	f7ff fe22 	bl	100018c0 <_ZN11ST7735_pico8fillRectEsssst>
10001c7c:	b003      	add	sp, #12
10001c7e:	bd00      	pop	{pc}

10001c80 <_ZN11ST7735_pico9writeRectEssssPKt>:
10001c80:	b5f0      	push	{r4, r5, r6, r7, lr}
10001c82:	46de      	mov	lr, fp
10001c84:	4657      	mov	r7, sl
10001c86:	464e      	mov	r6, r9
10001c88:	4645      	mov	r5, r8
10001c8a:	0004      	movs	r4, r0
10001c8c:	b5e0      	push	{r5, r6, r7, lr}
10001c8e:	b089      	sub	sp, #36	; 0x24
10001c90:	001e      	movs	r6, r3
10001c92:	ab12      	add	r3, sp, #72	; 0x48
10001c94:	2000      	movs	r0, #0
10001c96:	5e1f      	ldrsh	r7, [r3, r0]
10001c98:	8b23      	ldrh	r3, [r4, #24]
10001c9a:	9703      	str	r7, [sp, #12]
10001c9c:	185b      	adds	r3, r3, r1
10001c9e:	b299      	uxth	r1, r3
10001ca0:	468b      	mov	fp, r1
10001ca2:	2020      	movs	r0, #32
10001ca4:	5e21      	ldrsh	r1, [r4, r0]
10001ca6:	b21b      	sxth	r3, r3
10001ca8:	4299      	cmp	r1, r3
10001caa:	dc00      	bgt.n	10001cae <_ZN11ST7735_pico9writeRectEssssPKt+0x2e>
10001cac:	e13f      	b.n	10001f2e <_ZN11ST7735_pico9writeRectEssssPKt+0x2ae>
10001cae:	8b60      	ldrh	r0, [r4, #26]
10001cb0:	1882      	adds	r2, r0, r2
10001cb2:	b290      	uxth	r0, r2
10001cb4:	4682      	mov	sl, r0
10001cb6:	2522      	movs	r5, #34	; 0x22
10001cb8:	5f60      	ldrsh	r0, [r4, r5]
10001cba:	b212      	sxth	r2, r2
10001cbc:	4290      	cmp	r0, r2
10001cbe:	dc00      	bgt.n	10001cc2 <_ZN11ST7735_pico9writeRectEssssPKt+0x42>
10001cc0:	e135      	b.n	10001f2e <_ZN11ST7735_pico9writeRectEssssPKt+0x2ae>
10001cc2:	46b0      	mov	r8, r6
10001cc4:	9604      	str	r6, [sp, #16]
10001cc6:	261c      	movs	r6, #28
10001cc8:	5fa5      	ldrsh	r5, [r4, r6]
10001cca:	4498      	add	r8, r3
10001ccc:	46ac      	mov	ip, r5
10001cce:	45a8      	cmp	r8, r5
10001cd0:	dc00      	bgt.n	10001cd4 <_ZN11ST7735_pico9writeRectEssssPKt+0x54>
10001cd2:	e12c      	b.n	10001f2e <_ZN11ST7735_pico9writeRectEssssPKt+0x2ae>
10001cd4:	46b9      	mov	r9, r7
10001cd6:	003d      	movs	r5, r7
10001cd8:	261e      	movs	r6, #30
10001cda:	5fa7      	ldrsh	r7, [r4, r6]
10001cdc:	4491      	add	r9, r2
10001cde:	45b9      	cmp	r9, r7
10001ce0:	dc00      	bgt.n	10001ce4 <_ZN11ST7735_pico9writeRectEssssPKt+0x64>
10001ce2:	e124      	b.n	10001f2e <_ZN11ST7735_pico9writeRectEssssPKt+0x2ae>
10001ce4:	4297      	cmp	r7, r2
10001ce6:	dd0f      	ble.n	10001d08 <_ZN11ST7735_pico9writeRectEssssPKt+0x88>
10001ce8:	1aba      	subs	r2, r7, r2
10001cea:	1aae      	subs	r6, r5, r2
10001cec:	9d04      	ldr	r5, [sp, #16]
10001cee:	b236      	sxth	r6, r6
10001cf0:	436a      	muls	r2, r5
10001cf2:	9d13      	ldr	r5, [sp, #76]	; 0x4c
10001cf4:	0052      	lsls	r2, r2, #1
10001cf6:	46a9      	mov	r9, r5
10001cf8:	4491      	add	r9, r2
10001cfa:	464a      	mov	r2, r9
10001cfc:	46b1      	mov	r9, r6
10001cfe:	9213      	str	r2, [sp, #76]	; 0x4c
10001d00:	b2ba      	uxth	r2, r7
10001d02:	4692      	mov	sl, r2
10001d04:	9603      	str	r6, [sp, #12]
10001d06:	44b9      	add	r9, r7
10001d08:	4548      	cmp	r0, r9
10001d0a:	da00      	bge.n	10001d0e <_ZN11ST7735_pico9writeRectEssssPKt+0x8e>
10001d0c:	e128      	b.n	10001f60 <_ZN11ST7735_pico9writeRectEssssPKt+0x2e0>
10001d0e:	466a      	mov	r2, sp
10001d10:	8992      	ldrh	r2, [r2, #12]
10001d12:	9202      	str	r2, [sp, #8]
10001d14:	459c      	cmp	ip, r3
10001d16:	dd00      	ble.n	10001d1a <_ZN11ST7735_pico9writeRectEssssPKt+0x9a>
10001d18:	e110      	b.n	10001f3c <_ZN11ST7735_pico9writeRectEssssPKt+0x2bc>
10001d1a:	466b      	mov	r3, sp
10001d1c:	8a1b      	ldrh	r3, [r3, #16]
10001d1e:	465f      	mov	r7, fp
10001d20:	4699      	mov	r9, r3
10001d22:	2300      	movs	r3, #0
10001d24:	9305      	str	r3, [sp, #20]
10001d26:	2300      	movs	r3, #0
10001d28:	469b      	mov	fp, r3
10001d2a:	4541      	cmp	r1, r8
10001d2c:	da0a      	bge.n	10001d44 <_ZN11ST7735_pico9writeRectEssssPKt+0xc4>
10001d2e:	b289      	uxth	r1, r1
10001d30:	1bca      	subs	r2, r1, r7
10001d32:	b213      	sxth	r3, r2
10001d34:	9304      	str	r3, [sp, #16]
10001d36:	464b      	mov	r3, r9
10001d38:	18fb      	adds	r3, r7, r3
10001d3a:	1a59      	subs	r1, r3, r1
10001d3c:	b28b      	uxth	r3, r1
10001d3e:	469b      	mov	fp, r3
10001d40:	b293      	uxth	r3, r2
10001d42:	4699      	mov	r9, r3
10001d44:	6860      	ldr	r0, [r4, #4]
10001d46:	6803      	ldr	r3, [r0, #0]
10001d48:	68db      	ldr	r3, [r3, #12]
10001d4a:	4798      	blx	r3
10001d4c:	2800      	cmp	r0, #0
10001d4e:	d106      	bne.n	10001d5e <_ZN11ST7735_pico9writeRectEssssPKt+0xde>
10001d50:	2380      	movs	r3, #128	; 0x80
10001d52:	5ce2      	ldrb	r2, [r4, r3]
10001d54:	3b7f      	subs	r3, #127	; 0x7f
10001d56:	4093      	lsls	r3, r2
10001d58:	22d0      	movs	r2, #208	; 0xd0
10001d5a:	0612      	lsls	r2, r2, #24
10001d5c:	6193      	str	r3, [r2, #24]
10001d5e:	7a63      	ldrb	r3, [r4, #9]
10001d60:	2b00      	cmp	r3, #0
10001d62:	d000      	beq.n	10001d66 <_ZN11ST7735_pico9writeRectEssssPKt+0xe6>
10001d64:	e103      	b.n	10001f6e <_ZN11ST7735_pico9writeRectEssssPKt+0x2ee>
10001d66:	2381      	movs	r3, #129	; 0x81
10001d68:	5ce2      	ldrb	r2, [r4, r3]
10001d6a:	3b80      	subs	r3, #128	; 0x80
10001d6c:	4093      	lsls	r3, r2
10001d6e:	22d0      	movs	r2, #208	; 0xd0
10001d70:	0612      	lsls	r2, r2, #24
10001d72:	6193      	str	r3, [r2, #24]
10001d74:	212a      	movs	r1, #42	; 0x2a
10001d76:	6860      	ldr	r0, [r4, #4]
10001d78:	f7fe fc18 	bl	100005ac <_ZN3SPI5writeEh>
10001d7c:	2376      	movs	r3, #118	; 0x76
10001d7e:	5ae6      	ldrh	r6, [r4, r3]
10001d80:	7a63      	ldrb	r3, [r4, #9]
10001d82:	19be      	adds	r6, r7, r6
10001d84:	b2b6      	uxth	r6, r6
10001d86:	2b00      	cmp	r3, #0
10001d88:	d100      	bne.n	10001d8c <_ZN11ST7735_pico9writeRectEssssPKt+0x10c>
10001d8a:	e169      	b.n	10002060 <_ZN11ST7735_pico9writeRectEssssPKt+0x3e0>
10001d8c:	2381      	movs	r3, #129	; 0x81
10001d8e:	5ce2      	ldrb	r2, [r4, r3]
10001d90:	3b80      	subs	r3, #128	; 0x80
10001d92:	4093      	lsls	r3, r2
10001d94:	22d0      	movs	r2, #208	; 0xd0
10001d96:	0612      	lsls	r2, r2, #24
10001d98:	0031      	movs	r1, r6
10001d9a:	6153      	str	r3, [r2, #20]
10001d9c:	6860      	ldr	r0, [r4, #4]
10001d9e:	f7fe fc11 	bl	100005c4 <_ZN3SPI7write16Et>
10001da2:	2376      	movs	r3, #118	; 0x76
10001da4:	5ae6      	ldrh	r6, [r4, r3]
10001da6:	7a63      	ldrb	r3, [r4, #9]
10001da8:	3e01      	subs	r6, #1
10001daa:	19bf      	adds	r7, r7, r6
10001dac:	444f      	add	r7, r9
10001dae:	b2be      	uxth	r6, r7
10001db0:	2b00      	cmp	r3, #0
10001db2:	d100      	bne.n	10001db6 <_ZN11ST7735_pico9writeRectEssssPKt+0x136>
10001db4:	e140      	b.n	10002038 <_ZN11ST7735_pico9writeRectEssssPKt+0x3b8>
10001db6:	2381      	movs	r3, #129	; 0x81
10001db8:	5ce2      	ldrb	r2, [r4, r3]
10001dba:	3b80      	subs	r3, #128	; 0x80
10001dbc:	4093      	lsls	r3, r2
10001dbe:	22d0      	movs	r2, #208	; 0xd0
10001dc0:	0612      	lsls	r2, r2, #24
10001dc2:	6153      	str	r3, [r2, #20]
10001dc4:	0031      	movs	r1, r6
10001dc6:	6860      	ldr	r0, [r4, #4]
10001dc8:	f7fe fbfc 	bl	100005c4 <_ZN3SPI7write16Et>
10001dcc:	7a63      	ldrb	r3, [r4, #9]
10001dce:	2b00      	cmp	r3, #0
10001dd0:	d000      	beq.n	10001dd4 <_ZN11ST7735_pico9writeRectEssssPKt+0x154>
10001dd2:	e11d      	b.n	10002010 <_ZN11ST7735_pico9writeRectEssssPKt+0x390>
10001dd4:	2381      	movs	r3, #129	; 0x81
10001dd6:	5ce2      	ldrb	r2, [r4, r3]
10001dd8:	3b80      	subs	r3, #128	; 0x80
10001dda:	4093      	lsls	r3, r2
10001ddc:	22d0      	movs	r2, #208	; 0xd0
10001dde:	0612      	lsls	r2, r2, #24
10001de0:	6193      	str	r3, [r2, #24]
10001de2:	212b      	movs	r1, #43	; 0x2b
10001de4:	6860      	ldr	r0, [r4, #4]
10001de6:	f7fe fbe1 	bl	100005ac <_ZN3SPI5writeEh>
10001dea:	2378      	movs	r3, #120	; 0x78
10001dec:	5ae6      	ldrh	r6, [r4, r3]
10001dee:	7a63      	ldrb	r3, [r4, #9]
10001df0:	4456      	add	r6, sl
10001df2:	b2b6      	uxth	r6, r6
10001df4:	2b00      	cmp	r3, #0
10001df6:	d100      	bne.n	10001dfa <_ZN11ST7735_pico9writeRectEssssPKt+0x17a>
10001df8:	e0f6      	b.n	10001fe8 <_ZN11ST7735_pico9writeRectEssssPKt+0x368>
10001dfa:	2381      	movs	r3, #129	; 0x81
10001dfc:	5ce2      	ldrb	r2, [r4, r3]
10001dfe:	3b80      	subs	r3, #128	; 0x80
10001e00:	4093      	lsls	r3, r2
10001e02:	22d0      	movs	r2, #208	; 0xd0
10001e04:	0612      	lsls	r2, r2, #24
10001e06:	0031      	movs	r1, r6
10001e08:	6153      	str	r3, [r2, #20]
10001e0a:	6860      	ldr	r0, [r4, #4]
10001e0c:	f7fe fbda 	bl	100005c4 <_ZN3SPI7write16Et>
10001e10:	2378      	movs	r3, #120	; 0x78
10001e12:	5ae6      	ldrh	r6, [r4, r3]
10001e14:	9b02      	ldr	r3, [sp, #8]
10001e16:	3e01      	subs	r6, #1
10001e18:	469c      	mov	ip, r3
10001e1a:	4456      	add	r6, sl
10001e1c:	7a63      	ldrb	r3, [r4, #9]
10001e1e:	4466      	add	r6, ip
10001e20:	b2b6      	uxth	r6, r6
10001e22:	2b00      	cmp	r3, #0
10001e24:	d100      	bne.n	10001e28 <_ZN11ST7735_pico9writeRectEssssPKt+0x1a8>
10001e26:	e0cb      	b.n	10001fc0 <_ZN11ST7735_pico9writeRectEssssPKt+0x340>
10001e28:	2381      	movs	r3, #129	; 0x81
10001e2a:	5ce2      	ldrb	r2, [r4, r3]
10001e2c:	3b80      	subs	r3, #128	; 0x80
10001e2e:	4093      	lsls	r3, r2
10001e30:	22d0      	movs	r2, #208	; 0xd0
10001e32:	0612      	lsls	r2, r2, #24
10001e34:	6153      	str	r3, [r2, #20]
10001e36:	0031      	movs	r1, r6
10001e38:	6860      	ldr	r0, [r4, #4]
10001e3a:	f7fe fbc3 	bl	100005c4 <_ZN3SPI7write16Et>
10001e3e:	7a63      	ldrb	r3, [r4, #9]
10001e40:	2b00      	cmp	r3, #0
10001e42:	d000      	beq.n	10001e46 <_ZN11ST7735_pico9writeRectEssssPKt+0x1c6>
10001e44:	e0a8      	b.n	10001f98 <_ZN11ST7735_pico9writeRectEssssPKt+0x318>
10001e46:	2381      	movs	r3, #129	; 0x81
10001e48:	5ce2      	ldrb	r2, [r4, r3]
10001e4a:	3b80      	subs	r3, #128	; 0x80
10001e4c:	4093      	lsls	r3, r2
10001e4e:	22d0      	movs	r2, #208	; 0xd0
10001e50:	0612      	lsls	r2, r2, #24
10001e52:	6193      	str	r3, [r2, #24]
10001e54:	212c      	movs	r1, #44	; 0x2c
10001e56:	6860      	ldr	r0, [r4, #4]
10001e58:	f7fe fba8 	bl	100005ac <_ZN3SPI5writeEh>
10001e5c:	9b03      	ldr	r3, [sp, #12]
10001e5e:	2b00      	cmp	r3, #0
10001e60:	dd58      	ble.n	10001f14 <_ZN11ST7735_pico9writeRectEssssPKt+0x294>
10001e62:	9b05      	ldr	r3, [sp, #20]
10001e64:	9d13      	ldr	r5, [sp, #76]	; 0x4c
10001e66:	005b      	lsls	r3, r3, #1
10001e68:	9306      	str	r3, [sp, #24]
10001e6a:	465b      	mov	r3, fp
10001e6c:	3301      	adds	r3, #1
10001e6e:	005b      	lsls	r3, r3, #1
10001e70:	9305      	str	r3, [sp, #20]
10001e72:	9b04      	ldr	r3, [sp, #16]
10001e74:	3b02      	subs	r3, #2
10001e76:	b29b      	uxth	r3, r3
10001e78:	3301      	adds	r3, #1
10001e7a:	005b      	lsls	r3, r3, #1
10001e7c:	9307      	str	r3, [sp, #28]
10001e7e:	2301      	movs	r3, #1
10001e80:	469b      	mov	fp, r3
10001e82:	9b06      	ldr	r3, [sp, #24]
10001e84:	469a      	mov	sl, r3
10001e86:	44aa      	add	sl, r5
10001e88:	9d04      	ldr	r5, [sp, #16]
10001e8a:	2d01      	cmp	r5, #1
10001e8c:	dd34      	ble.n	10001ef8 <_ZN11ST7735_pico9writeRectEssssPKt+0x278>
10001e8e:	2381      	movs	r3, #129	; 0x81
10001e90:	4699      	mov	r9, r3
10001e92:	23d0      	movs	r3, #208	; 0xd0
10001e94:	061b      	lsls	r3, r3, #24
10001e96:	4656      	mov	r6, sl
10001e98:	4698      	mov	r8, r3
10001e9a:	e010      	b.n	10001ebe <_ZN11ST7735_pico9writeRectEssssPKt+0x23e>
10001e9c:	464b      	mov	r3, r9
10001e9e:	465a      	mov	r2, fp
10001ea0:	5ce3      	ldrb	r3, [r4, r3]
10001ea2:	3d01      	subs	r5, #1
10001ea4:	409a      	lsls	r2, r3
10001ea6:	0013      	movs	r3, r2
10001ea8:	4642      	mov	r2, r8
10001eaa:	9902      	ldr	r1, [sp, #8]
10001eac:	6153      	str	r3, [r2, #20]
10001eae:	6860      	ldr	r0, [r4, #4]
10001eb0:	f7fe fb88 	bl	100005c4 <_ZN3SPI7write16Et>
10001eb4:	b2ab      	uxth	r3, r5
10001eb6:	3602      	adds	r6, #2
10001eb8:	b22d      	sxth	r5, r5
10001eba:	2b01      	cmp	r3, #1
10001ebc:	d019      	beq.n	10001ef2 <_ZN11ST7735_pico9writeRectEssssPKt+0x272>
10001ebe:	8833      	ldrh	r3, [r6, #0]
10001ec0:	9302      	str	r3, [sp, #8]
10001ec2:	7a63      	ldrb	r3, [r4, #9]
10001ec4:	2b00      	cmp	r3, #0
10001ec6:	d1e9      	bne.n	10001e9c <_ZN11ST7735_pico9writeRectEssssPKt+0x21c>
10001ec8:	9f02      	ldr	r7, [sp, #8]
10001eca:	6860      	ldr	r0, [r4, #4]
10001ecc:	6803      	ldr	r3, [r0, #0]
10001ece:	691b      	ldr	r3, [r3, #16]
10001ed0:	4798      	blx	r3
10001ed2:	2800      	cmp	r0, #0
10001ed4:	d1f9      	bne.n	10001eca <_ZN11ST7735_pico9writeRectEssssPKt+0x24a>
10001ed6:	2201      	movs	r2, #1
10001ed8:	6860      	ldr	r0, [r4, #4]
10001eda:	9702      	str	r7, [sp, #8]
10001edc:	6803      	ldr	r3, [r0, #0]
10001ede:	9200      	str	r2, [sp, #0]
10001ee0:	695b      	ldr	r3, [r3, #20]
10001ee2:	2200      	movs	r2, #0
10001ee4:	001f      	movs	r7, r3
10001ee6:	2110      	movs	r1, #16
10001ee8:	2300      	movs	r3, #0
10001eea:	47b8      	blx	r7
10001eec:	465b      	mov	r3, fp
10001eee:	7263      	strb	r3, [r4, #9]
10001ef0:	e7d4      	b.n	10001e9c <_ZN11ST7735_pico9writeRectEssssPKt+0x21c>
10001ef2:	9b07      	ldr	r3, [sp, #28]
10001ef4:	469c      	mov	ip, r3
10001ef6:	44e2      	add	sl, ip
10001ef8:	4653      	mov	r3, sl
10001efa:	0020      	movs	r0, r4
10001efc:	8819      	ldrh	r1, [r3, #0]
10001efe:	f7fe fe6b 	bl	10000bd8 <_ZN11ST7735_pico16writedata16_lastEt>
10001f02:	9b03      	ldr	r3, [sp, #12]
10001f04:	9d05      	ldr	r5, [sp, #20]
10001f06:	3b01      	subs	r3, #1
10001f08:	b29a      	uxth	r2, r3
10001f0a:	b21b      	sxth	r3, r3
10001f0c:	4455      	add	r5, sl
10001f0e:	9303      	str	r3, [sp, #12]
10001f10:	2a00      	cmp	r2, #0
10001f12:	d1b6      	bne.n	10001e82 <_ZN11ST7735_pico9writeRectEssssPKt+0x202>
10001f14:	6860      	ldr	r0, [r4, #4]
10001f16:	6803      	ldr	r3, [r0, #0]
10001f18:	68db      	ldr	r3, [r3, #12]
10001f1a:	4798      	blx	r3
10001f1c:	2800      	cmp	r0, #0
10001f1e:	d106      	bne.n	10001f2e <_ZN11ST7735_pico9writeRectEssssPKt+0x2ae>
10001f20:	2380      	movs	r3, #128	; 0x80
10001f22:	5ce2      	ldrb	r2, [r4, r3]
10001f24:	3b7f      	subs	r3, #127	; 0x7f
10001f26:	4093      	lsls	r3, r2
10001f28:	22d0      	movs	r2, #208	; 0xd0
10001f2a:	0612      	lsls	r2, r2, #24
10001f2c:	6153      	str	r3, [r2, #20]
10001f2e:	b009      	add	sp, #36	; 0x24
10001f30:	bcf0      	pop	{r4, r5, r6, r7}
10001f32:	46bb      	mov	fp, r7
10001f34:	46b2      	mov	sl, r6
10001f36:	46a9      	mov	r9, r5
10001f38:	46a0      	mov	r8, r4
10001f3a:	bdf0      	pop	{r4, r5, r6, r7, pc}
10001f3c:	4663      	mov	r3, ip
10001f3e:	b29f      	uxth	r7, r3
10001f40:	465b      	mov	r3, fp
10001f42:	1afb      	subs	r3, r7, r3
10001f44:	9a04      	ldr	r2, [sp, #16]
10001f46:	b29b      	uxth	r3, r3
10001f48:	9305      	str	r3, [sp, #20]
10001f4a:	465b      	mov	r3, fp
10001f4c:	4690      	mov	r8, r2
10001f4e:	1bdb      	subs	r3, r3, r7
10001f50:	4443      	add	r3, r8
10001f52:	b29a      	uxth	r2, r3
10001f54:	b21b      	sxth	r3, r3
10001f56:	9304      	str	r3, [sp, #16]
10001f58:	4463      	add	r3, ip
10001f5a:	4691      	mov	r9, r2
10001f5c:	4698      	mov	r8, r3
10001f5e:	e6e2      	b.n	10001d26 <_ZN11ST7735_pico9writeRectEssssPKt+0xa6>
10001f60:	4652      	mov	r2, sl
10001f62:	1a80      	subs	r0, r0, r2
10001f64:	b282      	uxth	r2, r0
10001f66:	9202      	str	r2, [sp, #8]
10001f68:	b202      	sxth	r2, r0
10001f6a:	9203      	str	r2, [sp, #12]
10001f6c:	e6d2      	b.n	10001d14 <_ZN11ST7735_pico9writeRectEssssPKt+0x94>
10001f6e:	9d13      	ldr	r5, [sp, #76]	; 0x4c
10001f70:	6860      	ldr	r0, [r4, #4]
10001f72:	6803      	ldr	r3, [r0, #0]
10001f74:	691b      	ldr	r3, [r3, #16]
10001f76:	4798      	blx	r3
10001f78:	2800      	cmp	r0, #0
10001f7a:	d1f9      	bne.n	10001f70 <_ZN11ST7735_pico9writeRectEssssPKt+0x2f0>
10001f7c:	2201      	movs	r2, #1
10001f7e:	0006      	movs	r6, r0
10001f80:	6860      	ldr	r0, [r4, #4]
10001f82:	2108      	movs	r1, #8
10001f84:	6803      	ldr	r3, [r0, #0]
10001f86:	9200      	str	r2, [sp, #0]
10001f88:	695b      	ldr	r3, [r3, #20]
10001f8a:	2200      	movs	r2, #0
10001f8c:	4698      	mov	r8, r3
10001f8e:	9513      	str	r5, [sp, #76]	; 0x4c
10001f90:	2300      	movs	r3, #0
10001f92:	47c0      	blx	r8
10001f94:	7266      	strb	r6, [r4, #9]
10001f96:	e6e6      	b.n	10001d66 <_ZN11ST7735_pico9writeRectEssssPKt+0xe6>
10001f98:	9d13      	ldr	r5, [sp, #76]	; 0x4c
10001f9a:	6860      	ldr	r0, [r4, #4]
10001f9c:	6803      	ldr	r3, [r0, #0]
10001f9e:	691b      	ldr	r3, [r3, #16]
10001fa0:	4798      	blx	r3
10001fa2:	2800      	cmp	r0, #0
10001fa4:	d1f9      	bne.n	10001f9a <_ZN11ST7735_pico9writeRectEssssPKt+0x31a>
10001fa6:	2201      	movs	r2, #1
10001fa8:	0006      	movs	r6, r0
10001faa:	6860      	ldr	r0, [r4, #4]
10001fac:	2108      	movs	r1, #8
10001fae:	6803      	ldr	r3, [r0, #0]
10001fb0:	9200      	str	r2, [sp, #0]
10001fb2:	695f      	ldr	r7, [r3, #20]
10001fb4:	2200      	movs	r2, #0
10001fb6:	2300      	movs	r3, #0
10001fb8:	9513      	str	r5, [sp, #76]	; 0x4c
10001fba:	47b8      	blx	r7
10001fbc:	7266      	strb	r6, [r4, #9]
10001fbe:	e742      	b.n	10001e46 <_ZN11ST7735_pico9writeRectEssssPKt+0x1c6>
10001fc0:	9d13      	ldr	r5, [sp, #76]	; 0x4c
10001fc2:	6860      	ldr	r0, [r4, #4]
10001fc4:	6803      	ldr	r3, [r0, #0]
10001fc6:	691b      	ldr	r3, [r3, #16]
10001fc8:	4798      	blx	r3
10001fca:	2800      	cmp	r0, #0
10001fcc:	d1f9      	bne.n	10001fc2 <_ZN11ST7735_pico9writeRectEssssPKt+0x342>
10001fce:	2701      	movs	r7, #1
10001fd0:	6860      	ldr	r0, [r4, #4]
10001fd2:	2200      	movs	r2, #0
10001fd4:	6803      	ldr	r3, [r0, #0]
10001fd6:	9700      	str	r7, [sp, #0]
10001fd8:	695b      	ldr	r3, [r3, #20]
10001fda:	2110      	movs	r1, #16
10001fdc:	4698      	mov	r8, r3
10001fde:	9513      	str	r5, [sp, #76]	; 0x4c
10001fe0:	2300      	movs	r3, #0
10001fe2:	47c0      	blx	r8
10001fe4:	7267      	strb	r7, [r4, #9]
10001fe6:	e71f      	b.n	10001e28 <_ZN11ST7735_pico9writeRectEssssPKt+0x1a8>
10001fe8:	9d13      	ldr	r5, [sp, #76]	; 0x4c
10001fea:	6860      	ldr	r0, [r4, #4]
10001fec:	6803      	ldr	r3, [r0, #0]
10001fee:	691b      	ldr	r3, [r3, #16]
10001ff0:	4798      	blx	r3
10001ff2:	2800      	cmp	r0, #0
10001ff4:	d1f9      	bne.n	10001fea <_ZN11ST7735_pico9writeRectEssssPKt+0x36a>
10001ff6:	2701      	movs	r7, #1
10001ff8:	6860      	ldr	r0, [r4, #4]
10001ffa:	2200      	movs	r2, #0
10001ffc:	6803      	ldr	r3, [r0, #0]
10001ffe:	9700      	str	r7, [sp, #0]
10002000:	695b      	ldr	r3, [r3, #20]
10002002:	2110      	movs	r1, #16
10002004:	4698      	mov	r8, r3
10002006:	9513      	str	r5, [sp, #76]	; 0x4c
10002008:	2300      	movs	r3, #0
1000200a:	47c0      	blx	r8
1000200c:	7267      	strb	r7, [r4, #9]
1000200e:	e6f4      	b.n	10001dfa <_ZN11ST7735_pico9writeRectEssssPKt+0x17a>
10002010:	9d13      	ldr	r5, [sp, #76]	; 0x4c
10002012:	6860      	ldr	r0, [r4, #4]
10002014:	6803      	ldr	r3, [r0, #0]
10002016:	691b      	ldr	r3, [r3, #16]
10002018:	4798      	blx	r3
1000201a:	2800      	cmp	r0, #0
1000201c:	d1f9      	bne.n	10002012 <_ZN11ST7735_pico9writeRectEssssPKt+0x392>
1000201e:	2201      	movs	r2, #1
10002020:	0006      	movs	r6, r0
10002022:	6860      	ldr	r0, [r4, #4]
10002024:	2108      	movs	r1, #8
10002026:	6803      	ldr	r3, [r0, #0]
10002028:	9200      	str	r2, [sp, #0]
1000202a:	695f      	ldr	r7, [r3, #20]
1000202c:	2200      	movs	r2, #0
1000202e:	2300      	movs	r3, #0
10002030:	9513      	str	r5, [sp, #76]	; 0x4c
10002032:	47b8      	blx	r7
10002034:	7266      	strb	r6, [r4, #9]
10002036:	e6cd      	b.n	10001dd4 <_ZN11ST7735_pico9writeRectEssssPKt+0x154>
10002038:	9d13      	ldr	r5, [sp, #76]	; 0x4c
1000203a:	6860      	ldr	r0, [r4, #4]
1000203c:	6803      	ldr	r3, [r0, #0]
1000203e:	691b      	ldr	r3, [r3, #16]
10002040:	4798      	blx	r3
10002042:	2800      	cmp	r0, #0
10002044:	d1f9      	bne.n	1000203a <_ZN11ST7735_pico9writeRectEssssPKt+0x3ba>
10002046:	2701      	movs	r7, #1
10002048:	6860      	ldr	r0, [r4, #4]
1000204a:	2200      	movs	r2, #0
1000204c:	6803      	ldr	r3, [r0, #0]
1000204e:	9700      	str	r7, [sp, #0]
10002050:	695b      	ldr	r3, [r3, #20]
10002052:	2110      	movs	r1, #16
10002054:	4698      	mov	r8, r3
10002056:	9513      	str	r5, [sp, #76]	; 0x4c
10002058:	2300      	movs	r3, #0
1000205a:	47c0      	blx	r8
1000205c:	7267      	strb	r7, [r4, #9]
1000205e:	e6aa      	b.n	10001db6 <_ZN11ST7735_pico9writeRectEssssPKt+0x136>
10002060:	9d13      	ldr	r5, [sp, #76]	; 0x4c
10002062:	6860      	ldr	r0, [r4, #4]
10002064:	6803      	ldr	r3, [r0, #0]
10002066:	691b      	ldr	r3, [r3, #16]
10002068:	4798      	blx	r3
1000206a:	2800      	cmp	r0, #0
1000206c:	d1f9      	bne.n	10002062 <_ZN11ST7735_pico9writeRectEssssPKt+0x3e2>
1000206e:	2201      	movs	r2, #1
10002070:	4690      	mov	r8, r2
10002072:	6860      	ldr	r0, [r4, #4]
10002074:	9513      	str	r5, [sp, #76]	; 0x4c
10002076:	6803      	ldr	r3, [r0, #0]
10002078:	9200      	str	r2, [sp, #0]
1000207a:	695b      	ldr	r3, [r3, #20]
1000207c:	2200      	movs	r2, #0
1000207e:	001d      	movs	r5, r3
10002080:	2110      	movs	r1, #16
10002082:	2300      	movs	r3, #0
10002084:	47a8      	blx	r5
10002086:	4643      	mov	r3, r8
10002088:	7263      	strb	r3, [r4, #9]
1000208a:	e67f      	b.n	10001d8c <_ZN11ST7735_pico9writeRectEssssPKt+0x10c>

1000208c <_ZN11ST7735_pico8drawLineEsssst>:
1000208c:	b5f0      	push	{r4, r5, r6, r7, lr}
1000208e:	4645      	mov	r5, r8
10002090:	46de      	mov	lr, fp
10002092:	4657      	mov	r7, sl
10002094:	464e      	mov	r6, r9
10002096:	4690      	mov	r8, r2
10002098:	b5e0      	push	{r5, r6, r7, lr}
1000209a:	b08b      	sub	sp, #44	; 0x2c
1000209c:	469b      	mov	fp, r3
1000209e:	ab14      	add	r3, sp, #80	; 0x50
100020a0:	2200      	movs	r2, #0
100020a2:	5e9a      	ldrsh	r2, [r3, r2]
100020a4:	ab15      	add	r3, sp, #84	; 0x54
100020a6:	881b      	ldrh	r3, [r3, #0]
100020a8:	0005      	movs	r5, r0
100020aa:	000f      	movs	r7, r1
100020ac:	9305      	str	r3, [sp, #20]
100020ae:	4590      	cmp	r8, r2
100020b0:	d101      	bne.n	100020b6 <_ZN11ST7735_pico8drawLineEsssst+0x2a>
100020b2:	f000 fde5 	bl	10002c80 <_ZN11ST7735_pico8drawLineEsssst+0xbf4>
100020b6:	4559      	cmp	r1, fp
100020b8:	d101      	bne.n	100020be <_ZN11ST7735_pico8drawLineEsssst+0x32>
100020ba:	f000 fedc 	bl	10002e76 <_ZN11ST7735_pico8drawLineEsssst+0xdea>
100020be:	4643      	mov	r3, r8
100020c0:	465e      	mov	r6, fp
100020c2:	1ad0      	subs	r0, r2, r3
100020c4:	17c4      	asrs	r4, r0, #31
100020c6:	1900      	adds	r0, r0, r4
100020c8:	4060      	eors	r0, r4
100020ca:	4681      	mov	r9, r0
100020cc:	1bf4      	subs	r4, r6, r7
100020ce:	17e0      	asrs	r0, r4, #31
100020d0:	1824      	adds	r4, r4, r0
100020d2:	4044      	eors	r4, r0
100020d4:	0020      	movs	r0, r4
100020d6:	9403      	str	r4, [sp, #12]
100020d8:	0011      	movs	r1, r2
100020da:	46bc      	mov	ip, r7
100020dc:	464c      	mov	r4, r9
100020de:	4581      	cmp	r9, r0
100020e0:	dd06      	ble.n	100020f0 <_ZN11ST7735_pico8drawLineEsssst+0x64>
100020e2:	4659      	mov	r1, fp
100020e4:	003b      	movs	r3, r7
100020e6:	4693      	mov	fp, r2
100020e8:	4647      	mov	r7, r8
100020ea:	0004      	movs	r4, r0
100020ec:	0032      	movs	r2, r6
100020ee:	46e0      	mov	r8, ip
100020f0:	455f      	cmp	r7, fp
100020f2:	dd09      	ble.n	10002108 <_ZN11ST7735_pico8drawLineEsssst+0x7c>
100020f4:	1a5b      	subs	r3, r3, r1
100020f6:	17d9      	asrs	r1, r3, #31
100020f8:	185c      	adds	r4, r3, r1
100020fa:	4643      	mov	r3, r8
100020fc:	4690      	mov	r8, r2
100020fe:	001a      	movs	r2, r3
10002100:	003b      	movs	r3, r7
10002102:	465f      	mov	r7, fp
10002104:	469b      	mov	fp, r3
10002106:	404c      	eors	r4, r1
10002108:	b2bb      	uxth	r3, r7
1000210a:	469a      	mov	sl, r3
1000210c:	465b      	mov	r3, fp
1000210e:	4651      	mov	r1, sl
10002110:	1a5b      	subs	r3, r3, r1
10002112:	b299      	uxth	r1, r3
10002114:	b21b      	sxth	r3, r3
10002116:	0fde      	lsrs	r6, r3, #31
10002118:	18f6      	adds	r6, r6, r3
1000211a:	2301      	movs	r3, #1
1000211c:	9104      	str	r1, [sp, #16]
1000211e:	1076      	asrs	r6, r6, #1
10002120:	9302      	str	r3, [sp, #8]
10002122:	4590      	cmp	r8, r2
10002124:	db00      	blt.n	10002128 <_ZN11ST7735_pico8drawLineEsssst+0x9c>
10002126:	e244      	b.n	100025b2 <_ZN11ST7735_pico8drawLineEsssst+0x526>
10002128:	6868      	ldr	r0, [r5, #4]
1000212a:	6803      	ldr	r3, [r0, #0]
1000212c:	68db      	ldr	r3, [r3, #12]
1000212e:	4798      	blx	r3
10002130:	2800      	cmp	r0, #0
10002132:	d106      	bne.n	10002142 <_ZN11ST7735_pico8drawLineEsssst+0xb6>
10002134:	2380      	movs	r3, #128	; 0x80
10002136:	5cea      	ldrb	r2, [r5, r3]
10002138:	3b7f      	subs	r3, #127	; 0x7f
1000213a:	4093      	lsls	r3, r2
1000213c:	22d0      	movs	r2, #208	; 0xd0
1000213e:	0612      	lsls	r2, r2, #24
10002140:	6193      	str	r3, [r2, #24]
10002142:	9b03      	ldr	r3, [sp, #12]
10002144:	4599      	cmp	r9, r3
10002146:	dc00      	bgt.n	1000214a <_ZN11ST7735_pico8drawLineEsssst+0xbe>
10002148:	e119      	b.n	1000237e <_ZN11ST7735_pico8drawLineEsssst+0x2f2>
1000214a:	455f      	cmp	r7, fp
1000214c:	dd01      	ble.n	10002152 <_ZN11ST7735_pico8drawLineEsssst+0xc6>
1000214e:	f001 f829 	bl	100031a4 <_ZN11ST7735_pico8drawLineEsssst+0x1118>
10002152:	b2a3      	uxth	r3, r4
10002154:	9303      	str	r3, [sp, #12]
10002156:	4653      	mov	r3, sl
10002158:	3301      	adds	r3, #1
1000215a:	b29b      	uxth	r3, r3
1000215c:	469a      	mov	sl, r3
1000215e:	23d0      	movs	r3, #208	; 0xd0
10002160:	061b      	lsls	r3, r3, #24
10002162:	0034      	movs	r4, r6
10002164:	4699      	mov	r9, r3
10002166:	4656      	mov	r6, sl
10002168:	0038      	movs	r0, r7
1000216a:	4641      	mov	r1, r8
1000216c:	e006      	b.n	1000217c <_ZN11ST7735_pico8drawLineEsssst+0xf0>
1000216e:	1c73      	adds	r3, r6, #1
10002170:	b232      	sxth	r2, r6
10002172:	b29b      	uxth	r3, r3
10002174:	4593      	cmp	fp, r2
10002176:	da00      	bge.n	1000217a <_ZN11ST7735_pico8drawLineEsssst+0xee>
10002178:	e235      	b.n	100025e6 <_ZN11ST7735_pico8drawLineEsssst+0x55a>
1000217a:	001e      	movs	r6, r3
1000217c:	9b03      	ldr	r3, [sp, #12]
1000217e:	1ae3      	subs	r3, r4, r3
10002180:	b29f      	uxth	r7, r3
10002182:	b21c      	sxth	r4, r3
10002184:	041b      	lsls	r3, r3, #16
10002186:	d5f2      	bpl.n	1000216e <_ZN11ST7735_pico8drawLineEsssst+0xe2>
10002188:	1e73      	subs	r3, r6, #1
1000218a:	b29b      	uxth	r3, r3
1000218c:	b280      	uxth	r0, r0
1000218e:	1a1c      	subs	r4, r3, r0
10002190:	b2a4      	uxth	r4, r4
10002192:	2c00      	cmp	r4, #0
10002194:	d101      	bne.n	1000219a <_ZN11ST7735_pico8drawLineEsssst+0x10e>
10002196:	f000 fbf9 	bl	1000298c <_ZN11ST7735_pico8drawLineEsssst+0x900>
1000219a:	b28b      	uxth	r3, r1
1000219c:	469a      	mov	sl, r3
1000219e:	8b2b      	ldrh	r3, [r5, #24]
100021a0:	4453      	add	r3, sl
100021a2:	b29a      	uxth	r2, r3
100021a4:	9207      	str	r2, [sp, #28]
100021a6:	211c      	movs	r1, #28
100021a8:	5e6a      	ldrsh	r2, [r5, r1]
100021aa:	b21b      	sxth	r3, r3
100021ac:	429a      	cmp	r2, r3
100021ae:	dd00      	ble.n	100021b2 <_ZN11ST7735_pico8drawLineEsssst+0x126>
100021b0:	e20b      	b.n	100025ca <_ZN11ST7735_pico8drawLineEsssst+0x53e>
100021b2:	2120      	movs	r1, #32
100021b4:	5e6a      	ldrsh	r2, [r5, r1]
100021b6:	429a      	cmp	r2, r3
100021b8:	dc00      	bgt.n	100021bc <_ZN11ST7735_pico8drawLineEsssst+0x130>
100021ba:	e206      	b.n	100025ca <_ZN11ST7735_pico8drawLineEsssst+0x53e>
100021bc:	8b6b      	ldrh	r3, [r5, #26]
100021be:	2122      	movs	r1, #34	; 0x22
100021c0:	5e6a      	ldrsh	r2, [r5, r1]
100021c2:	18c0      	adds	r0, r0, r3
100021c4:	b283      	uxth	r3, r0
100021c6:	b200      	sxth	r0, r0
100021c8:	4290      	cmp	r0, r2
100021ca:	db00      	blt.n	100021ce <_ZN11ST7735_pico8drawLineEsssst+0x142>
100021cc:	e1fd      	b.n	100025ca <_ZN11ST7735_pico8drawLineEsssst+0x53e>
100021ce:	3401      	adds	r4, #1
100021d0:	b2a1      	uxth	r1, r4
100021d2:	468c      	mov	ip, r1
100021d4:	241e      	movs	r4, #30
100021d6:	5f29      	ldrsh	r1, [r5, r4]
100021d8:	4288      	cmp	r0, r1
100021da:	da01      	bge.n	100021e0 <_ZN11ST7735_pico8drawLineEsssst+0x154>
100021dc:	f000 fe6a 	bl	10002eb4 <_ZN11ST7735_pico8drawLineEsssst+0xe28>
100021e0:	4661      	mov	r1, ip
100021e2:	b209      	sxth	r1, r1
100021e4:	9106      	str	r1, [sp, #24]
100021e6:	0001      	movs	r1, r0
100021e8:	9308      	str	r3, [sp, #32]
100021ea:	9b06      	ldr	r3, [sp, #24]
100021ec:	469c      	mov	ip, r3
100021ee:	4461      	add	r1, ip
100021f0:	4291      	cmp	r1, r2
100021f2:	dd03      	ble.n	100021fc <_ZN11ST7735_pico8drawLineEsssst+0x170>
100021f4:	9b08      	ldr	r3, [sp, #32]
100021f6:	1ad2      	subs	r2, r2, r3
100021f8:	b213      	sxth	r3, r2
100021fa:	9306      	str	r3, [sp, #24]
100021fc:	9b06      	ldr	r3, [sp, #24]
100021fe:	2b00      	cmp	r3, #0
10002200:	dc00      	bgt.n	10002204 <_ZN11ST7735_pico8drawLineEsssst+0x178>
10002202:	e1e2      	b.n	100025ca <_ZN11ST7735_pico8drawLineEsssst+0x53e>
10002204:	b29b      	uxth	r3, r3
10002206:	9309      	str	r3, [sp, #36]	; 0x24
10002208:	7a6b      	ldrb	r3, [r5, #9]
1000220a:	2b00      	cmp	r3, #0
1000220c:	d001      	beq.n	10002212 <_ZN11ST7735_pico8drawLineEsssst+0x186>
1000220e:	f001 f8d8 	bl	100033c2 <_ZN11ST7735_pico8drawLineEsssst+0x1336>
10002212:	2381      	movs	r3, #129	; 0x81
10002214:	2201      	movs	r2, #1
10002216:	5ceb      	ldrb	r3, [r5, r3]
10002218:	212a      	movs	r1, #42	; 0x2a
1000221a:	409a      	lsls	r2, r3
1000221c:	0013      	movs	r3, r2
1000221e:	464a      	mov	r2, r9
10002220:	6868      	ldr	r0, [r5, #4]
10002222:	6193      	str	r3, [r2, #24]
10002224:	f7fe f9c2 	bl	100005ac <_ZN3SPI5writeEh>
10002228:	2376      	movs	r3, #118	; 0x76
1000222a:	9a07      	ldr	r2, [sp, #28]
1000222c:	5aeb      	ldrh	r3, [r5, r3]
1000222e:	4694      	mov	ip, r2
10002230:	4463      	add	r3, ip
10002232:	b29b      	uxth	r3, r3
10002234:	4698      	mov	r8, r3
10002236:	7a6b      	ldrb	r3, [r5, #9]
10002238:	2b00      	cmp	r3, #0
1000223a:	d101      	bne.n	10002240 <_ZN11ST7735_pico8drawLineEsssst+0x1b4>
1000223c:	f001 f8ab 	bl	10003396 <_ZN11ST7735_pico8drawLineEsssst+0x130a>
10002240:	2381      	movs	r3, #129	; 0x81
10002242:	2201      	movs	r2, #1
10002244:	5ceb      	ldrb	r3, [r5, r3]
10002246:	4641      	mov	r1, r8
10002248:	409a      	lsls	r2, r3
1000224a:	0013      	movs	r3, r2
1000224c:	464a      	mov	r2, r9
1000224e:	6868      	ldr	r0, [r5, #4]
10002250:	6153      	str	r3, [r2, #20]
10002252:	f7fe f9b7 	bl	100005c4 <_ZN3SPI7write16Et>
10002256:	2376      	movs	r3, #118	; 0x76
10002258:	9a07      	ldr	r2, [sp, #28]
1000225a:	5aeb      	ldrh	r3, [r5, r3]
1000225c:	4694      	mov	ip, r2
1000225e:	4463      	add	r3, ip
10002260:	b29b      	uxth	r3, r3
10002262:	4698      	mov	r8, r3
10002264:	7a6b      	ldrb	r3, [r5, #9]
10002266:	2b00      	cmp	r3, #0
10002268:	d101      	bne.n	1000226e <_ZN11ST7735_pico8drawLineEsssst+0x1e2>
1000226a:	f001 f87e 	bl	1000336a <_ZN11ST7735_pico8drawLineEsssst+0x12de>
1000226e:	2381      	movs	r3, #129	; 0x81
10002270:	2201      	movs	r2, #1
10002272:	5ceb      	ldrb	r3, [r5, r3]
10002274:	4641      	mov	r1, r8
10002276:	409a      	lsls	r2, r3
10002278:	0013      	movs	r3, r2
1000227a:	464a      	mov	r2, r9
1000227c:	6868      	ldr	r0, [r5, #4]
1000227e:	6153      	str	r3, [r2, #20]
10002280:	f7fe f9a0 	bl	100005c4 <_ZN3SPI7write16Et>
10002284:	7a6b      	ldrb	r3, [r5, #9]
10002286:	2b00      	cmp	r3, #0
10002288:	d001      	beq.n	1000228e <_ZN11ST7735_pico8drawLineEsssst+0x202>
1000228a:	f001 f857 	bl	1000333c <_ZN11ST7735_pico8drawLineEsssst+0x12b0>
1000228e:	2381      	movs	r3, #129	; 0x81
10002290:	2201      	movs	r2, #1
10002292:	5ceb      	ldrb	r3, [r5, r3]
10002294:	212b      	movs	r1, #43	; 0x2b
10002296:	409a      	lsls	r2, r3
10002298:	0013      	movs	r3, r2
1000229a:	464a      	mov	r2, r9
1000229c:	6868      	ldr	r0, [r5, #4]
1000229e:	6193      	str	r3, [r2, #24]
100022a0:	f7fe f984 	bl	100005ac <_ZN3SPI5writeEh>
100022a4:	2378      	movs	r3, #120	; 0x78
100022a6:	9a08      	ldr	r2, [sp, #32]
100022a8:	5aeb      	ldrh	r3, [r5, r3]
100022aa:	4694      	mov	ip, r2
100022ac:	4463      	add	r3, ip
100022ae:	b29b      	uxth	r3, r3
100022b0:	4698      	mov	r8, r3
100022b2:	7a6b      	ldrb	r3, [r5, #9]
100022b4:	2b00      	cmp	r3, #0
100022b6:	d101      	bne.n	100022bc <_ZN11ST7735_pico8drawLineEsssst+0x230>
100022b8:	f001 f82a 	bl	10003310 <_ZN11ST7735_pico8drawLineEsssst+0x1284>
100022bc:	2381      	movs	r3, #129	; 0x81
100022be:	2201      	movs	r2, #1
100022c0:	5ceb      	ldrb	r3, [r5, r3]
100022c2:	4641      	mov	r1, r8
100022c4:	409a      	lsls	r2, r3
100022c6:	0013      	movs	r3, r2
100022c8:	464a      	mov	r2, r9
100022ca:	6868      	ldr	r0, [r5, #4]
100022cc:	6153      	str	r3, [r2, #20]
100022ce:	f7fe f979 	bl	100005c4 <_ZN3SPI7write16Et>
100022d2:	2378      	movs	r3, #120	; 0x78
100022d4:	9a08      	ldr	r2, [sp, #32]
100022d6:	5aeb      	ldrh	r3, [r5, r3]
100022d8:	4694      	mov	ip, r2
100022da:	9a09      	ldr	r2, [sp, #36]	; 0x24
100022dc:	3b01      	subs	r3, #1
100022de:	4463      	add	r3, ip
100022e0:	4694      	mov	ip, r2
100022e2:	4463      	add	r3, ip
100022e4:	b29b      	uxth	r3, r3
100022e6:	4698      	mov	r8, r3
100022e8:	7a6b      	ldrb	r3, [r5, #9]
100022ea:	2b00      	cmp	r3, #0
100022ec:	d101      	bne.n	100022f2 <_ZN11ST7735_pico8drawLineEsssst+0x266>
100022ee:	f000 fff9 	bl	100032e4 <_ZN11ST7735_pico8drawLineEsssst+0x1258>
100022f2:	2381      	movs	r3, #129	; 0x81
100022f4:	2201      	movs	r2, #1
100022f6:	5ceb      	ldrb	r3, [r5, r3]
100022f8:	4641      	mov	r1, r8
100022fa:	409a      	lsls	r2, r3
100022fc:	0013      	movs	r3, r2
100022fe:	464a      	mov	r2, r9
10002300:	6868      	ldr	r0, [r5, #4]
10002302:	6153      	str	r3, [r2, #20]
10002304:	f7fe f95e 	bl	100005c4 <_ZN3SPI7write16Et>
10002308:	7a6b      	ldrb	r3, [r5, #9]
1000230a:	2b00      	cmp	r3, #0
1000230c:	d001      	beq.n	10002312 <_ZN11ST7735_pico8drawLineEsssst+0x286>
1000230e:	f000 ffd2 	bl	100032b6 <_ZN11ST7735_pico8drawLineEsssst+0x122a>
10002312:	2381      	movs	r3, #129	; 0x81
10002314:	2201      	movs	r2, #1
10002316:	5ceb      	ldrb	r3, [r5, r3]
10002318:	212c      	movs	r1, #44	; 0x2c
1000231a:	409a      	lsls	r2, r3
1000231c:	0013      	movs	r3, r2
1000231e:	464a      	mov	r2, r9
10002320:	6868      	ldr	r0, [r5, #4]
10002322:	6193      	str	r3, [r2, #24]
10002324:	f7fe f942 	bl	100005ac <_ZN3SPI5writeEh>
10002328:	46b0      	mov	r8, r6
1000232a:	9707      	str	r7, [sp, #28]
1000232c:	9c06      	ldr	r4, [sp, #24]
1000232e:	9f05      	ldr	r7, [sp, #20]
10002330:	e010      	b.n	10002354 <_ZN11ST7735_pico8drawLineEsssst+0x2c8>
10002332:	2381      	movs	r3, #129	; 0x81
10002334:	2201      	movs	r2, #1
10002336:	5ceb      	ldrb	r3, [r5, r3]
10002338:	3c01      	subs	r4, #1
1000233a:	409a      	lsls	r2, r3
1000233c:	0013      	movs	r3, r2
1000233e:	464a      	mov	r2, r9
10002340:	0039      	movs	r1, r7
10002342:	6153      	str	r3, [r2, #20]
10002344:	6868      	ldr	r0, [r5, #4]
10002346:	f7fe f93d 	bl	100005c4 <_ZN3SPI7write16Et>
1000234a:	b2a3      	uxth	r3, r4
1000234c:	b224      	sxth	r4, r4
1000234e:	2b00      	cmp	r3, #0
10002350:	d100      	bne.n	10002354 <_ZN11ST7735_pico8drawLineEsssst+0x2c8>
10002352:	e138      	b.n	100025c6 <_ZN11ST7735_pico8drawLineEsssst+0x53a>
10002354:	7a6b      	ldrb	r3, [r5, #9]
10002356:	2b00      	cmp	r3, #0
10002358:	d1eb      	bne.n	10002332 <_ZN11ST7735_pico8drawLineEsssst+0x2a6>
1000235a:	6868      	ldr	r0, [r5, #4]
1000235c:	6803      	ldr	r3, [r0, #0]
1000235e:	691b      	ldr	r3, [r3, #16]
10002360:	4798      	blx	r3
10002362:	2800      	cmp	r0, #0
10002364:	d1f9      	bne.n	1000235a <_ZN11ST7735_pico8drawLineEsssst+0x2ce>
10002366:	2201      	movs	r2, #1
10002368:	6868      	ldr	r0, [r5, #4]
1000236a:	2110      	movs	r1, #16
1000236c:	6803      	ldr	r3, [r0, #0]
1000236e:	9200      	str	r2, [sp, #0]
10002370:	695e      	ldr	r6, [r3, #20]
10002372:	2200      	movs	r2, #0
10002374:	2300      	movs	r3, #0
10002376:	47b0      	blx	r6
10002378:	2201      	movs	r2, #1
1000237a:	726a      	strb	r2, [r5, #9]
1000237c:	e7d9      	b.n	10002332 <_ZN11ST7735_pico8drawLineEsssst+0x2a6>
1000237e:	455f      	cmp	r7, fp
10002380:	dd01      	ble.n	10002386 <_ZN11ST7735_pico8drawLineEsssst+0x2fa>
10002382:	f000 ff0c 	bl	1000319e <_ZN11ST7735_pico8drawLineEsssst+0x1112>
10002386:	b2a3      	uxth	r3, r4
10002388:	9303      	str	r3, [sp, #12]
1000238a:	4653      	mov	r3, sl
1000238c:	3301      	adds	r3, #1
1000238e:	b29b      	uxth	r3, r3
10002390:	469a      	mov	sl, r3
10002392:	23d0      	movs	r3, #208	; 0xd0
10002394:	061b      	lsls	r3, r3, #24
10002396:	4699      	mov	r9, r3
10002398:	0034      	movs	r4, r6
1000239a:	003b      	movs	r3, r7
1000239c:	4656      	mov	r6, sl
1000239e:	4640      	mov	r0, r8
100023a0:	e006      	b.n	100023b0 <_ZN11ST7735_pico8drawLineEsssst+0x324>
100023a2:	1c71      	adds	r1, r6, #1
100023a4:	b232      	sxth	r2, r6
100023a6:	b289      	uxth	r1, r1
100023a8:	4593      	cmp	fp, r2
100023aa:	da00      	bge.n	100023ae <_ZN11ST7735_pico8drawLineEsssst+0x322>
100023ac:	e20f      	b.n	100027ce <_ZN11ST7735_pico8drawLineEsssst+0x742>
100023ae:	000e      	movs	r6, r1
100023b0:	9a03      	ldr	r2, [sp, #12]
100023b2:	1aa2      	subs	r2, r4, r2
100023b4:	b297      	uxth	r7, r2
100023b6:	b214      	sxth	r4, r2
100023b8:	0412      	lsls	r2, r2, #16
100023ba:	d5f2      	bpl.n	100023a2 <_ZN11ST7735_pico8drawLineEsssst+0x316>
100023bc:	1e72      	subs	r2, r6, #1
100023be:	b292      	uxth	r2, r2
100023c0:	b29b      	uxth	r3, r3
100023c2:	1ad4      	subs	r4, r2, r3
100023c4:	b2a4      	uxth	r4, r4
100023c6:	2c00      	cmp	r4, #0
100023c8:	d100      	bne.n	100023cc <_ZN11ST7735_pico8drawLineEsssst+0x340>
100023ca:	e390      	b.n	10002aee <_ZN11ST7735_pico8drawLineEsssst+0xa62>
100023cc:	b282      	uxth	r2, r0
100023ce:	4692      	mov	sl, r2
100023d0:	8b6a      	ldrh	r2, [r5, #26]
100023d2:	4452      	add	r2, sl
100023d4:	b291      	uxth	r1, r2
100023d6:	9107      	str	r1, [sp, #28]
100023d8:	201e      	movs	r0, #30
100023da:	5e29      	ldrsh	r1, [r5, r0]
100023dc:	b212      	sxth	r2, r2
100023de:	4291      	cmp	r1, r2
100023e0:	dd00      	ble.n	100023e4 <_ZN11ST7735_pico8drawLineEsssst+0x358>
100023e2:	e1e6      	b.n	100027b2 <_ZN11ST7735_pico8drawLineEsssst+0x726>
100023e4:	8b29      	ldrh	r1, [r5, #24]
100023e6:	185b      	adds	r3, r3, r1
100023e8:	b218      	sxth	r0, r3
100023ea:	4680      	mov	r8, r0
100023ec:	b299      	uxth	r1, r3
100023ee:	9108      	str	r1, [sp, #32]
100023f0:	2020      	movs	r0, #32
100023f2:	5e29      	ldrsh	r1, [r5, r0]
100023f4:	4588      	cmp	r8, r1
100023f6:	db00      	blt.n	100023fa <_ZN11ST7735_pico8drawLineEsssst+0x36e>
100023f8:	e1db      	b.n	100027b2 <_ZN11ST7735_pico8drawLineEsssst+0x726>
100023fa:	2322      	movs	r3, #34	; 0x22
100023fc:	5ee8      	ldrsh	r0, [r5, r3]
100023fe:	4290      	cmp	r0, r2
10002400:	dc00      	bgt.n	10002404 <_ZN11ST7735_pico8drawLineEsssst+0x378>
10002402:	e1d6      	b.n	100027b2 <_ZN11ST7735_pico8drawLineEsssst+0x726>
10002404:	231c      	movs	r3, #28
10002406:	5eea      	ldrsh	r2, [r5, r3]
10002408:	3401      	adds	r4, #1
1000240a:	b2a4      	uxth	r4, r4
1000240c:	4590      	cmp	r8, r2
1000240e:	da01      	bge.n	10002414 <_ZN11ST7735_pico8drawLineEsssst+0x388>
10002410:	f000 fd47 	bl	10002ea2 <_ZN11ST7735_pico8drawLineEsssst+0xe16>
10002414:	b222      	sxth	r2, r4
10002416:	9206      	str	r2, [sp, #24]
10002418:	4642      	mov	r2, r8
1000241a:	9b08      	ldr	r3, [sp, #32]
1000241c:	9309      	str	r3, [sp, #36]	; 0x24
1000241e:	9b06      	ldr	r3, [sp, #24]
10002420:	469c      	mov	ip, r3
10002422:	4462      	add	r2, ip
10002424:	428a      	cmp	r2, r1
10002426:	dd03      	ble.n	10002430 <_ZN11ST7735_pico8drawLineEsssst+0x3a4>
10002428:	9b09      	ldr	r3, [sp, #36]	; 0x24
1000242a:	1ac9      	subs	r1, r1, r3
1000242c:	b20b      	sxth	r3, r1
1000242e:	9306      	str	r3, [sp, #24]
10002430:	9b06      	ldr	r3, [sp, #24]
10002432:	2b00      	cmp	r3, #0
10002434:	dc00      	bgt.n	10002438 <_ZN11ST7735_pico8drawLineEsssst+0x3ac>
10002436:	e1bc      	b.n	100027b2 <_ZN11ST7735_pico8drawLineEsssst+0x726>
10002438:	b29b      	uxth	r3, r3
1000243a:	9308      	str	r3, [sp, #32]
1000243c:	7a6b      	ldrb	r3, [r5, #9]
1000243e:	2b00      	cmp	r3, #0
10002440:	d001      	beq.n	10002446 <_ZN11ST7735_pico8drawLineEsssst+0x3ba>
10002442:	f000 fec8 	bl	100031d6 <_ZN11ST7735_pico8drawLineEsssst+0x114a>
10002446:	2381      	movs	r3, #129	; 0x81
10002448:	2201      	movs	r2, #1
1000244a:	5ceb      	ldrb	r3, [r5, r3]
1000244c:	212a      	movs	r1, #42	; 0x2a
1000244e:	409a      	lsls	r2, r3
10002450:	0013      	movs	r3, r2
10002452:	464a      	mov	r2, r9
10002454:	6868      	ldr	r0, [r5, #4]
10002456:	6193      	str	r3, [r2, #24]
10002458:	f7fe f8a8 	bl	100005ac <_ZN3SPI5writeEh>
1000245c:	2376      	movs	r3, #118	; 0x76
1000245e:	9a09      	ldr	r2, [sp, #36]	; 0x24
10002460:	5aeb      	ldrh	r3, [r5, r3]
10002462:	4694      	mov	ip, r2
10002464:	4463      	add	r3, ip
10002466:	b29b      	uxth	r3, r3
10002468:	4698      	mov	r8, r3
1000246a:	7a6b      	ldrb	r3, [r5, #9]
1000246c:	2b00      	cmp	r3, #0
1000246e:	d101      	bne.n	10002474 <_ZN11ST7735_pico8drawLineEsssst+0x3e8>
10002470:	f000 fe9b 	bl	100031aa <_ZN11ST7735_pico8drawLineEsssst+0x111e>
10002474:	2381      	movs	r3, #129	; 0x81
10002476:	2201      	movs	r2, #1
10002478:	5ceb      	ldrb	r3, [r5, r3]
1000247a:	4641      	mov	r1, r8
1000247c:	409a      	lsls	r2, r3
1000247e:	0013      	movs	r3, r2
10002480:	464a      	mov	r2, r9
10002482:	6868      	ldr	r0, [r5, #4]
10002484:	6153      	str	r3, [r2, #20]
10002486:	f7fe f89d 	bl	100005c4 <_ZN3SPI7write16Et>
1000248a:	2376      	movs	r3, #118	; 0x76
1000248c:	9a09      	ldr	r2, [sp, #36]	; 0x24
1000248e:	5aeb      	ldrh	r3, [r5, r3]
10002490:	4694      	mov	ip, r2
10002492:	9a08      	ldr	r2, [sp, #32]
10002494:	3b01      	subs	r3, #1
10002496:	4463      	add	r3, ip
10002498:	4694      	mov	ip, r2
1000249a:	4463      	add	r3, ip
1000249c:	b29b      	uxth	r3, r3
1000249e:	4698      	mov	r8, r3
100024a0:	7a6b      	ldrb	r3, [r5, #9]
100024a2:	2b00      	cmp	r3, #0
100024a4:	d101      	bne.n	100024aa <_ZN11ST7735_pico8drawLineEsssst+0x41e>
100024a6:	f000 fef0 	bl	1000328a <_ZN11ST7735_pico8drawLineEsssst+0x11fe>
100024aa:	2381      	movs	r3, #129	; 0x81
100024ac:	2201      	movs	r2, #1
100024ae:	5ceb      	ldrb	r3, [r5, r3]
100024b0:	4641      	mov	r1, r8
100024b2:	409a      	lsls	r2, r3
100024b4:	0013      	movs	r3, r2
100024b6:	464a      	mov	r2, r9
100024b8:	6868      	ldr	r0, [r5, #4]
100024ba:	6153      	str	r3, [r2, #20]
100024bc:	f7fe f882 	bl	100005c4 <_ZN3SPI7write16Et>
100024c0:	7a6b      	ldrb	r3, [r5, #9]
100024c2:	2b00      	cmp	r3, #0
100024c4:	d001      	beq.n	100024ca <_ZN11ST7735_pico8drawLineEsssst+0x43e>
100024c6:	f000 fec9 	bl	1000325c <_ZN11ST7735_pico8drawLineEsssst+0x11d0>
100024ca:	2381      	movs	r3, #129	; 0x81
100024cc:	2201      	movs	r2, #1
100024ce:	5ceb      	ldrb	r3, [r5, r3]
100024d0:	212b      	movs	r1, #43	; 0x2b
100024d2:	409a      	lsls	r2, r3
100024d4:	0013      	movs	r3, r2
100024d6:	464a      	mov	r2, r9
100024d8:	6868      	ldr	r0, [r5, #4]
100024da:	6193      	str	r3, [r2, #24]
100024dc:	f7fe f866 	bl	100005ac <_ZN3SPI5writeEh>
100024e0:	2378      	movs	r3, #120	; 0x78
100024e2:	9a07      	ldr	r2, [sp, #28]
100024e4:	5aeb      	ldrh	r3, [r5, r3]
100024e6:	4694      	mov	ip, r2
100024e8:	4463      	add	r3, ip
100024ea:	b29b      	uxth	r3, r3
100024ec:	4698      	mov	r8, r3
100024ee:	7a6b      	ldrb	r3, [r5, #9]
100024f0:	2b00      	cmp	r3, #0
100024f2:	d101      	bne.n	100024f8 <_ZN11ST7735_pico8drawLineEsssst+0x46c>
100024f4:	f000 fe9c 	bl	10003230 <_ZN11ST7735_pico8drawLineEsssst+0x11a4>
100024f8:	2381      	movs	r3, #129	; 0x81
100024fa:	2201      	movs	r2, #1
100024fc:	5ceb      	ldrb	r3, [r5, r3]
100024fe:	4641      	mov	r1, r8
10002500:	409a      	lsls	r2, r3
10002502:	0013      	movs	r3, r2
10002504:	464a      	mov	r2, r9
10002506:	6868      	ldr	r0, [r5, #4]
10002508:	6153      	str	r3, [r2, #20]
1000250a:	f7fe f85b 	bl	100005c4 <_ZN3SPI7write16Et>
1000250e:	2378      	movs	r3, #120	; 0x78
10002510:	9a07      	ldr	r2, [sp, #28]
10002512:	5aeb      	ldrh	r3, [r5, r3]
10002514:	4694      	mov	ip, r2
10002516:	4463      	add	r3, ip
10002518:	b29b      	uxth	r3, r3
1000251a:	4698      	mov	r8, r3
1000251c:	7a6b      	ldrb	r3, [r5, #9]
1000251e:	2b00      	cmp	r3, #0
10002520:	d101      	bne.n	10002526 <_ZN11ST7735_pico8drawLineEsssst+0x49a>
10002522:	f000 fe6f 	bl	10003204 <_ZN11ST7735_pico8drawLineEsssst+0x1178>
10002526:	2381      	movs	r3, #129	; 0x81
10002528:	2201      	movs	r2, #1
1000252a:	5ceb      	ldrb	r3, [r5, r3]
1000252c:	4641      	mov	r1, r8
1000252e:	409a      	lsls	r2, r3
10002530:	0013      	movs	r3, r2
10002532:	464a      	mov	r2, r9
10002534:	6868      	ldr	r0, [r5, #4]
10002536:	6153      	str	r3, [r2, #20]
10002538:	f7fe f844 	bl	100005c4 <_ZN3SPI7write16Et>
1000253c:	7a6b      	ldrb	r3, [r5, #9]
1000253e:	2b00      	cmp	r3, #0
10002540:	d001      	beq.n	10002546 <_ZN11ST7735_pico8drawLineEsssst+0x4ba>
10002542:	f000 ff55 	bl	100033f0 <_ZN11ST7735_pico8drawLineEsssst+0x1364>
10002546:	2381      	movs	r3, #129	; 0x81
10002548:	2201      	movs	r2, #1
1000254a:	5ceb      	ldrb	r3, [r5, r3]
1000254c:	212c      	movs	r1, #44	; 0x2c
1000254e:	409a      	lsls	r2, r3
10002550:	0013      	movs	r3, r2
10002552:	464a      	mov	r2, r9
10002554:	6868      	ldr	r0, [r5, #4]
10002556:	6193      	str	r3, [r2, #24]
10002558:	f7fe f828 	bl	100005ac <_ZN3SPI5writeEh>
1000255c:	46b0      	mov	r8, r6
1000255e:	9707      	str	r7, [sp, #28]
10002560:	9c06      	ldr	r4, [sp, #24]
10002562:	9f05      	ldr	r7, [sp, #20]
10002564:	e010      	b.n	10002588 <_ZN11ST7735_pico8drawLineEsssst+0x4fc>
10002566:	2381      	movs	r3, #129	; 0x81
10002568:	2201      	movs	r2, #1
1000256a:	5ceb      	ldrb	r3, [r5, r3]
1000256c:	3c01      	subs	r4, #1
1000256e:	409a      	lsls	r2, r3
10002570:	0013      	movs	r3, r2
10002572:	464a      	mov	r2, r9
10002574:	0039      	movs	r1, r7
10002576:	6153      	str	r3, [r2, #20]
10002578:	6868      	ldr	r0, [r5, #4]
1000257a:	f7fe f823 	bl	100005c4 <_ZN3SPI7write16Et>
1000257e:	b2a3      	uxth	r3, r4
10002580:	b224      	sxth	r4, r4
10002582:	2b00      	cmp	r3, #0
10002584:	d100      	bne.n	10002588 <_ZN11ST7735_pico8drawLineEsssst+0x4fc>
10002586:	e112      	b.n	100027ae <_ZN11ST7735_pico8drawLineEsssst+0x722>
10002588:	7a6b      	ldrb	r3, [r5, #9]
1000258a:	2b00      	cmp	r3, #0
1000258c:	d1eb      	bne.n	10002566 <_ZN11ST7735_pico8drawLineEsssst+0x4da>
1000258e:	6868      	ldr	r0, [r5, #4]
10002590:	6803      	ldr	r3, [r0, #0]
10002592:	691b      	ldr	r3, [r3, #16]
10002594:	4798      	blx	r3
10002596:	2800      	cmp	r0, #0
10002598:	d1f9      	bne.n	1000258e <_ZN11ST7735_pico8drawLineEsssst+0x502>
1000259a:	2201      	movs	r2, #1
1000259c:	6868      	ldr	r0, [r5, #4]
1000259e:	2110      	movs	r1, #16
100025a0:	6803      	ldr	r3, [r0, #0]
100025a2:	9200      	str	r2, [sp, #0]
100025a4:	695e      	ldr	r6, [r3, #20]
100025a6:	2200      	movs	r2, #0
100025a8:	2300      	movs	r3, #0
100025aa:	47b0      	blx	r6
100025ac:	2201      	movs	r2, #1
100025ae:	726a      	strb	r2, [r5, #9]
100025b0:	e7d9      	b.n	10002566 <_ZN11ST7735_pico8drawLineEsssst+0x4da>
100025b2:	4be3      	ldr	r3, [pc, #908]	; (10002940 <_ZN11ST7735_pico8drawLineEsssst+0x8b4>)
100025b4:	6868      	ldr	r0, [r5, #4]
100025b6:	9302      	str	r3, [sp, #8]
100025b8:	6803      	ldr	r3, [r0, #0]
100025ba:	68db      	ldr	r3, [r3, #12]
100025bc:	4798      	blx	r3
100025be:	2800      	cmp	r0, #0
100025c0:	d000      	beq.n	100025c4 <_ZN11ST7735_pico8drawLineEsssst+0x538>
100025c2:	e5be      	b.n	10002142 <_ZN11ST7735_pico8drawLineEsssst+0xb6>
100025c4:	e5b6      	b.n	10002134 <_ZN11ST7735_pico8drawLineEsssst+0xa8>
100025c6:	4646      	mov	r6, r8
100025c8:	9f07      	ldr	r7, [sp, #28]
100025ca:	9b04      	ldr	r3, [sp, #16]
100025cc:	9902      	ldr	r1, [sp, #8]
100025ce:	469c      	mov	ip, r3
100025d0:	b230      	sxth	r0, r6
100025d2:	4451      	add	r1, sl
100025d4:	4467      	add	r7, ip
100025d6:	1c73      	adds	r3, r6, #1
100025d8:	0002      	movs	r2, r0
100025da:	b209      	sxth	r1, r1
100025dc:	b23c      	sxth	r4, r7
100025de:	b29b      	uxth	r3, r3
100025e0:	4593      	cmp	fp, r2
100025e2:	db00      	blt.n	100025e6 <_ZN11ST7735_pico8drawLineEsssst+0x55a>
100025e4:	e5c9      	b.n	1000217a <_ZN11ST7735_pico8drawLineEsssst+0xee>
100025e6:	46b2      	mov	sl, r6
100025e8:	0007      	movs	r7, r0
100025ea:	4688      	mov	r8, r1
100025ec:	1c7b      	adds	r3, r7, #1
100025ee:	429a      	cmp	r2, r3
100025f0:	dc00      	bgt.n	100025f4 <_ZN11ST7735_pico8drawLineEsssst+0x568>
100025f2:	e32d      	b.n	10002c50 <_ZN11ST7735_pico8drawLineEsssst+0xbc4>
100025f4:	8b2c      	ldrh	r4, [r5, #24]
100025f6:	221c      	movs	r2, #28
100025f8:	5eab      	ldrsh	r3, [r5, r2]
100025fa:	4444      	add	r4, r8
100025fc:	b2a6      	uxth	r6, r4
100025fe:	b224      	sxth	r4, r4
10002600:	42a3      	cmp	r3, r4
10002602:	dd00      	ble.n	10002606 <_ZN11ST7735_pico8drawLineEsssst+0x57a>
10002604:	e324      	b.n	10002c50 <_ZN11ST7735_pico8drawLineEsssst+0xbc4>
10002606:	2220      	movs	r2, #32
10002608:	5eab      	ldrsh	r3, [r5, r2]
1000260a:	42a3      	cmp	r3, r4
1000260c:	dc00      	bgt.n	10002610 <_ZN11ST7735_pico8drawLineEsssst+0x584>
1000260e:	e31f      	b.n	10002c50 <_ZN11ST7735_pico8drawLineEsssst+0xbc4>
10002610:	8b6c      	ldrh	r4, [r5, #26]
10002612:	b2bf      	uxth	r7, r7
10002614:	193b      	adds	r3, r7, r4
10002616:	b29a      	uxth	r2, r3
10002618:	4693      	mov	fp, r2
1000261a:	2222      	movs	r2, #34	; 0x22
1000261c:	5ea8      	ldrsh	r0, [r5, r2]
1000261e:	b21b      	sxth	r3, r3
10002620:	4283      	cmp	r3, r0
10002622:	db00      	blt.n	10002626 <_ZN11ST7735_pico8drawLineEsssst+0x59a>
10002624:	e314      	b.n	10002c50 <_ZN11ST7735_pico8drawLineEsssst+0xbc4>
10002626:	211e      	movs	r1, #30
10002628:	5e6a      	ldrsh	r2, [r5, r1]
1000262a:	4293      	cmp	r3, r2
1000262c:	da01      	bge.n	10002632 <_ZN11ST7735_pico8drawLineEsssst+0x5a6>
1000262e:	f000 fef6 	bl	1000341e <_ZN11ST7735_pico8drawLineEsssst+0x1392>
10002632:	4652      	mov	r2, sl
10002634:	1bd7      	subs	r7, r2, r7
10002636:	001a      	movs	r2, r3
10002638:	b23c      	sxth	r4, r7
1000263a:	1912      	adds	r2, r2, r4
1000263c:	4282      	cmp	r2, r0
1000263e:	dd02      	ble.n	10002646 <_ZN11ST7735_pico8drawLineEsssst+0x5ba>
10002640:	465b      	mov	r3, fp
10002642:	1ac0      	subs	r0, r0, r3
10002644:	b204      	sxth	r4, r0
10002646:	2c00      	cmp	r4, #0
10002648:	dc00      	bgt.n	1000264c <_ZN11ST7735_pico8drawLineEsssst+0x5c0>
1000264a:	e301      	b.n	10002c50 <_ZN11ST7735_pico8drawLineEsssst+0xbc4>
1000264c:	b2a3      	uxth	r3, r4
1000264e:	9302      	str	r3, [sp, #8]
10002650:	7a6b      	ldrb	r3, [r5, #9]
10002652:	2b00      	cmp	r3, #0
10002654:	d001      	beq.n	1000265a <_ZN11ST7735_pico8drawLineEsssst+0x5ce>
10002656:	f000 fd23 	bl	100030a0 <_ZN11ST7735_pico8drawLineEsssst+0x1014>
1000265a:	2381      	movs	r3, #129	; 0x81
1000265c:	5cea      	ldrb	r2, [r5, r3]
1000265e:	3b80      	subs	r3, #128	; 0x80
10002660:	4093      	lsls	r3, r2
10002662:	22d0      	movs	r2, #208	; 0xd0
10002664:	0612      	lsls	r2, r2, #24
10002666:	6193      	str	r3, [r2, #24]
10002668:	212a      	movs	r1, #42	; 0x2a
1000266a:	6868      	ldr	r0, [r5, #4]
1000266c:	f7fd ff9e 	bl	100005ac <_ZN3SPI5writeEh>
10002670:	2376      	movs	r3, #118	; 0x76
10002672:	5aeb      	ldrh	r3, [r5, r3]
10002674:	18f3      	adds	r3, r6, r3
10002676:	b29b      	uxth	r3, r3
10002678:	4698      	mov	r8, r3
1000267a:	7a6b      	ldrb	r3, [r5, #9]
1000267c:	2b00      	cmp	r3, #0
1000267e:	d101      	bne.n	10002684 <_ZN11ST7735_pico8drawLineEsssst+0x5f8>
10002680:	f000 fd22 	bl	100030c8 <_ZN11ST7735_pico8drawLineEsssst+0x103c>
10002684:	2381      	movs	r3, #129	; 0x81
10002686:	5cea      	ldrb	r2, [r5, r3]
10002688:	3b80      	subs	r3, #128	; 0x80
1000268a:	4093      	lsls	r3, r2
1000268c:	22d0      	movs	r2, #208	; 0xd0
1000268e:	0612      	lsls	r2, r2, #24
10002690:	6153      	str	r3, [r2, #20]
10002692:	4641      	mov	r1, r8
10002694:	6868      	ldr	r0, [r5, #4]
10002696:	f7fd ff95 	bl	100005c4 <_ZN3SPI7write16Et>
1000269a:	2376      	movs	r3, #118	; 0x76
1000269c:	5aeb      	ldrh	r3, [r5, r3]
1000269e:	18f6      	adds	r6, r6, r3
100026a0:	7a6b      	ldrb	r3, [r5, #9]
100026a2:	b2b6      	uxth	r6, r6
100026a4:	2b00      	cmp	r3, #0
100026a6:	d101      	bne.n	100026ac <_ZN11ST7735_pico8drawLineEsssst+0x620>
100026a8:	f000 fce5 	bl	10003076 <_ZN11ST7735_pico8drawLineEsssst+0xfea>
100026ac:	2381      	movs	r3, #129	; 0x81
100026ae:	5cea      	ldrb	r2, [r5, r3]
100026b0:	3b80      	subs	r3, #128	; 0x80
100026b2:	4093      	lsls	r3, r2
100026b4:	22d0      	movs	r2, #208	; 0xd0
100026b6:	0612      	lsls	r2, r2, #24
100026b8:	6153      	str	r3, [r2, #20]
100026ba:	0031      	movs	r1, r6
100026bc:	6868      	ldr	r0, [r5, #4]
100026be:	f7fd ff81 	bl	100005c4 <_ZN3SPI7write16Et>
100026c2:	7a6b      	ldrb	r3, [r5, #9]
100026c4:	2b00      	cmp	r3, #0
100026c6:	d001      	beq.n	100026cc <_ZN11ST7735_pico8drawLineEsssst+0x640>
100026c8:	f000 fcc1 	bl	1000304e <_ZN11ST7735_pico8drawLineEsssst+0xfc2>
100026cc:	2381      	movs	r3, #129	; 0x81
100026ce:	5cea      	ldrb	r2, [r5, r3]
100026d0:	3b80      	subs	r3, #128	; 0x80
100026d2:	4093      	lsls	r3, r2
100026d4:	22d0      	movs	r2, #208	; 0xd0
100026d6:	0612      	lsls	r2, r2, #24
100026d8:	6193      	str	r3, [r2, #24]
100026da:	212b      	movs	r1, #43	; 0x2b
100026dc:	6868      	ldr	r0, [r5, #4]
100026de:	f7fd ff65 	bl	100005ac <_ZN3SPI5writeEh>
100026e2:	2378      	movs	r3, #120	; 0x78
100026e4:	5aee      	ldrh	r6, [r5, r3]
100026e6:	7a6b      	ldrb	r3, [r5, #9]
100026e8:	445e      	add	r6, fp
100026ea:	b2b6      	uxth	r6, r6
100026ec:	2b00      	cmp	r3, #0
100026ee:	d101      	bne.n	100026f4 <_ZN11ST7735_pico8drawLineEsssst+0x668>
100026f0:	f000 fc98 	bl	10003024 <_ZN11ST7735_pico8drawLineEsssst+0xf98>
100026f4:	2381      	movs	r3, #129	; 0x81
100026f6:	5cea      	ldrb	r2, [r5, r3]
100026f8:	3b80      	subs	r3, #128	; 0x80
100026fa:	4093      	lsls	r3, r2
100026fc:	22d0      	movs	r2, #208	; 0xd0
100026fe:	0612      	lsls	r2, r2, #24
10002700:	6153      	str	r3, [r2, #20]
10002702:	0031      	movs	r1, r6
10002704:	6868      	ldr	r0, [r5, #4]
10002706:	f7fd ff5d 	bl	100005c4 <_ZN3SPI7write16Et>
1000270a:	2378      	movs	r3, #120	; 0x78
1000270c:	9a02      	ldr	r2, [sp, #8]
1000270e:	5aeb      	ldrh	r3, [r5, r3]
10002710:	4694      	mov	ip, r2
10002712:	3b01      	subs	r3, #1
10002714:	445b      	add	r3, fp
10002716:	4463      	add	r3, ip
10002718:	b29f      	uxth	r7, r3
1000271a:	7a6b      	ldrb	r3, [r5, #9]
1000271c:	2b00      	cmp	r3, #0
1000271e:	d101      	bne.n	10002724 <_ZN11ST7735_pico8drawLineEsssst+0x698>
10002720:	f000 fc6d 	bl	10002ffe <_ZN11ST7735_pico8drawLineEsssst+0xf72>
10002724:	2381      	movs	r3, #129	; 0x81
10002726:	5cea      	ldrb	r2, [r5, r3]
10002728:	3b80      	subs	r3, #128	; 0x80
1000272a:	4093      	lsls	r3, r2
1000272c:	22d0      	movs	r2, #208	; 0xd0
1000272e:	0612      	lsls	r2, r2, #24
10002730:	6153      	str	r3, [r2, #20]
10002732:	0039      	movs	r1, r7
10002734:	6868      	ldr	r0, [r5, #4]
10002736:	f7fd ff45 	bl	100005c4 <_ZN3SPI7write16Et>
1000273a:	7a6b      	ldrb	r3, [r5, #9]
1000273c:	2b00      	cmp	r3, #0
1000273e:	d001      	beq.n	10002744 <_ZN11ST7735_pico8drawLineEsssst+0x6b8>
10002740:	f000 fc4a 	bl	10002fd8 <_ZN11ST7735_pico8drawLineEsssst+0xf4c>
10002744:	2381      	movs	r3, #129	; 0x81
10002746:	5cea      	ldrb	r2, [r5, r3]
10002748:	26d0      	movs	r6, #208	; 0xd0
1000274a:	3b80      	subs	r3, #128	; 0x80
1000274c:	4093      	lsls	r3, r2
1000274e:	0636      	lsls	r6, r6, #24
10002750:	61b3      	str	r3, [r6, #24]
10002752:	212c      	movs	r1, #44	; 0x2c
10002754:	6868      	ldr	r0, [r5, #4]
10002756:	f7fd ff29 	bl	100005ac <_ZN3SPI5writeEh>
1000275a:	2301      	movs	r3, #1
1000275c:	4699      	mov	r9, r3
1000275e:	9b05      	ldr	r3, [sp, #20]
10002760:	2781      	movs	r7, #129	; 0x81
10002762:	4698      	mov	r8, r3
10002764:	e00d      	b.n	10002782 <_ZN11ST7735_pico8drawLineEsssst+0x6f6>
10002766:	464a      	mov	r2, r9
10002768:	5deb      	ldrb	r3, [r5, r7]
1000276a:	3c01      	subs	r4, #1
1000276c:	409a      	lsls	r2, r3
1000276e:	4641      	mov	r1, r8
10002770:	6868      	ldr	r0, [r5, #4]
10002772:	6172      	str	r2, [r6, #20]
10002774:	f7fd ff26 	bl	100005c4 <_ZN3SPI7write16Et>
10002778:	b2a3      	uxth	r3, r4
1000277a:	b224      	sxth	r4, r4
1000277c:	2b00      	cmp	r3, #0
1000277e:	d100      	bne.n	10002782 <_ZN11ST7735_pico8drawLineEsssst+0x6f6>
10002780:	e266      	b.n	10002c50 <_ZN11ST7735_pico8drawLineEsssst+0xbc4>
10002782:	7a6b      	ldrb	r3, [r5, #9]
10002784:	2b00      	cmp	r3, #0
10002786:	d1ee      	bne.n	10002766 <_ZN11ST7735_pico8drawLineEsssst+0x6da>
10002788:	6868      	ldr	r0, [r5, #4]
1000278a:	6803      	ldr	r3, [r0, #0]
1000278c:	691b      	ldr	r3, [r3, #16]
1000278e:	4798      	blx	r3
10002790:	2800      	cmp	r0, #0
10002792:	d1f9      	bne.n	10002788 <_ZN11ST7735_pico8drawLineEsssst+0x6fc>
10002794:	464a      	mov	r2, r9
10002796:	6868      	ldr	r0, [r5, #4]
10002798:	2110      	movs	r1, #16
1000279a:	6803      	ldr	r3, [r0, #0]
1000279c:	9200      	str	r2, [sp, #0]
1000279e:	695b      	ldr	r3, [r3, #20]
100027a0:	2200      	movs	r2, #0
100027a2:	469a      	mov	sl, r3
100027a4:	2300      	movs	r3, #0
100027a6:	47d0      	blx	sl
100027a8:	464b      	mov	r3, r9
100027aa:	726b      	strb	r3, [r5, #9]
100027ac:	e7db      	b.n	10002766 <_ZN11ST7735_pico8drawLineEsssst+0x6da>
100027ae:	4646      	mov	r6, r8
100027b0:	9f07      	ldr	r7, [sp, #28]
100027b2:	9a04      	ldr	r2, [sp, #16]
100027b4:	9802      	ldr	r0, [sp, #8]
100027b6:	4694      	mov	ip, r2
100027b8:	b233      	sxth	r3, r6
100027ba:	4450      	add	r0, sl
100027bc:	4467      	add	r7, ip
100027be:	1c71      	adds	r1, r6, #1
100027c0:	001a      	movs	r2, r3
100027c2:	b200      	sxth	r0, r0
100027c4:	b23c      	sxth	r4, r7
100027c6:	b289      	uxth	r1, r1
100027c8:	4593      	cmp	fp, r2
100027ca:	db00      	blt.n	100027ce <_ZN11ST7735_pico8drawLineEsssst+0x742>
100027cc:	e5ef      	b.n	100023ae <_ZN11ST7735_pico8drawLineEsssst+0x322>
100027ce:	46b2      	mov	sl, r6
100027d0:	001f      	movs	r7, r3
100027d2:	4680      	mov	r8, r0
100027d4:	1c7b      	adds	r3, r7, #1
100027d6:	429a      	cmp	r2, r3
100027d8:	dc00      	bgt.n	100027dc <_ZN11ST7735_pico8drawLineEsssst+0x750>
100027da:	e239      	b.n	10002c50 <_ZN11ST7735_pico8drawLineEsssst+0xbc4>
100027dc:	8b6c      	ldrh	r4, [r5, #26]
100027de:	221e      	movs	r2, #30
100027e0:	5eab      	ldrsh	r3, [r5, r2]
100027e2:	4444      	add	r4, r8
100027e4:	b2a6      	uxth	r6, r4
100027e6:	b224      	sxth	r4, r4
100027e8:	42a3      	cmp	r3, r4
100027ea:	dd00      	ble.n	100027ee <_ZN11ST7735_pico8drawLineEsssst+0x762>
100027ec:	e230      	b.n	10002c50 <_ZN11ST7735_pico8drawLineEsssst+0xbc4>
100027ee:	8b2b      	ldrh	r3, [r5, #24]
100027f0:	b2bf      	uxth	r7, r7
100027f2:	469c      	mov	ip, r3
100027f4:	18fb      	adds	r3, r7, r3
100027f6:	b29a      	uxth	r2, r3
100027f8:	4693      	mov	fp, r2
100027fa:	2020      	movs	r0, #32
100027fc:	5e2a      	ldrsh	r2, [r5, r0]
100027fe:	b21b      	sxth	r3, r3
10002800:	4293      	cmp	r3, r2
10002802:	db00      	blt.n	10002806 <_ZN11ST7735_pico8drawLineEsssst+0x77a>
10002804:	e224      	b.n	10002c50 <_ZN11ST7735_pico8drawLineEsssst+0xbc4>
10002806:	2122      	movs	r1, #34	; 0x22
10002808:	5e68      	ldrsh	r0, [r5, r1]
1000280a:	42a0      	cmp	r0, r4
1000280c:	dc00      	bgt.n	10002810 <_ZN11ST7735_pico8drawLineEsssst+0x784>
1000280e:	e21f      	b.n	10002c50 <_ZN11ST7735_pico8drawLineEsssst+0xbc4>
10002810:	211c      	movs	r1, #28
10002812:	5e68      	ldrsh	r0, [r5, r1]
10002814:	4283      	cmp	r3, r0
10002816:	da01      	bge.n	1000281c <_ZN11ST7735_pico8drawLineEsssst+0x790>
10002818:	f000 fe08 	bl	1000342c <_ZN11ST7735_pico8drawLineEsssst+0x13a0>
1000281c:	4651      	mov	r1, sl
1000281e:	0018      	movs	r0, r3
10002820:	1bcf      	subs	r7, r1, r7
10002822:	b23c      	sxth	r4, r7
10002824:	1900      	adds	r0, r0, r4
10002826:	4290      	cmp	r0, r2
10002828:	dd02      	ble.n	10002830 <_ZN11ST7735_pico8drawLineEsssst+0x7a4>
1000282a:	465b      	mov	r3, fp
1000282c:	1ad4      	subs	r4, r2, r3
1000282e:	b224      	sxth	r4, r4
10002830:	2c00      	cmp	r4, #0
10002832:	dc00      	bgt.n	10002836 <_ZN11ST7735_pico8drawLineEsssst+0x7aa>
10002834:	e20c      	b.n	10002c50 <_ZN11ST7735_pico8drawLineEsssst+0xbc4>
10002836:	b2a3      	uxth	r3, r4
10002838:	469a      	mov	sl, r3
1000283a:	7a6b      	ldrb	r3, [r5, #9]
1000283c:	2b00      	cmp	r3, #0
1000283e:	d000      	beq.n	10002842 <_ZN11ST7735_pico8drawLineEsssst+0x7b6>
10002840:	e38f      	b.n	10002f62 <_ZN11ST7735_pico8drawLineEsssst+0xed6>
10002842:	2381      	movs	r3, #129	; 0x81
10002844:	5cea      	ldrb	r2, [r5, r3]
10002846:	3b80      	subs	r3, #128	; 0x80
10002848:	4093      	lsls	r3, r2
1000284a:	22d0      	movs	r2, #208	; 0xd0
1000284c:	0612      	lsls	r2, r2, #24
1000284e:	6193      	str	r3, [r2, #24]
10002850:	212a      	movs	r1, #42	; 0x2a
10002852:	6868      	ldr	r0, [r5, #4]
10002854:	f7fd feaa 	bl	100005ac <_ZN3SPI5writeEh>
10002858:	2376      	movs	r3, #118	; 0x76
1000285a:	5aeb      	ldrh	r3, [r5, r3]
1000285c:	445b      	add	r3, fp
1000285e:	b29b      	uxth	r3, r3
10002860:	4698      	mov	r8, r3
10002862:	7a6b      	ldrb	r3, [r5, #9]
10002864:	2b00      	cmp	r3, #0
10002866:	d100      	bne.n	1000286a <_ZN11ST7735_pico8drawLineEsssst+0x7de>
10002868:	e355      	b.n	10002f16 <_ZN11ST7735_pico8drawLineEsssst+0xe8a>
1000286a:	2381      	movs	r3, #129	; 0x81
1000286c:	5cea      	ldrb	r2, [r5, r3]
1000286e:	3b80      	subs	r3, #128	; 0x80
10002870:	4093      	lsls	r3, r2
10002872:	22d0      	movs	r2, #208	; 0xd0
10002874:	0612      	lsls	r2, r2, #24
10002876:	6153      	str	r3, [r2, #20]
10002878:	4641      	mov	r1, r8
1000287a:	6868      	ldr	r0, [r5, #4]
1000287c:	f7fd fea2 	bl	100005c4 <_ZN3SPI7write16Et>
10002880:	2376      	movs	r3, #118	; 0x76
10002882:	5aeb      	ldrh	r3, [r5, r3]
10002884:	3b01      	subs	r3, #1
10002886:	445b      	add	r3, fp
10002888:	4453      	add	r3, sl
1000288a:	b29f      	uxth	r7, r3
1000288c:	7a6b      	ldrb	r3, [r5, #9]
1000288e:	2b00      	cmp	r3, #0
10002890:	d100      	bne.n	10002894 <_ZN11ST7735_pico8drawLineEsssst+0x808>
10002892:	e38d      	b.n	10002fb0 <_ZN11ST7735_pico8drawLineEsssst+0xf24>
10002894:	2381      	movs	r3, #129	; 0x81
10002896:	5cea      	ldrb	r2, [r5, r3]
10002898:	3b80      	subs	r3, #128	; 0x80
1000289a:	4093      	lsls	r3, r2
1000289c:	22d0      	movs	r2, #208	; 0xd0
1000289e:	0612      	lsls	r2, r2, #24
100028a0:	6153      	str	r3, [r2, #20]
100028a2:	0039      	movs	r1, r7
100028a4:	6868      	ldr	r0, [r5, #4]
100028a6:	f7fd fe8d 	bl	100005c4 <_ZN3SPI7write16Et>
100028aa:	7a6b      	ldrb	r3, [r5, #9]
100028ac:	2b00      	cmp	r3, #0
100028ae:	d000      	beq.n	100028b2 <_ZN11ST7735_pico8drawLineEsssst+0x826>
100028b0:	e344      	b.n	10002f3c <_ZN11ST7735_pico8drawLineEsssst+0xeb0>
100028b2:	2381      	movs	r3, #129	; 0x81
100028b4:	5cea      	ldrb	r2, [r5, r3]
100028b6:	3b80      	subs	r3, #128	; 0x80
100028b8:	4093      	lsls	r3, r2
100028ba:	22d0      	movs	r2, #208	; 0xd0
100028bc:	0612      	lsls	r2, r2, #24
100028be:	6193      	str	r3, [r2, #24]
100028c0:	212b      	movs	r1, #43	; 0x2b
100028c2:	6868      	ldr	r0, [r5, #4]
100028c4:	f7fd fe72 	bl	100005ac <_ZN3SPI5writeEh>
100028c8:	2378      	movs	r3, #120	; 0x78
100028ca:	5aeb      	ldrh	r3, [r5, r3]
100028cc:	18f3      	adds	r3, r6, r3
100028ce:	b29f      	uxth	r7, r3
100028d0:	7a6b      	ldrb	r3, [r5, #9]
100028d2:	2b00      	cmp	r3, #0
100028d4:	d100      	bne.n	100028d8 <_ZN11ST7735_pico8drawLineEsssst+0x84c>
100028d6:	e357      	b.n	10002f88 <_ZN11ST7735_pico8drawLineEsssst+0xefc>
100028d8:	2381      	movs	r3, #129	; 0x81
100028da:	5cea      	ldrb	r2, [r5, r3]
100028dc:	3b80      	subs	r3, #128	; 0x80
100028de:	4093      	lsls	r3, r2
100028e0:	22d0      	movs	r2, #208	; 0xd0
100028e2:	0612      	lsls	r2, r2, #24
100028e4:	6153      	str	r3, [r2, #20]
100028e6:	0039      	movs	r1, r7
100028e8:	6868      	ldr	r0, [r5, #4]
100028ea:	f7fd fe6b 	bl	100005c4 <_ZN3SPI7write16Et>
100028ee:	2378      	movs	r3, #120	; 0x78
100028f0:	5aeb      	ldrh	r3, [r5, r3]
100028f2:	18f6      	adds	r6, r6, r3
100028f4:	7a6b      	ldrb	r3, [r5, #9]
100028f6:	b2b6      	uxth	r6, r6
100028f8:	2b00      	cmp	r3, #0
100028fa:	d100      	bne.n	100028fe <_ZN11ST7735_pico8drawLineEsssst+0x872>
100028fc:	e2f8      	b.n	10002ef0 <_ZN11ST7735_pico8drawLineEsssst+0xe64>
100028fe:	2381      	movs	r3, #129	; 0x81
10002900:	5cea      	ldrb	r2, [r5, r3]
10002902:	3b80      	subs	r3, #128	; 0x80
10002904:	4093      	lsls	r3, r2
10002906:	22d0      	movs	r2, #208	; 0xd0
10002908:	0612      	lsls	r2, r2, #24
1000290a:	6153      	str	r3, [r2, #20]
1000290c:	0031      	movs	r1, r6
1000290e:	6868      	ldr	r0, [r5, #4]
10002910:	f7fd fe58 	bl	100005c4 <_ZN3SPI7write16Et>
10002914:	7a6b      	ldrb	r3, [r5, #9]
10002916:	2b00      	cmp	r3, #0
10002918:	d000      	beq.n	1000291c <_ZN11ST7735_pico8drawLineEsssst+0x890>
1000291a:	e2d7      	b.n	10002ecc <_ZN11ST7735_pico8drawLineEsssst+0xe40>
1000291c:	2381      	movs	r3, #129	; 0x81
1000291e:	5cea      	ldrb	r2, [r5, r3]
10002920:	26d0      	movs	r6, #208	; 0xd0
10002922:	3b80      	subs	r3, #128	; 0x80
10002924:	4093      	lsls	r3, r2
10002926:	0636      	lsls	r6, r6, #24
10002928:	61b3      	str	r3, [r6, #24]
1000292a:	212c      	movs	r1, #44	; 0x2c
1000292c:	6868      	ldr	r0, [r5, #4]
1000292e:	f7fd fe3d 	bl	100005ac <_ZN3SPI5writeEh>
10002932:	2301      	movs	r3, #1
10002934:	4699      	mov	r9, r3
10002936:	9b05      	ldr	r3, [sp, #20]
10002938:	2781      	movs	r7, #129	; 0x81
1000293a:	4698      	mov	r8, r3
1000293c:	e010      	b.n	10002960 <_ZN11ST7735_pico8drawLineEsssst+0x8d4>
1000293e:	46c0      	nop			; (mov r8, r8)
10002940:	0000ffff 	.word	0x0000ffff
10002944:	464a      	mov	r2, r9
10002946:	5deb      	ldrb	r3, [r5, r7]
10002948:	3c01      	subs	r4, #1
1000294a:	409a      	lsls	r2, r3
1000294c:	4641      	mov	r1, r8
1000294e:	6868      	ldr	r0, [r5, #4]
10002950:	6172      	str	r2, [r6, #20]
10002952:	f7fd fe37 	bl	100005c4 <_ZN3SPI7write16Et>
10002956:	b2a3      	uxth	r3, r4
10002958:	b224      	sxth	r4, r4
1000295a:	2b00      	cmp	r3, #0
1000295c:	d100      	bne.n	10002960 <_ZN11ST7735_pico8drawLineEsssst+0x8d4>
1000295e:	e177      	b.n	10002c50 <_ZN11ST7735_pico8drawLineEsssst+0xbc4>
10002960:	7a6b      	ldrb	r3, [r5, #9]
10002962:	2b00      	cmp	r3, #0
10002964:	d1ee      	bne.n	10002944 <_ZN11ST7735_pico8drawLineEsssst+0x8b8>
10002966:	6868      	ldr	r0, [r5, #4]
10002968:	6803      	ldr	r3, [r0, #0]
1000296a:	691b      	ldr	r3, [r3, #16]
1000296c:	4798      	blx	r3
1000296e:	2800      	cmp	r0, #0
10002970:	d1f9      	bne.n	10002966 <_ZN11ST7735_pico8drawLineEsssst+0x8da>
10002972:	464a      	mov	r2, r9
10002974:	6868      	ldr	r0, [r5, #4]
10002976:	2110      	movs	r1, #16
10002978:	6803      	ldr	r3, [r0, #0]
1000297a:	9200      	str	r2, [sp, #0]
1000297c:	695b      	ldr	r3, [r3, #20]
1000297e:	2200      	movs	r2, #0
10002980:	469a      	mov	sl, r3
10002982:	2300      	movs	r3, #0
10002984:	47d0      	blx	sl
10002986:	464b      	mov	r3, r9
10002988:	726b      	strb	r3, [r5, #9]
1000298a:	e7db      	b.n	10002944 <_ZN11ST7735_pico8drawLineEsssst+0x8b8>
1000298c:	b28a      	uxth	r2, r1
1000298e:	4692      	mov	sl, r2
10002990:	8b2a      	ldrh	r2, [r5, #24]
10002992:	4452      	add	r2, sl
10002994:	b291      	uxth	r1, r2
10002996:	9106      	str	r1, [sp, #24]
10002998:	201c      	movs	r0, #28
1000299a:	5e29      	ldrsh	r1, [r5, r0]
1000299c:	b212      	sxth	r2, r2
1000299e:	4291      	cmp	r1, r2
100029a0:	dd00      	ble.n	100029a4 <_ZN11ST7735_pico8drawLineEsssst+0x918>
100029a2:	e612      	b.n	100025ca <_ZN11ST7735_pico8drawLineEsssst+0x53e>
100029a4:	2020      	movs	r0, #32
100029a6:	5e29      	ldrsh	r1, [r5, r0]
100029a8:	4291      	cmp	r1, r2
100029aa:	dc00      	bgt.n	100029ae <_ZN11ST7735_pico8drawLineEsssst+0x922>
100029ac:	e60d      	b.n	100025ca <_ZN11ST7735_pico8drawLineEsssst+0x53e>
100029ae:	8b6a      	ldrh	r2, [r5, #26]
100029b0:	189b      	adds	r3, r3, r2
100029b2:	b29a      	uxth	r2, r3
100029b4:	9207      	str	r2, [sp, #28]
100029b6:	211e      	movs	r1, #30
100029b8:	5e6a      	ldrsh	r2, [r5, r1]
100029ba:	b21b      	sxth	r3, r3
100029bc:	429a      	cmp	r2, r3
100029be:	dd00      	ble.n	100029c2 <_ZN11ST7735_pico8drawLineEsssst+0x936>
100029c0:	e603      	b.n	100025ca <_ZN11ST7735_pico8drawLineEsssst+0x53e>
100029c2:	2122      	movs	r1, #34	; 0x22
100029c4:	5e6a      	ldrsh	r2, [r5, r1]
100029c6:	429a      	cmp	r2, r3
100029c8:	dc00      	bgt.n	100029cc <_ZN11ST7735_pico8drawLineEsssst+0x940>
100029ca:	e5fe      	b.n	100025ca <_ZN11ST7735_pico8drawLineEsssst+0x53e>
100029cc:	7a6b      	ldrb	r3, [r5, #9]
100029ce:	2b00      	cmp	r3, #0
100029d0:	d000      	beq.n	100029d4 <_ZN11ST7735_pico8drawLineEsssst+0x948>
100029d2:	e38e      	b.n	100030f2 <_ZN11ST7735_pico8drawLineEsssst+0x1066>
100029d4:	2381      	movs	r3, #129	; 0x81
100029d6:	2201      	movs	r2, #1
100029d8:	5ceb      	ldrb	r3, [r5, r3]
100029da:	212a      	movs	r1, #42	; 0x2a
100029dc:	409a      	lsls	r2, r3
100029de:	0013      	movs	r3, r2
100029e0:	464a      	mov	r2, r9
100029e2:	6868      	ldr	r0, [r5, #4]
100029e4:	6193      	str	r3, [r2, #24]
100029e6:	f7fd fde1 	bl	100005ac <_ZN3SPI5writeEh>
100029ea:	2376      	movs	r3, #118	; 0x76
100029ec:	9a06      	ldr	r2, [sp, #24]
100029ee:	5aeb      	ldrh	r3, [r5, r3]
100029f0:	4694      	mov	ip, r2
100029f2:	4463      	add	r3, ip
100029f4:	b29b      	uxth	r3, r3
100029f6:	4698      	mov	r8, r3
100029f8:	7a6b      	ldrb	r3, [r5, #9]
100029fa:	2b00      	cmp	r3, #0
100029fc:	d100      	bne.n	10002a00 <_ZN11ST7735_pico8drawLineEsssst+0x974>
100029fe:	e3a4      	b.n	1000314a <_ZN11ST7735_pico8drawLineEsssst+0x10be>
10002a00:	2381      	movs	r3, #129	; 0x81
10002a02:	2201      	movs	r2, #1
10002a04:	5ceb      	ldrb	r3, [r5, r3]
10002a06:	4641      	mov	r1, r8
10002a08:	409a      	lsls	r2, r3
10002a0a:	0013      	movs	r3, r2
10002a0c:	464a      	mov	r2, r9
10002a0e:	6868      	ldr	r0, [r5, #4]
10002a10:	6153      	str	r3, [r2, #20]
10002a12:	f7fd fdd7 	bl	100005c4 <_ZN3SPI7write16Et>
10002a16:	2376      	movs	r3, #118	; 0x76
10002a18:	9a06      	ldr	r2, [sp, #24]
10002a1a:	5aeb      	ldrh	r3, [r5, r3]
10002a1c:	18d4      	adds	r4, r2, r3
10002a1e:	7a6b      	ldrb	r3, [r5, #9]
10002a20:	b2a4      	uxth	r4, r4
10002a22:	2b00      	cmp	r3, #0
10002a24:	d100      	bne.n	10002a28 <_ZN11ST7735_pico8drawLineEsssst+0x99c>
10002a26:	e1b5      	b.n	10002d94 <_ZN11ST7735_pico8drawLineEsssst+0xd08>
10002a28:	2381      	movs	r3, #129	; 0x81
10002a2a:	2201      	movs	r2, #1
10002a2c:	5ceb      	ldrb	r3, [r5, r3]
10002a2e:	0021      	movs	r1, r4
10002a30:	409a      	lsls	r2, r3
10002a32:	0013      	movs	r3, r2
10002a34:	464a      	mov	r2, r9
10002a36:	6868      	ldr	r0, [r5, #4]
10002a38:	6153      	str	r3, [r2, #20]
10002a3a:	f7fd fdc3 	bl	100005c4 <_ZN3SPI7write16Et>
10002a3e:	7a6b      	ldrb	r3, [r5, #9]
10002a40:	2b00      	cmp	r3, #0
10002a42:	d000      	beq.n	10002a46 <_ZN11ST7735_pico8drawLineEsssst+0x9ba>
10002a44:	e1b9      	b.n	10002dba <_ZN11ST7735_pico8drawLineEsssst+0xd2e>
10002a46:	2381      	movs	r3, #129	; 0x81
10002a48:	2201      	movs	r2, #1
10002a4a:	5ceb      	ldrb	r3, [r5, r3]
10002a4c:	212b      	movs	r1, #43	; 0x2b
10002a4e:	409a      	lsls	r2, r3
10002a50:	0013      	movs	r3, r2
10002a52:	464a      	mov	r2, r9
10002a54:	6868      	ldr	r0, [r5, #4]
10002a56:	6193      	str	r3, [r2, #24]
10002a58:	f7fd fda8 	bl	100005ac <_ZN3SPI5writeEh>
10002a5c:	2378      	movs	r3, #120	; 0x78
10002a5e:	5aec      	ldrh	r4, [r5, r3]
10002a60:	9b07      	ldr	r3, [sp, #28]
10002a62:	469c      	mov	ip, r3
10002a64:	7a6b      	ldrb	r3, [r5, #9]
10002a66:	4464      	add	r4, ip
10002a68:	b2a4      	uxth	r4, r4
10002a6a:	2b00      	cmp	r3, #0
10002a6c:	d100      	bne.n	10002a70 <_ZN11ST7735_pico8drawLineEsssst+0x9e4>
10002a6e:	e1b7      	b.n	10002de0 <_ZN11ST7735_pico8drawLineEsssst+0xd54>
10002a70:	2381      	movs	r3, #129	; 0x81
10002a72:	2201      	movs	r2, #1
10002a74:	5ceb      	ldrb	r3, [r5, r3]
10002a76:	0021      	movs	r1, r4
10002a78:	409a      	lsls	r2, r3
10002a7a:	0013      	movs	r3, r2
10002a7c:	464a      	mov	r2, r9
10002a7e:	6868      	ldr	r0, [r5, #4]
10002a80:	6153      	str	r3, [r2, #20]
10002a82:	f7fd fd9f 	bl	100005c4 <_ZN3SPI7write16Et>
10002a86:	2378      	movs	r3, #120	; 0x78
10002a88:	5aec      	ldrh	r4, [r5, r3]
10002a8a:	9b07      	ldr	r3, [sp, #28]
10002a8c:	469c      	mov	ip, r3
10002a8e:	7a6b      	ldrb	r3, [r5, #9]
10002a90:	4464      	add	r4, ip
10002a92:	b2a4      	uxth	r4, r4
10002a94:	2b00      	cmp	r3, #0
10002a96:	d100      	bne.n	10002a9a <_ZN11ST7735_pico8drawLineEsssst+0xa0e>
10002a98:	e1b5      	b.n	10002e06 <_ZN11ST7735_pico8drawLineEsssst+0xd7a>
10002a9a:	2381      	movs	r3, #129	; 0x81
10002a9c:	2201      	movs	r2, #1
10002a9e:	5ceb      	ldrb	r3, [r5, r3]
10002aa0:	0021      	movs	r1, r4
10002aa2:	409a      	lsls	r2, r3
10002aa4:	0013      	movs	r3, r2
10002aa6:	464a      	mov	r2, r9
10002aa8:	6868      	ldr	r0, [r5, #4]
10002aaa:	6153      	str	r3, [r2, #20]
10002aac:	f7fd fd8a 	bl	100005c4 <_ZN3SPI7write16Et>
10002ab0:	7a6b      	ldrb	r3, [r5, #9]
10002ab2:	2b00      	cmp	r3, #0
10002ab4:	d000      	beq.n	10002ab8 <_ZN11ST7735_pico8drawLineEsssst+0xa2c>
10002ab6:	e1b9      	b.n	10002e2c <_ZN11ST7735_pico8drawLineEsssst+0xda0>
10002ab8:	2381      	movs	r3, #129	; 0x81
10002aba:	2201      	movs	r2, #1
10002abc:	5ceb      	ldrb	r3, [r5, r3]
10002abe:	212c      	movs	r1, #44	; 0x2c
10002ac0:	409a      	lsls	r2, r3
10002ac2:	0013      	movs	r3, r2
10002ac4:	464a      	mov	r2, r9
10002ac6:	6868      	ldr	r0, [r5, #4]
10002ac8:	6193      	str	r3, [r2, #24]
10002aca:	f7fd fd6f 	bl	100005ac <_ZN3SPI5writeEh>
10002ace:	7a6b      	ldrb	r3, [r5, #9]
10002ad0:	2b00      	cmp	r3, #0
10002ad2:	d100      	bne.n	10002ad6 <_ZN11ST7735_pico8drawLineEsssst+0xa4a>
10002ad4:	e1bd      	b.n	10002e52 <_ZN11ST7735_pico8drawLineEsssst+0xdc6>
10002ad6:	2381      	movs	r3, #129	; 0x81
10002ad8:	2201      	movs	r2, #1
10002ada:	5ceb      	ldrb	r3, [r5, r3]
10002adc:	9905      	ldr	r1, [sp, #20]
10002ade:	409a      	lsls	r2, r3
10002ae0:	0013      	movs	r3, r2
10002ae2:	464a      	mov	r2, r9
10002ae4:	6868      	ldr	r0, [r5, #4]
10002ae6:	6153      	str	r3, [r2, #20]
10002ae8:	f7fd fd6c 	bl	100005c4 <_ZN3SPI7write16Et>
10002aec:	e56d      	b.n	100025ca <_ZN11ST7735_pico8drawLineEsssst+0x53e>
10002aee:	8b2b      	ldrh	r3, [r5, #24]
10002af0:	18d2      	adds	r2, r2, r3
10002af2:	b293      	uxth	r3, r2
10002af4:	9306      	str	r3, [sp, #24]
10002af6:	b283      	uxth	r3, r0
10002af8:	469a      	mov	sl, r3
10002afa:	211c      	movs	r1, #28
10002afc:	5e6b      	ldrsh	r3, [r5, r1]
10002afe:	b212      	sxth	r2, r2
10002b00:	4293      	cmp	r3, r2
10002b02:	dd00      	ble.n	10002b06 <_ZN11ST7735_pico8drawLineEsssst+0xa7a>
10002b04:	e655      	b.n	100027b2 <_ZN11ST7735_pico8drawLineEsssst+0x726>
10002b06:	2120      	movs	r1, #32
10002b08:	5e6b      	ldrsh	r3, [r5, r1]
10002b0a:	4293      	cmp	r3, r2
10002b0c:	dc00      	bgt.n	10002b10 <_ZN11ST7735_pico8drawLineEsssst+0xa84>
10002b0e:	e650      	b.n	100027b2 <_ZN11ST7735_pico8drawLineEsssst+0x726>
10002b10:	8b6b      	ldrh	r3, [r5, #26]
10002b12:	4453      	add	r3, sl
10002b14:	b29a      	uxth	r2, r3
10002b16:	9207      	str	r2, [sp, #28]
10002b18:	211e      	movs	r1, #30
10002b1a:	5e6a      	ldrsh	r2, [r5, r1]
10002b1c:	b21b      	sxth	r3, r3
10002b1e:	429a      	cmp	r2, r3
10002b20:	dd00      	ble.n	10002b24 <_ZN11ST7735_pico8drawLineEsssst+0xa98>
10002b22:	e646      	b.n	100027b2 <_ZN11ST7735_pico8drawLineEsssst+0x726>
10002b24:	2122      	movs	r1, #34	; 0x22
10002b26:	5e6a      	ldrsh	r2, [r5, r1]
10002b28:	429a      	cmp	r2, r3
10002b2a:	dc00      	bgt.n	10002b2e <_ZN11ST7735_pico8drawLineEsssst+0xaa2>
10002b2c:	e641      	b.n	100027b2 <_ZN11ST7735_pico8drawLineEsssst+0x726>
10002b2e:	7a6b      	ldrb	r3, [r5, #9]
10002b30:	2b00      	cmp	r3, #0
10002b32:	d000      	beq.n	10002b36 <_ZN11ST7735_pico8drawLineEsssst+0xaaa>
10002b34:	e2f3      	b.n	1000311e <_ZN11ST7735_pico8drawLineEsssst+0x1092>
10002b36:	2381      	movs	r3, #129	; 0x81
10002b38:	2201      	movs	r2, #1
10002b3a:	5ceb      	ldrb	r3, [r5, r3]
10002b3c:	212a      	movs	r1, #42	; 0x2a
10002b3e:	409a      	lsls	r2, r3
10002b40:	0013      	movs	r3, r2
10002b42:	464a      	mov	r2, r9
10002b44:	6868      	ldr	r0, [r5, #4]
10002b46:	6193      	str	r3, [r2, #24]
10002b48:	f7fd fd30 	bl	100005ac <_ZN3SPI5writeEh>
10002b4c:	2376      	movs	r3, #118	; 0x76
10002b4e:	9a06      	ldr	r2, [sp, #24]
10002b50:	5aeb      	ldrh	r3, [r5, r3]
10002b52:	4694      	mov	ip, r2
10002b54:	4463      	add	r3, ip
10002b56:	b29b      	uxth	r3, r3
10002b58:	4698      	mov	r8, r3
10002b5a:	7a6b      	ldrb	r3, [r5, #9]
10002b5c:	2b00      	cmp	r3, #0
10002b5e:	d100      	bne.n	10002b62 <_ZN11ST7735_pico8drawLineEsssst+0xad6>
10002b60:	e308      	b.n	10003174 <_ZN11ST7735_pico8drawLineEsssst+0x10e8>
10002b62:	2381      	movs	r3, #129	; 0x81
10002b64:	2201      	movs	r2, #1
10002b66:	5ceb      	ldrb	r3, [r5, r3]
10002b68:	4641      	mov	r1, r8
10002b6a:	409a      	lsls	r2, r3
10002b6c:	0013      	movs	r3, r2
10002b6e:	464a      	mov	r2, r9
10002b70:	6868      	ldr	r0, [r5, #4]
10002b72:	6153      	str	r3, [r2, #20]
10002b74:	f7fd fd26 	bl	100005c4 <_ZN3SPI7write16Et>
10002b78:	2376      	movs	r3, #118	; 0x76
10002b7a:	9a06      	ldr	r2, [sp, #24]
10002b7c:	5aeb      	ldrh	r3, [r5, r3]
10002b7e:	18d4      	adds	r4, r2, r3
10002b80:	7a6b      	ldrb	r3, [r5, #9]
10002b82:	b2a4      	uxth	r4, r4
10002b84:	2b00      	cmp	r3, #0
10002b86:	d100      	bne.n	10002b8a <_ZN11ST7735_pico8drawLineEsssst+0xafe>
10002b88:	e093      	b.n	10002cb2 <_ZN11ST7735_pico8drawLineEsssst+0xc26>
10002b8a:	2381      	movs	r3, #129	; 0x81
10002b8c:	2201      	movs	r2, #1
10002b8e:	5ceb      	ldrb	r3, [r5, r3]
10002b90:	0021      	movs	r1, r4
10002b92:	409a      	lsls	r2, r3
10002b94:	0013      	movs	r3, r2
10002b96:	464a      	mov	r2, r9
10002b98:	6868      	ldr	r0, [r5, #4]
10002b9a:	6153      	str	r3, [r2, #20]
10002b9c:	f7fd fd12 	bl	100005c4 <_ZN3SPI7write16Et>
10002ba0:	7a6b      	ldrb	r3, [r5, #9]
10002ba2:	2b00      	cmp	r3, #0
10002ba4:	d000      	beq.n	10002ba8 <_ZN11ST7735_pico8drawLineEsssst+0xb1c>
10002ba6:	e097      	b.n	10002cd8 <_ZN11ST7735_pico8drawLineEsssst+0xc4c>
10002ba8:	2381      	movs	r3, #129	; 0x81
10002baa:	2201      	movs	r2, #1
10002bac:	5ceb      	ldrb	r3, [r5, r3]
10002bae:	212b      	movs	r1, #43	; 0x2b
10002bb0:	409a      	lsls	r2, r3
10002bb2:	0013      	movs	r3, r2
10002bb4:	464a      	mov	r2, r9
10002bb6:	6868      	ldr	r0, [r5, #4]
10002bb8:	6193      	str	r3, [r2, #24]
10002bba:	f7fd fcf7 	bl	100005ac <_ZN3SPI5writeEh>
10002bbe:	2378      	movs	r3, #120	; 0x78
10002bc0:	5aec      	ldrh	r4, [r5, r3]
10002bc2:	9b07      	ldr	r3, [sp, #28]
10002bc4:	469c      	mov	ip, r3
10002bc6:	7a6b      	ldrb	r3, [r5, #9]
10002bc8:	4464      	add	r4, ip
10002bca:	b2a4      	uxth	r4, r4
10002bcc:	2b00      	cmp	r3, #0
10002bce:	d100      	bne.n	10002bd2 <_ZN11ST7735_pico8drawLineEsssst+0xb46>
10002bd0:	e095      	b.n	10002cfe <_ZN11ST7735_pico8drawLineEsssst+0xc72>
10002bd2:	2381      	movs	r3, #129	; 0x81
10002bd4:	2201      	movs	r2, #1
10002bd6:	5ceb      	ldrb	r3, [r5, r3]
10002bd8:	0021      	movs	r1, r4
10002bda:	409a      	lsls	r2, r3
10002bdc:	0013      	movs	r3, r2
10002bde:	464a      	mov	r2, r9
10002be0:	6868      	ldr	r0, [r5, #4]
10002be2:	6153      	str	r3, [r2, #20]
10002be4:	f7fd fcee 	bl	100005c4 <_ZN3SPI7write16Et>
10002be8:	2378      	movs	r3, #120	; 0x78
10002bea:	5aec      	ldrh	r4, [r5, r3]
10002bec:	9b07      	ldr	r3, [sp, #28]
10002bee:	469c      	mov	ip, r3
10002bf0:	7a6b      	ldrb	r3, [r5, #9]
10002bf2:	4464      	add	r4, ip
10002bf4:	b2a4      	uxth	r4, r4
10002bf6:	2b00      	cmp	r3, #0
10002bf8:	d100      	bne.n	10002bfc <_ZN11ST7735_pico8drawLineEsssst+0xb70>
10002bfa:	e093      	b.n	10002d24 <_ZN11ST7735_pico8drawLineEsssst+0xc98>
10002bfc:	2381      	movs	r3, #129	; 0x81
10002bfe:	2201      	movs	r2, #1
10002c00:	5ceb      	ldrb	r3, [r5, r3]
10002c02:	0021      	movs	r1, r4
10002c04:	409a      	lsls	r2, r3
10002c06:	0013      	movs	r3, r2
10002c08:	464a      	mov	r2, r9
10002c0a:	6868      	ldr	r0, [r5, #4]
10002c0c:	6153      	str	r3, [r2, #20]
10002c0e:	f7fd fcd9 	bl	100005c4 <_ZN3SPI7write16Et>
10002c12:	7a6b      	ldrb	r3, [r5, #9]
10002c14:	2b00      	cmp	r3, #0
10002c16:	d000      	beq.n	10002c1a <_ZN11ST7735_pico8drawLineEsssst+0xb8e>
10002c18:	e097      	b.n	10002d4a <_ZN11ST7735_pico8drawLineEsssst+0xcbe>
10002c1a:	2381      	movs	r3, #129	; 0x81
10002c1c:	2201      	movs	r2, #1
10002c1e:	5ceb      	ldrb	r3, [r5, r3]
10002c20:	212c      	movs	r1, #44	; 0x2c
10002c22:	409a      	lsls	r2, r3
10002c24:	0013      	movs	r3, r2
10002c26:	464a      	mov	r2, r9
10002c28:	6868      	ldr	r0, [r5, #4]
10002c2a:	6193      	str	r3, [r2, #24]
10002c2c:	f7fd fcbe 	bl	100005ac <_ZN3SPI5writeEh>
10002c30:	7a6b      	ldrb	r3, [r5, #9]
10002c32:	2b00      	cmp	r3, #0
10002c34:	d100      	bne.n	10002c38 <_ZN11ST7735_pico8drawLineEsssst+0xbac>
10002c36:	e09b      	b.n	10002d70 <_ZN11ST7735_pico8drawLineEsssst+0xce4>
10002c38:	2381      	movs	r3, #129	; 0x81
10002c3a:	2201      	movs	r2, #1
10002c3c:	5ceb      	ldrb	r3, [r5, r3]
10002c3e:	9905      	ldr	r1, [sp, #20]
10002c40:	409a      	lsls	r2, r3
10002c42:	0013      	movs	r3, r2
10002c44:	464a      	mov	r2, r9
10002c46:	6868      	ldr	r0, [r5, #4]
10002c48:	6153      	str	r3, [r2, #20]
10002c4a:	f7fd fcbb 	bl	100005c4 <_ZN3SPI7write16Et>
10002c4e:	e5b0      	b.n	100027b2 <_ZN11ST7735_pico8drawLineEsssst+0x726>
10002c50:	0028      	movs	r0, r5
10002c52:	2100      	movs	r1, #0
10002c54:	f7fd fe10 	bl	10000878 <_ZN11ST7735_pico17writecommand_lastEh>
10002c58:	6868      	ldr	r0, [r5, #4]
10002c5a:	6803      	ldr	r3, [r0, #0]
10002c5c:	68db      	ldr	r3, [r3, #12]
10002c5e:	4798      	blx	r3
10002c60:	2800      	cmp	r0, #0
10002c62:	d106      	bne.n	10002c72 <_ZN11ST7735_pico8drawLineEsssst+0xbe6>
10002c64:	2380      	movs	r3, #128	; 0x80
10002c66:	5cea      	ldrb	r2, [r5, r3]
10002c68:	3b7f      	subs	r3, #127	; 0x7f
10002c6a:	4093      	lsls	r3, r2
10002c6c:	22d0      	movs	r2, #208	; 0xd0
10002c6e:	0612      	lsls	r2, r2, #24
10002c70:	6153      	str	r3, [r2, #20]
10002c72:	b00b      	add	sp, #44	; 0x2c
10002c74:	bcf0      	pop	{r4, r5, r6, r7}
10002c76:	46bb      	mov	fp, r7
10002c78:	46b2      	mov	sl, r6
10002c7a:	46a9      	mov	r9, r5
10002c7c:	46a0      	mov	r8, r4
10002c7e:	bdf0      	pop	{r4, r5, r6, r7, pc}
10002c80:	4559      	cmp	r1, fp
10002c82:	db0c      	blt.n	10002c9e <_ZN11ST7735_pico8drawLineEsssst+0xc12>
10002c84:	dc00      	bgt.n	10002c88 <_ZN11ST7735_pico8drawLineEsssst+0xbfc>
10002c86:	e11d      	b.n	10002ec4 <_ZN11ST7735_pico8drawLineEsssst+0xe38>
10002c88:	001a      	movs	r2, r3
10002c8a:	465b      	mov	r3, fp
10002c8c:	1acb      	subs	r3, r1, r3
10002c8e:	3301      	adds	r3, #1
10002c90:	9200      	str	r2, [sp, #0]
10002c92:	4659      	mov	r1, fp
10002c94:	4642      	mov	r2, r8
10002c96:	b21b      	sxth	r3, r3
10002c98:	f7fe fc6e 	bl	10001578 <_ZN11ST7735_pico13drawFastHLineEssst>
10002c9c:	e7e9      	b.n	10002c72 <_ZN11ST7735_pico8drawLineEsssst+0xbe6>
10002c9e:	001a      	movs	r2, r3
10002ca0:	465b      	mov	r3, fp
10002ca2:	3301      	adds	r3, #1
10002ca4:	1a5b      	subs	r3, r3, r1
10002ca6:	9200      	str	r2, [sp, #0]
10002ca8:	b21b      	sxth	r3, r3
10002caa:	4642      	mov	r2, r8
10002cac:	f7fe fc64 	bl	10001578 <_ZN11ST7735_pico13drawFastHLineEssst>
10002cb0:	e7df      	b.n	10002c72 <_ZN11ST7735_pico8drawLineEsssst+0xbe6>
10002cb2:	6868      	ldr	r0, [r5, #4]
10002cb4:	6803      	ldr	r3, [r0, #0]
10002cb6:	691b      	ldr	r3, [r3, #16]
10002cb8:	4798      	blx	r3
10002cba:	2800      	cmp	r0, #0
10002cbc:	d1f9      	bne.n	10002cb2 <_ZN11ST7735_pico8drawLineEsssst+0xc26>
10002cbe:	2201      	movs	r2, #1
10002cc0:	6868      	ldr	r0, [r5, #4]
10002cc2:	2110      	movs	r1, #16
10002cc4:	6803      	ldr	r3, [r0, #0]
10002cc6:	9200      	str	r2, [sp, #0]
10002cc8:	695b      	ldr	r3, [r3, #20]
10002cca:	2200      	movs	r2, #0
10002ccc:	4698      	mov	r8, r3
10002cce:	2300      	movs	r3, #0
10002cd0:	47c0      	blx	r8
10002cd2:	2201      	movs	r2, #1
10002cd4:	726a      	strb	r2, [r5, #9]
10002cd6:	e758      	b.n	10002b8a <_ZN11ST7735_pico8drawLineEsssst+0xafe>
10002cd8:	6868      	ldr	r0, [r5, #4]
10002cda:	6803      	ldr	r3, [r0, #0]
10002cdc:	691b      	ldr	r3, [r3, #16]
10002cde:	4798      	blx	r3
10002ce0:	2800      	cmp	r0, #0
10002ce2:	d1f9      	bne.n	10002cd8 <_ZN11ST7735_pico8drawLineEsssst+0xc4c>
10002ce4:	2201      	movs	r2, #1
10002ce6:	0004      	movs	r4, r0
10002ce8:	6868      	ldr	r0, [r5, #4]
10002cea:	2108      	movs	r1, #8
10002cec:	6803      	ldr	r3, [r0, #0]
10002cee:	9200      	str	r2, [sp, #0]
10002cf0:	695b      	ldr	r3, [r3, #20]
10002cf2:	2200      	movs	r2, #0
10002cf4:	4698      	mov	r8, r3
10002cf6:	2300      	movs	r3, #0
10002cf8:	47c0      	blx	r8
10002cfa:	726c      	strb	r4, [r5, #9]
10002cfc:	e754      	b.n	10002ba8 <_ZN11ST7735_pico8drawLineEsssst+0xb1c>
10002cfe:	6868      	ldr	r0, [r5, #4]
10002d00:	6803      	ldr	r3, [r0, #0]
10002d02:	691b      	ldr	r3, [r3, #16]
10002d04:	4798      	blx	r3
10002d06:	2800      	cmp	r0, #0
10002d08:	d1f9      	bne.n	10002cfe <_ZN11ST7735_pico8drawLineEsssst+0xc72>
10002d0a:	2201      	movs	r2, #1
10002d0c:	6868      	ldr	r0, [r5, #4]
10002d0e:	2110      	movs	r1, #16
10002d10:	6803      	ldr	r3, [r0, #0]
10002d12:	9200      	str	r2, [sp, #0]
10002d14:	695b      	ldr	r3, [r3, #20]
10002d16:	2200      	movs	r2, #0
10002d18:	4698      	mov	r8, r3
10002d1a:	2300      	movs	r3, #0
10002d1c:	47c0      	blx	r8
10002d1e:	2201      	movs	r2, #1
10002d20:	726a      	strb	r2, [r5, #9]
10002d22:	e756      	b.n	10002bd2 <_ZN11ST7735_pico8drawLineEsssst+0xb46>
10002d24:	6868      	ldr	r0, [r5, #4]
10002d26:	6803      	ldr	r3, [r0, #0]
10002d28:	691b      	ldr	r3, [r3, #16]
10002d2a:	4798      	blx	r3
10002d2c:	2800      	cmp	r0, #0
10002d2e:	d1f9      	bne.n	10002d24 <_ZN11ST7735_pico8drawLineEsssst+0xc98>
10002d30:	2201      	movs	r2, #1
10002d32:	6868      	ldr	r0, [r5, #4]
10002d34:	2110      	movs	r1, #16
10002d36:	6803      	ldr	r3, [r0, #0]
10002d38:	9200      	str	r2, [sp, #0]
10002d3a:	695b      	ldr	r3, [r3, #20]
10002d3c:	2200      	movs	r2, #0
10002d3e:	4698      	mov	r8, r3
10002d40:	2300      	movs	r3, #0
10002d42:	47c0      	blx	r8
10002d44:	2201      	movs	r2, #1
10002d46:	726a      	strb	r2, [r5, #9]
10002d48:	e758      	b.n	10002bfc <_ZN11ST7735_pico8drawLineEsssst+0xb70>
10002d4a:	6868      	ldr	r0, [r5, #4]
10002d4c:	6803      	ldr	r3, [r0, #0]
10002d4e:	691b      	ldr	r3, [r3, #16]
10002d50:	4798      	blx	r3
10002d52:	2800      	cmp	r0, #0
10002d54:	d1f9      	bne.n	10002d4a <_ZN11ST7735_pico8drawLineEsssst+0xcbe>
10002d56:	2201      	movs	r2, #1
10002d58:	0004      	movs	r4, r0
10002d5a:	6868      	ldr	r0, [r5, #4]
10002d5c:	2108      	movs	r1, #8
10002d5e:	6803      	ldr	r3, [r0, #0]
10002d60:	9200      	str	r2, [sp, #0]
10002d62:	695b      	ldr	r3, [r3, #20]
10002d64:	2200      	movs	r2, #0
10002d66:	4698      	mov	r8, r3
10002d68:	2300      	movs	r3, #0
10002d6a:	47c0      	blx	r8
10002d6c:	726c      	strb	r4, [r5, #9]
10002d6e:	e754      	b.n	10002c1a <_ZN11ST7735_pico8drawLineEsssst+0xb8e>
10002d70:	6868      	ldr	r0, [r5, #4]
10002d72:	6803      	ldr	r3, [r0, #0]
10002d74:	691b      	ldr	r3, [r3, #16]
10002d76:	4798      	blx	r3
10002d78:	2800      	cmp	r0, #0
10002d7a:	d1f9      	bne.n	10002d70 <_ZN11ST7735_pico8drawLineEsssst+0xce4>
10002d7c:	2201      	movs	r2, #1
10002d7e:	6868      	ldr	r0, [r5, #4]
10002d80:	2110      	movs	r1, #16
10002d82:	6803      	ldr	r3, [r0, #0]
10002d84:	9200      	str	r2, [sp, #0]
10002d86:	695c      	ldr	r4, [r3, #20]
10002d88:	2200      	movs	r2, #0
10002d8a:	2300      	movs	r3, #0
10002d8c:	47a0      	blx	r4
10002d8e:	2201      	movs	r2, #1
10002d90:	726a      	strb	r2, [r5, #9]
10002d92:	e751      	b.n	10002c38 <_ZN11ST7735_pico8drawLineEsssst+0xbac>
10002d94:	6868      	ldr	r0, [r5, #4]
10002d96:	6803      	ldr	r3, [r0, #0]
10002d98:	691b      	ldr	r3, [r3, #16]
10002d9a:	4798      	blx	r3
10002d9c:	2800      	cmp	r0, #0
10002d9e:	d1f9      	bne.n	10002d94 <_ZN11ST7735_pico8drawLineEsssst+0xd08>
10002da0:	2201      	movs	r2, #1
10002da2:	6868      	ldr	r0, [r5, #4]
10002da4:	2110      	movs	r1, #16
10002da6:	6803      	ldr	r3, [r0, #0]
10002da8:	9200      	str	r2, [sp, #0]
10002daa:	695b      	ldr	r3, [r3, #20]
10002dac:	2200      	movs	r2, #0
10002dae:	4698      	mov	r8, r3
10002db0:	2300      	movs	r3, #0
10002db2:	47c0      	blx	r8
10002db4:	2201      	movs	r2, #1
10002db6:	726a      	strb	r2, [r5, #9]
10002db8:	e636      	b.n	10002a28 <_ZN11ST7735_pico8drawLineEsssst+0x99c>
10002dba:	6868      	ldr	r0, [r5, #4]
10002dbc:	6803      	ldr	r3, [r0, #0]
10002dbe:	691b      	ldr	r3, [r3, #16]
10002dc0:	4798      	blx	r3
10002dc2:	2800      	cmp	r0, #0
10002dc4:	d1f9      	bne.n	10002dba <_ZN11ST7735_pico8drawLineEsssst+0xd2e>
10002dc6:	2201      	movs	r2, #1
10002dc8:	0004      	movs	r4, r0
10002dca:	6868      	ldr	r0, [r5, #4]
10002dcc:	2108      	movs	r1, #8
10002dce:	6803      	ldr	r3, [r0, #0]
10002dd0:	9200      	str	r2, [sp, #0]
10002dd2:	695b      	ldr	r3, [r3, #20]
10002dd4:	2200      	movs	r2, #0
10002dd6:	4698      	mov	r8, r3
10002dd8:	2300      	movs	r3, #0
10002dda:	47c0      	blx	r8
10002ddc:	726c      	strb	r4, [r5, #9]
10002dde:	e632      	b.n	10002a46 <_ZN11ST7735_pico8drawLineEsssst+0x9ba>
10002de0:	6868      	ldr	r0, [r5, #4]
10002de2:	6803      	ldr	r3, [r0, #0]
10002de4:	691b      	ldr	r3, [r3, #16]
10002de6:	4798      	blx	r3
10002de8:	2800      	cmp	r0, #0
10002dea:	d1f9      	bne.n	10002de0 <_ZN11ST7735_pico8drawLineEsssst+0xd54>
10002dec:	2201      	movs	r2, #1
10002dee:	6868      	ldr	r0, [r5, #4]
10002df0:	2110      	movs	r1, #16
10002df2:	6803      	ldr	r3, [r0, #0]
10002df4:	9200      	str	r2, [sp, #0]
10002df6:	695b      	ldr	r3, [r3, #20]
10002df8:	2200      	movs	r2, #0
10002dfa:	4698      	mov	r8, r3
10002dfc:	2300      	movs	r3, #0
10002dfe:	47c0      	blx	r8
10002e00:	2201      	movs	r2, #1
10002e02:	726a      	strb	r2, [r5, #9]
10002e04:	e634      	b.n	10002a70 <_ZN11ST7735_pico8drawLineEsssst+0x9e4>
10002e06:	6868      	ldr	r0, [r5, #4]
10002e08:	6803      	ldr	r3, [r0, #0]
10002e0a:	691b      	ldr	r3, [r3, #16]
10002e0c:	4798      	blx	r3
10002e0e:	2800      	cmp	r0, #0
10002e10:	d1f9      	bne.n	10002e06 <_ZN11ST7735_pico8drawLineEsssst+0xd7a>
10002e12:	2201      	movs	r2, #1
10002e14:	6868      	ldr	r0, [r5, #4]
10002e16:	2110      	movs	r1, #16
10002e18:	6803      	ldr	r3, [r0, #0]
10002e1a:	9200      	str	r2, [sp, #0]
10002e1c:	695b      	ldr	r3, [r3, #20]
10002e1e:	2200      	movs	r2, #0
10002e20:	4698      	mov	r8, r3
10002e22:	2300      	movs	r3, #0
10002e24:	47c0      	blx	r8
10002e26:	2201      	movs	r2, #1
10002e28:	726a      	strb	r2, [r5, #9]
10002e2a:	e636      	b.n	10002a9a <_ZN11ST7735_pico8drawLineEsssst+0xa0e>
10002e2c:	6868      	ldr	r0, [r5, #4]
10002e2e:	6803      	ldr	r3, [r0, #0]
10002e30:	691b      	ldr	r3, [r3, #16]
10002e32:	4798      	blx	r3
10002e34:	2800      	cmp	r0, #0
10002e36:	d1f9      	bne.n	10002e2c <_ZN11ST7735_pico8drawLineEsssst+0xda0>
10002e38:	2201      	movs	r2, #1
10002e3a:	0004      	movs	r4, r0
10002e3c:	6868      	ldr	r0, [r5, #4]
10002e3e:	2108      	movs	r1, #8
10002e40:	6803      	ldr	r3, [r0, #0]
10002e42:	9200      	str	r2, [sp, #0]
10002e44:	695b      	ldr	r3, [r3, #20]
10002e46:	2200      	movs	r2, #0
10002e48:	4698      	mov	r8, r3
10002e4a:	2300      	movs	r3, #0
10002e4c:	47c0      	blx	r8
10002e4e:	726c      	strb	r4, [r5, #9]
10002e50:	e632      	b.n	10002ab8 <_ZN11ST7735_pico8drawLineEsssst+0xa2c>
10002e52:	6868      	ldr	r0, [r5, #4]
10002e54:	6803      	ldr	r3, [r0, #0]
10002e56:	691b      	ldr	r3, [r3, #16]
10002e58:	4798      	blx	r3
10002e5a:	2800      	cmp	r0, #0
10002e5c:	d1f9      	bne.n	10002e52 <_ZN11ST7735_pico8drawLineEsssst+0xdc6>
10002e5e:	2201      	movs	r2, #1
10002e60:	6868      	ldr	r0, [r5, #4]
10002e62:	2110      	movs	r1, #16
10002e64:	6803      	ldr	r3, [r0, #0]
10002e66:	9200      	str	r2, [sp, #0]
10002e68:	695c      	ldr	r4, [r3, #20]
10002e6a:	2200      	movs	r2, #0
10002e6c:	2300      	movs	r3, #0
10002e6e:	47a0      	blx	r4
10002e70:	2201      	movs	r2, #1
10002e72:	726a      	strb	r2, [r5, #9]
10002e74:	e62f      	b.n	10002ad6 <_ZN11ST7735_pico8drawLineEsssst+0xa4a>
10002e76:	4590      	cmp	r8, r2
10002e78:	da09      	bge.n	10002e8e <_ZN11ST7735_pico8drawLineEsssst+0xe02>
10002e7a:	4643      	mov	r3, r8
10002e7c:	3201      	adds	r2, #1
10002e7e:	1ad3      	subs	r3, r2, r3
10002e80:	9a05      	ldr	r2, [sp, #20]
10002e82:	b21b      	sxth	r3, r3
10002e84:	9200      	str	r2, [sp, #0]
10002e86:	4642      	mov	r2, r8
10002e88:	f7fe f9d0 	bl	1000122c <_ZN11ST7735_pico13drawFastVLineEssst>
10002e8c:	e6f1      	b.n	10002c72 <_ZN11ST7735_pico8drawLineEsssst+0xbe6>
10002e8e:	0019      	movs	r1, r3
10002e90:	4643      	mov	r3, r8
10002e92:	1a9b      	subs	r3, r3, r2
10002e94:	3301      	adds	r3, #1
10002e96:	9100      	str	r1, [sp, #0]
10002e98:	b21b      	sxth	r3, r3
10002e9a:	0039      	movs	r1, r7
10002e9c:	f7fe f9c6 	bl	1000122c <_ZN11ST7735_pico13drawFastVLineEssst>
10002ea0:	e6e7      	b.n	10002c72 <_ZN11ST7735_pico8drawLineEsssst+0xbe6>
10002ea2:	9808      	ldr	r0, [sp, #32]
10002ea4:	b293      	uxth	r3, r2
10002ea6:	1ac0      	subs	r0, r0, r3
10002ea8:	1824      	adds	r4, r4, r0
10002eaa:	9309      	str	r3, [sp, #36]	; 0x24
10002eac:	b223      	sxth	r3, r4
10002eae:	9306      	str	r3, [sp, #24]
10002eb0:	f7ff fab5 	bl	1000241e <_ZN11ST7735_pico8drawLineEsssst+0x392>
10002eb4:	b288      	uxth	r0, r1
10002eb6:	1a1b      	subs	r3, r3, r0
10002eb8:	4463      	add	r3, ip
10002eba:	b21b      	sxth	r3, r3
10002ebc:	9008      	str	r0, [sp, #32]
10002ebe:	9306      	str	r3, [sp, #24]
10002ec0:	f7ff f993 	bl	100021ea <_ZN11ST7735_pico8drawLineEsssst+0x15e>
10002ec4:	4642      	mov	r2, r8
10002ec6:	f7fe f86b 	bl	10000fa0 <_ZN11ST7735_pico9drawPixelEsst>
10002eca:	e6d2      	b.n	10002c72 <_ZN11ST7735_pico8drawLineEsssst+0xbe6>
10002ecc:	6868      	ldr	r0, [r5, #4]
10002ece:	6803      	ldr	r3, [r0, #0]
10002ed0:	691b      	ldr	r3, [r3, #16]
10002ed2:	4798      	blx	r3
10002ed4:	2800      	cmp	r0, #0
10002ed6:	d1f9      	bne.n	10002ecc <_ZN11ST7735_pico8drawLineEsssst+0xe40>
10002ed8:	2201      	movs	r2, #1
10002eda:	0007      	movs	r7, r0
10002edc:	6868      	ldr	r0, [r5, #4]
10002ede:	2108      	movs	r1, #8
10002ee0:	6803      	ldr	r3, [r0, #0]
10002ee2:	9200      	str	r2, [sp, #0]
10002ee4:	695e      	ldr	r6, [r3, #20]
10002ee6:	2200      	movs	r2, #0
10002ee8:	2300      	movs	r3, #0
10002eea:	47b0      	blx	r6
10002eec:	726f      	strb	r7, [r5, #9]
10002eee:	e515      	b.n	1000291c <_ZN11ST7735_pico8drawLineEsssst+0x890>
10002ef0:	6868      	ldr	r0, [r5, #4]
10002ef2:	6803      	ldr	r3, [r0, #0]
10002ef4:	691b      	ldr	r3, [r3, #16]
10002ef6:	4798      	blx	r3
10002ef8:	2800      	cmp	r0, #0
10002efa:	d1f9      	bne.n	10002ef0 <_ZN11ST7735_pico8drawLineEsssst+0xe64>
10002efc:	2201      	movs	r2, #1
10002efe:	4690      	mov	r8, r2
10002f00:	6868      	ldr	r0, [r5, #4]
10002f02:	2110      	movs	r1, #16
10002f04:	6803      	ldr	r3, [r0, #0]
10002f06:	9200      	str	r2, [sp, #0]
10002f08:	695f      	ldr	r7, [r3, #20]
10002f0a:	2200      	movs	r2, #0
10002f0c:	2300      	movs	r3, #0
10002f0e:	47b8      	blx	r7
10002f10:	4643      	mov	r3, r8
10002f12:	726b      	strb	r3, [r5, #9]
10002f14:	e4f3      	b.n	100028fe <_ZN11ST7735_pico8drawLineEsssst+0x872>
10002f16:	6868      	ldr	r0, [r5, #4]
10002f18:	6803      	ldr	r3, [r0, #0]
10002f1a:	691b      	ldr	r3, [r3, #16]
10002f1c:	4798      	blx	r3
10002f1e:	2800      	cmp	r0, #0
10002f20:	d1f9      	bne.n	10002f16 <_ZN11ST7735_pico8drawLineEsssst+0xe8a>
10002f22:	2201      	movs	r2, #1
10002f24:	4691      	mov	r9, r2
10002f26:	6868      	ldr	r0, [r5, #4]
10002f28:	2110      	movs	r1, #16
10002f2a:	6803      	ldr	r3, [r0, #0]
10002f2c:	9200      	str	r2, [sp, #0]
10002f2e:	695f      	ldr	r7, [r3, #20]
10002f30:	2200      	movs	r2, #0
10002f32:	2300      	movs	r3, #0
10002f34:	47b8      	blx	r7
10002f36:	464b      	mov	r3, r9
10002f38:	726b      	strb	r3, [r5, #9]
10002f3a:	e496      	b.n	1000286a <_ZN11ST7735_pico8drawLineEsssst+0x7de>
10002f3c:	6868      	ldr	r0, [r5, #4]
10002f3e:	6803      	ldr	r3, [r0, #0]
10002f40:	691b      	ldr	r3, [r3, #16]
10002f42:	4798      	blx	r3
10002f44:	2800      	cmp	r0, #0
10002f46:	d1f9      	bne.n	10002f3c <_ZN11ST7735_pico8drawLineEsssst+0xeb0>
10002f48:	2201      	movs	r2, #1
10002f4a:	0007      	movs	r7, r0
10002f4c:	6868      	ldr	r0, [r5, #4]
10002f4e:	2108      	movs	r1, #8
10002f50:	6803      	ldr	r3, [r0, #0]
10002f52:	9200      	str	r2, [sp, #0]
10002f54:	695b      	ldr	r3, [r3, #20]
10002f56:	2200      	movs	r2, #0
10002f58:	4698      	mov	r8, r3
10002f5a:	2300      	movs	r3, #0
10002f5c:	47c0      	blx	r8
10002f5e:	726f      	strb	r7, [r5, #9]
10002f60:	e4a7      	b.n	100028b2 <_ZN11ST7735_pico8drawLineEsssst+0x826>
10002f62:	6868      	ldr	r0, [r5, #4]
10002f64:	6803      	ldr	r3, [r0, #0]
10002f66:	691b      	ldr	r3, [r3, #16]
10002f68:	4798      	blx	r3
10002f6a:	2800      	cmp	r0, #0
10002f6c:	d1f9      	bne.n	10002f62 <_ZN11ST7735_pico8drawLineEsssst+0xed6>
10002f6e:	2201      	movs	r2, #1
10002f70:	0007      	movs	r7, r0
10002f72:	6868      	ldr	r0, [r5, #4]
10002f74:	2108      	movs	r1, #8
10002f76:	6803      	ldr	r3, [r0, #0]
10002f78:	9200      	str	r2, [sp, #0]
10002f7a:	695b      	ldr	r3, [r3, #20]
10002f7c:	2200      	movs	r2, #0
10002f7e:	4699      	mov	r9, r3
10002f80:	2300      	movs	r3, #0
10002f82:	47c8      	blx	r9
10002f84:	726f      	strb	r7, [r5, #9]
10002f86:	e45c      	b.n	10002842 <_ZN11ST7735_pico8drawLineEsssst+0x7b6>
10002f88:	6868      	ldr	r0, [r5, #4]
10002f8a:	6803      	ldr	r3, [r0, #0]
10002f8c:	691b      	ldr	r3, [r3, #16]
10002f8e:	4798      	blx	r3
10002f90:	2800      	cmp	r0, #0
10002f92:	d1f9      	bne.n	10002f88 <_ZN11ST7735_pico8drawLineEsssst+0xefc>
10002f94:	2201      	movs	r2, #1
10002f96:	4691      	mov	r9, r2
10002f98:	6868      	ldr	r0, [r5, #4]
10002f9a:	2110      	movs	r1, #16
10002f9c:	6803      	ldr	r3, [r0, #0]
10002f9e:	9200      	str	r2, [sp, #0]
10002fa0:	695b      	ldr	r3, [r3, #20]
10002fa2:	2200      	movs	r2, #0
10002fa4:	4698      	mov	r8, r3
10002fa6:	2300      	movs	r3, #0
10002fa8:	47c0      	blx	r8
10002faa:	464b      	mov	r3, r9
10002fac:	726b      	strb	r3, [r5, #9]
10002fae:	e493      	b.n	100028d8 <_ZN11ST7735_pico8drawLineEsssst+0x84c>
10002fb0:	6868      	ldr	r0, [r5, #4]
10002fb2:	6803      	ldr	r3, [r0, #0]
10002fb4:	691b      	ldr	r3, [r3, #16]
10002fb6:	4798      	blx	r3
10002fb8:	2800      	cmp	r0, #0
10002fba:	d1f9      	bne.n	10002fb0 <_ZN11ST7735_pico8drawLineEsssst+0xf24>
10002fbc:	2201      	movs	r2, #1
10002fbe:	4691      	mov	r9, r2
10002fc0:	6868      	ldr	r0, [r5, #4]
10002fc2:	2110      	movs	r1, #16
10002fc4:	6803      	ldr	r3, [r0, #0]
10002fc6:	9200      	str	r2, [sp, #0]
10002fc8:	695b      	ldr	r3, [r3, #20]
10002fca:	2200      	movs	r2, #0
10002fcc:	4698      	mov	r8, r3
10002fce:	2300      	movs	r3, #0
10002fd0:	47c0      	blx	r8
10002fd2:	464b      	mov	r3, r9
10002fd4:	726b      	strb	r3, [r5, #9]
10002fd6:	e45d      	b.n	10002894 <_ZN11ST7735_pico8drawLineEsssst+0x808>
10002fd8:	6868      	ldr	r0, [r5, #4]
10002fda:	6803      	ldr	r3, [r0, #0]
10002fdc:	691b      	ldr	r3, [r3, #16]
10002fde:	4798      	blx	r3
10002fe0:	2800      	cmp	r0, #0
10002fe2:	d1f9      	bne.n	10002fd8 <_ZN11ST7735_pico8drawLineEsssst+0xf4c>
10002fe4:	2201      	movs	r2, #1
10002fe6:	0007      	movs	r7, r0
10002fe8:	6868      	ldr	r0, [r5, #4]
10002fea:	2108      	movs	r1, #8
10002fec:	6803      	ldr	r3, [r0, #0]
10002fee:	9200      	str	r2, [sp, #0]
10002ff0:	695e      	ldr	r6, [r3, #20]
10002ff2:	2200      	movs	r2, #0
10002ff4:	2300      	movs	r3, #0
10002ff6:	47b0      	blx	r6
10002ff8:	726f      	strb	r7, [r5, #9]
10002ffa:	f7ff fba3 	bl	10002744 <_ZN11ST7735_pico8drawLineEsssst+0x6b8>
10002ffe:	6868      	ldr	r0, [r5, #4]
10003000:	6803      	ldr	r3, [r0, #0]
10003002:	691b      	ldr	r3, [r3, #16]
10003004:	4798      	blx	r3
10003006:	2800      	cmp	r0, #0
10003008:	d1f9      	bne.n	10002ffe <_ZN11ST7735_pico8drawLineEsssst+0xf72>
1000300a:	2601      	movs	r6, #1
1000300c:	6868      	ldr	r0, [r5, #4]
1000300e:	2200      	movs	r2, #0
10003010:	6803      	ldr	r3, [r0, #0]
10003012:	9600      	str	r6, [sp, #0]
10003014:	695b      	ldr	r3, [r3, #20]
10003016:	2110      	movs	r1, #16
10003018:	4698      	mov	r8, r3
1000301a:	2300      	movs	r3, #0
1000301c:	47c0      	blx	r8
1000301e:	726e      	strb	r6, [r5, #9]
10003020:	f7ff fb80 	bl	10002724 <_ZN11ST7735_pico8drawLineEsssst+0x698>
10003024:	6868      	ldr	r0, [r5, #4]
10003026:	6803      	ldr	r3, [r0, #0]
10003028:	691b      	ldr	r3, [r3, #16]
1000302a:	4798      	blx	r3
1000302c:	2800      	cmp	r0, #0
1000302e:	d1f9      	bne.n	10003024 <_ZN11ST7735_pico8drawLineEsssst+0xf98>
10003030:	2201      	movs	r2, #1
10003032:	4690      	mov	r8, r2
10003034:	6868      	ldr	r0, [r5, #4]
10003036:	2110      	movs	r1, #16
10003038:	6803      	ldr	r3, [r0, #0]
1000303a:	9200      	str	r2, [sp, #0]
1000303c:	695b      	ldr	r3, [r3, #20]
1000303e:	2200      	movs	r2, #0
10003040:	4699      	mov	r9, r3
10003042:	2300      	movs	r3, #0
10003044:	47c8      	blx	r9
10003046:	4643      	mov	r3, r8
10003048:	726b      	strb	r3, [r5, #9]
1000304a:	f7ff fb53 	bl	100026f4 <_ZN11ST7735_pico8drawLineEsssst+0x668>
1000304e:	6868      	ldr	r0, [r5, #4]
10003050:	6803      	ldr	r3, [r0, #0]
10003052:	691b      	ldr	r3, [r3, #16]
10003054:	4798      	blx	r3
10003056:	2800      	cmp	r0, #0
10003058:	d1f9      	bne.n	1000304e <_ZN11ST7735_pico8drawLineEsssst+0xfc2>
1000305a:	2201      	movs	r2, #1
1000305c:	0006      	movs	r6, r0
1000305e:	6868      	ldr	r0, [r5, #4]
10003060:	2108      	movs	r1, #8
10003062:	6803      	ldr	r3, [r0, #0]
10003064:	9200      	str	r2, [sp, #0]
10003066:	695b      	ldr	r3, [r3, #20]
10003068:	2200      	movs	r2, #0
1000306a:	4698      	mov	r8, r3
1000306c:	2300      	movs	r3, #0
1000306e:	47c0      	blx	r8
10003070:	726e      	strb	r6, [r5, #9]
10003072:	f7ff fb2b 	bl	100026cc <_ZN11ST7735_pico8drawLineEsssst+0x640>
10003076:	6868      	ldr	r0, [r5, #4]
10003078:	6803      	ldr	r3, [r0, #0]
1000307a:	691b      	ldr	r3, [r3, #16]
1000307c:	4798      	blx	r3
1000307e:	2800      	cmp	r0, #0
10003080:	d1f9      	bne.n	10003076 <_ZN11ST7735_pico8drawLineEsssst+0xfea>
10003082:	2201      	movs	r2, #1
10003084:	4690      	mov	r8, r2
10003086:	6868      	ldr	r0, [r5, #4]
10003088:	2110      	movs	r1, #16
1000308a:	6803      	ldr	r3, [r0, #0]
1000308c:	9200      	str	r2, [sp, #0]
1000308e:	695b      	ldr	r3, [r3, #20]
10003090:	2200      	movs	r2, #0
10003092:	4699      	mov	r9, r3
10003094:	2300      	movs	r3, #0
10003096:	47c8      	blx	r9
10003098:	4643      	mov	r3, r8
1000309a:	726b      	strb	r3, [r5, #9]
1000309c:	f7ff fb06 	bl	100026ac <_ZN11ST7735_pico8drawLineEsssst+0x620>
100030a0:	6868      	ldr	r0, [r5, #4]
100030a2:	6803      	ldr	r3, [r0, #0]
100030a4:	691b      	ldr	r3, [r3, #16]
100030a6:	4798      	blx	r3
100030a8:	2800      	cmp	r0, #0
100030aa:	d1f9      	bne.n	100030a0 <_ZN11ST7735_pico8drawLineEsssst+0x1014>
100030ac:	2201      	movs	r2, #1
100030ae:	0007      	movs	r7, r0
100030b0:	6868      	ldr	r0, [r5, #4]
100030b2:	2108      	movs	r1, #8
100030b4:	6803      	ldr	r3, [r0, #0]
100030b6:	9200      	str	r2, [sp, #0]
100030b8:	695b      	ldr	r3, [r3, #20]
100030ba:	2200      	movs	r2, #0
100030bc:	4699      	mov	r9, r3
100030be:	2300      	movs	r3, #0
100030c0:	47c8      	blx	r9
100030c2:	726f      	strb	r7, [r5, #9]
100030c4:	f7ff fac9 	bl	1000265a <_ZN11ST7735_pico8drawLineEsssst+0x5ce>
100030c8:	6868      	ldr	r0, [r5, #4]
100030ca:	6803      	ldr	r3, [r0, #0]
100030cc:	691b      	ldr	r3, [r3, #16]
100030ce:	4798      	blx	r3
100030d0:	2800      	cmp	r0, #0
100030d2:	d1f9      	bne.n	100030c8 <_ZN11ST7735_pico8drawLineEsssst+0x103c>
100030d4:	2201      	movs	r2, #1
100030d6:	4691      	mov	r9, r2
100030d8:	6868      	ldr	r0, [r5, #4]
100030da:	2110      	movs	r1, #16
100030dc:	6803      	ldr	r3, [r0, #0]
100030de:	9200      	str	r2, [sp, #0]
100030e0:	695b      	ldr	r3, [r3, #20]
100030e2:	2200      	movs	r2, #0
100030e4:	469a      	mov	sl, r3
100030e6:	2300      	movs	r3, #0
100030e8:	47d0      	blx	sl
100030ea:	464b      	mov	r3, r9
100030ec:	726b      	strb	r3, [r5, #9]
100030ee:	f7ff fac9 	bl	10002684 <_ZN11ST7735_pico8drawLineEsssst+0x5f8>
100030f2:	9c06      	ldr	r4, [sp, #24]
100030f4:	6868      	ldr	r0, [r5, #4]
100030f6:	6803      	ldr	r3, [r0, #0]
100030f8:	691b      	ldr	r3, [r3, #16]
100030fa:	4798      	blx	r3
100030fc:	2800      	cmp	r0, #0
100030fe:	d1f9      	bne.n	100030f4 <_ZN11ST7735_pico8drawLineEsssst+0x1068>
10003100:	2201      	movs	r2, #1
10003102:	4680      	mov	r8, r0
10003104:	6868      	ldr	r0, [r5, #4]
10003106:	9406      	str	r4, [sp, #24]
10003108:	6803      	ldr	r3, [r0, #0]
1000310a:	9200      	str	r2, [sp, #0]
1000310c:	695b      	ldr	r3, [r3, #20]
1000310e:	2200      	movs	r2, #0
10003110:	001c      	movs	r4, r3
10003112:	2108      	movs	r1, #8
10003114:	2300      	movs	r3, #0
10003116:	47a0      	blx	r4
10003118:	4643      	mov	r3, r8
1000311a:	726b      	strb	r3, [r5, #9]
1000311c:	e45a      	b.n	100029d4 <_ZN11ST7735_pico8drawLineEsssst+0x948>
1000311e:	9c06      	ldr	r4, [sp, #24]
10003120:	6868      	ldr	r0, [r5, #4]
10003122:	6803      	ldr	r3, [r0, #0]
10003124:	691b      	ldr	r3, [r3, #16]
10003126:	4798      	blx	r3
10003128:	2800      	cmp	r0, #0
1000312a:	d1f9      	bne.n	10003120 <_ZN11ST7735_pico8drawLineEsssst+0x1094>
1000312c:	2201      	movs	r2, #1
1000312e:	4680      	mov	r8, r0
10003130:	6868      	ldr	r0, [r5, #4]
10003132:	9406      	str	r4, [sp, #24]
10003134:	6803      	ldr	r3, [r0, #0]
10003136:	9200      	str	r2, [sp, #0]
10003138:	695b      	ldr	r3, [r3, #20]
1000313a:	2200      	movs	r2, #0
1000313c:	001c      	movs	r4, r3
1000313e:	2108      	movs	r1, #8
10003140:	2300      	movs	r3, #0
10003142:	47a0      	blx	r4
10003144:	4643      	mov	r3, r8
10003146:	726b      	strb	r3, [r5, #9]
10003148:	e4f5      	b.n	10002b36 <_ZN11ST7735_pico8drawLineEsssst+0xaaa>
1000314a:	0014      	movs	r4, r2
1000314c:	6868      	ldr	r0, [r5, #4]
1000314e:	6803      	ldr	r3, [r0, #0]
10003150:	691b      	ldr	r3, [r3, #16]
10003152:	4798      	blx	r3
10003154:	2800      	cmp	r0, #0
10003156:	d1f9      	bne.n	1000314c <_ZN11ST7735_pico8drawLineEsssst+0x10c0>
10003158:	2201      	movs	r2, #1
1000315a:	6868      	ldr	r0, [r5, #4]
1000315c:	9406      	str	r4, [sp, #24]
1000315e:	6803      	ldr	r3, [r0, #0]
10003160:	9200      	str	r2, [sp, #0]
10003162:	695b      	ldr	r3, [r3, #20]
10003164:	2200      	movs	r2, #0
10003166:	001c      	movs	r4, r3
10003168:	2110      	movs	r1, #16
1000316a:	2300      	movs	r3, #0
1000316c:	47a0      	blx	r4
1000316e:	2201      	movs	r2, #1
10003170:	726a      	strb	r2, [r5, #9]
10003172:	e445      	b.n	10002a00 <_ZN11ST7735_pico8drawLineEsssst+0x974>
10003174:	0014      	movs	r4, r2
10003176:	6868      	ldr	r0, [r5, #4]
10003178:	6803      	ldr	r3, [r0, #0]
1000317a:	691b      	ldr	r3, [r3, #16]
1000317c:	4798      	blx	r3
1000317e:	2800      	cmp	r0, #0
10003180:	d1f9      	bne.n	10003176 <_ZN11ST7735_pico8drawLineEsssst+0x10ea>
10003182:	2201      	movs	r2, #1
10003184:	6868      	ldr	r0, [r5, #4]
10003186:	9406      	str	r4, [sp, #24]
10003188:	6803      	ldr	r3, [r0, #0]
1000318a:	9200      	str	r2, [sp, #0]
1000318c:	695b      	ldr	r3, [r3, #20]
1000318e:	2200      	movs	r2, #0
10003190:	001c      	movs	r4, r3
10003192:	2110      	movs	r1, #16
10003194:	2300      	movs	r3, #0
10003196:	47a0      	blx	r4
10003198:	2201      	movs	r2, #1
1000319a:	726a      	strb	r2, [r5, #9]
1000319c:	e4e1      	b.n	10002b62 <_ZN11ST7735_pico8drawLineEsssst+0xad6>
1000319e:	003a      	movs	r2, r7
100031a0:	f7ff fb18 	bl	100027d4 <_ZN11ST7735_pico8drawLineEsssst+0x748>
100031a4:	003a      	movs	r2, r7
100031a6:	f7ff fa21 	bl	100025ec <_ZN11ST7735_pico8drawLineEsssst+0x560>
100031aa:	9c06      	ldr	r4, [sp, #24]
100031ac:	6868      	ldr	r0, [r5, #4]
100031ae:	6803      	ldr	r3, [r0, #0]
100031b0:	691b      	ldr	r3, [r3, #16]
100031b2:	4798      	blx	r3
100031b4:	2800      	cmp	r0, #0
100031b6:	d1f9      	bne.n	100031ac <_ZN11ST7735_pico8drawLineEsssst+0x1120>
100031b8:	2201      	movs	r2, #1
100031ba:	6868      	ldr	r0, [r5, #4]
100031bc:	9406      	str	r4, [sp, #24]
100031be:	6803      	ldr	r3, [r0, #0]
100031c0:	9200      	str	r2, [sp, #0]
100031c2:	695b      	ldr	r3, [r3, #20]
100031c4:	2200      	movs	r2, #0
100031c6:	001c      	movs	r4, r3
100031c8:	2110      	movs	r1, #16
100031ca:	2300      	movs	r3, #0
100031cc:	47a0      	blx	r4
100031ce:	2201      	movs	r2, #1
100031d0:	726a      	strb	r2, [r5, #9]
100031d2:	f7ff f94f 	bl	10002474 <_ZN11ST7735_pico8drawLineEsssst+0x3e8>
100031d6:	9c06      	ldr	r4, [sp, #24]
100031d8:	6868      	ldr	r0, [r5, #4]
100031da:	6803      	ldr	r3, [r0, #0]
100031dc:	691b      	ldr	r3, [r3, #16]
100031de:	4798      	blx	r3
100031e0:	2800      	cmp	r0, #0
100031e2:	d1f9      	bne.n	100031d8 <_ZN11ST7735_pico8drawLineEsssst+0x114c>
100031e4:	2201      	movs	r2, #1
100031e6:	4680      	mov	r8, r0
100031e8:	6868      	ldr	r0, [r5, #4]
100031ea:	9406      	str	r4, [sp, #24]
100031ec:	6803      	ldr	r3, [r0, #0]
100031ee:	9200      	str	r2, [sp, #0]
100031f0:	695b      	ldr	r3, [r3, #20]
100031f2:	2200      	movs	r2, #0
100031f4:	001c      	movs	r4, r3
100031f6:	2108      	movs	r1, #8
100031f8:	2300      	movs	r3, #0
100031fa:	47a0      	blx	r4
100031fc:	4643      	mov	r3, r8
100031fe:	726b      	strb	r3, [r5, #9]
10003200:	f7ff f921 	bl	10002446 <_ZN11ST7735_pico8drawLineEsssst+0x3ba>
10003204:	9c06      	ldr	r4, [sp, #24]
10003206:	6868      	ldr	r0, [r5, #4]
10003208:	6803      	ldr	r3, [r0, #0]
1000320a:	691b      	ldr	r3, [r3, #16]
1000320c:	4798      	blx	r3
1000320e:	2800      	cmp	r0, #0
10003210:	d1f9      	bne.n	10003206 <_ZN11ST7735_pico8drawLineEsssst+0x117a>
10003212:	2201      	movs	r2, #1
10003214:	6868      	ldr	r0, [r5, #4]
10003216:	9406      	str	r4, [sp, #24]
10003218:	6803      	ldr	r3, [r0, #0]
1000321a:	9200      	str	r2, [sp, #0]
1000321c:	695b      	ldr	r3, [r3, #20]
1000321e:	2200      	movs	r2, #0
10003220:	001c      	movs	r4, r3
10003222:	2110      	movs	r1, #16
10003224:	2300      	movs	r3, #0
10003226:	47a0      	blx	r4
10003228:	2201      	movs	r2, #1
1000322a:	726a      	strb	r2, [r5, #9]
1000322c:	f7ff f97b 	bl	10002526 <_ZN11ST7735_pico8drawLineEsssst+0x49a>
10003230:	9c06      	ldr	r4, [sp, #24]
10003232:	6868      	ldr	r0, [r5, #4]
10003234:	6803      	ldr	r3, [r0, #0]
10003236:	691b      	ldr	r3, [r3, #16]
10003238:	4798      	blx	r3
1000323a:	2800      	cmp	r0, #0
1000323c:	d1f9      	bne.n	10003232 <_ZN11ST7735_pico8drawLineEsssst+0x11a6>
1000323e:	2201      	movs	r2, #1
10003240:	6868      	ldr	r0, [r5, #4]
10003242:	9406      	str	r4, [sp, #24]
10003244:	6803      	ldr	r3, [r0, #0]
10003246:	9200      	str	r2, [sp, #0]
10003248:	695b      	ldr	r3, [r3, #20]
1000324a:	2200      	movs	r2, #0
1000324c:	001c      	movs	r4, r3
1000324e:	2110      	movs	r1, #16
10003250:	2300      	movs	r3, #0
10003252:	47a0      	blx	r4
10003254:	2201      	movs	r2, #1
10003256:	726a      	strb	r2, [r5, #9]
10003258:	f7ff f94e 	bl	100024f8 <_ZN11ST7735_pico8drawLineEsssst+0x46c>
1000325c:	9c06      	ldr	r4, [sp, #24]
1000325e:	6868      	ldr	r0, [r5, #4]
10003260:	6803      	ldr	r3, [r0, #0]
10003262:	691b      	ldr	r3, [r3, #16]
10003264:	4798      	blx	r3
10003266:	2800      	cmp	r0, #0
10003268:	d1f9      	bne.n	1000325e <_ZN11ST7735_pico8drawLineEsssst+0x11d2>
1000326a:	2201      	movs	r2, #1
1000326c:	4680      	mov	r8, r0
1000326e:	6868      	ldr	r0, [r5, #4]
10003270:	9406      	str	r4, [sp, #24]
10003272:	6803      	ldr	r3, [r0, #0]
10003274:	9200      	str	r2, [sp, #0]
10003276:	695b      	ldr	r3, [r3, #20]
10003278:	2200      	movs	r2, #0
1000327a:	001c      	movs	r4, r3
1000327c:	2108      	movs	r1, #8
1000327e:	2300      	movs	r3, #0
10003280:	47a0      	blx	r4
10003282:	4643      	mov	r3, r8
10003284:	726b      	strb	r3, [r5, #9]
10003286:	f7ff f920 	bl	100024ca <_ZN11ST7735_pico8drawLineEsssst+0x43e>
1000328a:	9c06      	ldr	r4, [sp, #24]
1000328c:	6868      	ldr	r0, [r5, #4]
1000328e:	6803      	ldr	r3, [r0, #0]
10003290:	691b      	ldr	r3, [r3, #16]
10003292:	4798      	blx	r3
10003294:	2800      	cmp	r0, #0
10003296:	d1f9      	bne.n	1000328c <_ZN11ST7735_pico8drawLineEsssst+0x1200>
10003298:	2201      	movs	r2, #1
1000329a:	6868      	ldr	r0, [r5, #4]
1000329c:	9406      	str	r4, [sp, #24]
1000329e:	6803      	ldr	r3, [r0, #0]
100032a0:	9200      	str	r2, [sp, #0]
100032a2:	695b      	ldr	r3, [r3, #20]
100032a4:	2200      	movs	r2, #0
100032a6:	001c      	movs	r4, r3
100032a8:	2110      	movs	r1, #16
100032aa:	2300      	movs	r3, #0
100032ac:	47a0      	blx	r4
100032ae:	2201      	movs	r2, #1
100032b0:	726a      	strb	r2, [r5, #9]
100032b2:	f7ff f8fa 	bl	100024aa <_ZN11ST7735_pico8drawLineEsssst+0x41e>
100032b6:	9c06      	ldr	r4, [sp, #24]
100032b8:	6868      	ldr	r0, [r5, #4]
100032ba:	6803      	ldr	r3, [r0, #0]
100032bc:	691b      	ldr	r3, [r3, #16]
100032be:	4798      	blx	r3
100032c0:	2800      	cmp	r0, #0
100032c2:	d1f9      	bne.n	100032b8 <_ZN11ST7735_pico8drawLineEsssst+0x122c>
100032c4:	2201      	movs	r2, #1
100032c6:	4680      	mov	r8, r0
100032c8:	6868      	ldr	r0, [r5, #4]
100032ca:	9406      	str	r4, [sp, #24]
100032cc:	6803      	ldr	r3, [r0, #0]
100032ce:	9200      	str	r2, [sp, #0]
100032d0:	695b      	ldr	r3, [r3, #20]
100032d2:	2200      	movs	r2, #0
100032d4:	001c      	movs	r4, r3
100032d6:	2108      	movs	r1, #8
100032d8:	2300      	movs	r3, #0
100032da:	47a0      	blx	r4
100032dc:	4643      	mov	r3, r8
100032de:	726b      	strb	r3, [r5, #9]
100032e0:	f7ff f817 	bl	10002312 <_ZN11ST7735_pico8drawLineEsssst+0x286>
100032e4:	9c06      	ldr	r4, [sp, #24]
100032e6:	6868      	ldr	r0, [r5, #4]
100032e8:	6803      	ldr	r3, [r0, #0]
100032ea:	691b      	ldr	r3, [r3, #16]
100032ec:	4798      	blx	r3
100032ee:	2800      	cmp	r0, #0
100032f0:	d1f9      	bne.n	100032e6 <_ZN11ST7735_pico8drawLineEsssst+0x125a>
100032f2:	2201      	movs	r2, #1
100032f4:	6868      	ldr	r0, [r5, #4]
100032f6:	9406      	str	r4, [sp, #24]
100032f8:	6803      	ldr	r3, [r0, #0]
100032fa:	9200      	str	r2, [sp, #0]
100032fc:	695b      	ldr	r3, [r3, #20]
100032fe:	2200      	movs	r2, #0
10003300:	001c      	movs	r4, r3
10003302:	2110      	movs	r1, #16
10003304:	2300      	movs	r3, #0
10003306:	47a0      	blx	r4
10003308:	2201      	movs	r2, #1
1000330a:	726a      	strb	r2, [r5, #9]
1000330c:	f7fe fff1 	bl	100022f2 <_ZN11ST7735_pico8drawLineEsssst+0x266>
10003310:	9c06      	ldr	r4, [sp, #24]
10003312:	6868      	ldr	r0, [r5, #4]
10003314:	6803      	ldr	r3, [r0, #0]
10003316:	691b      	ldr	r3, [r3, #16]
10003318:	4798      	blx	r3
1000331a:	2800      	cmp	r0, #0
1000331c:	d1f9      	bne.n	10003312 <_ZN11ST7735_pico8drawLineEsssst+0x1286>
1000331e:	2201      	movs	r2, #1
10003320:	6868      	ldr	r0, [r5, #4]
10003322:	9406      	str	r4, [sp, #24]
10003324:	6803      	ldr	r3, [r0, #0]
10003326:	9200      	str	r2, [sp, #0]
10003328:	695b      	ldr	r3, [r3, #20]
1000332a:	2200      	movs	r2, #0
1000332c:	001c      	movs	r4, r3
1000332e:	2110      	movs	r1, #16
10003330:	2300      	movs	r3, #0
10003332:	47a0      	blx	r4
10003334:	2201      	movs	r2, #1
10003336:	726a      	strb	r2, [r5, #9]
10003338:	f7fe ffc0 	bl	100022bc <_ZN11ST7735_pico8drawLineEsssst+0x230>
1000333c:	9c06      	ldr	r4, [sp, #24]
1000333e:	6868      	ldr	r0, [r5, #4]
10003340:	6803      	ldr	r3, [r0, #0]
10003342:	691b      	ldr	r3, [r3, #16]
10003344:	4798      	blx	r3
10003346:	2800      	cmp	r0, #0
10003348:	d1f9      	bne.n	1000333e <_ZN11ST7735_pico8drawLineEsssst+0x12b2>
1000334a:	2201      	movs	r2, #1
1000334c:	4680      	mov	r8, r0
1000334e:	6868      	ldr	r0, [r5, #4]
10003350:	9406      	str	r4, [sp, #24]
10003352:	6803      	ldr	r3, [r0, #0]
10003354:	9200      	str	r2, [sp, #0]
10003356:	695b      	ldr	r3, [r3, #20]
10003358:	2200      	movs	r2, #0
1000335a:	001c      	movs	r4, r3
1000335c:	2108      	movs	r1, #8
1000335e:	2300      	movs	r3, #0
10003360:	47a0      	blx	r4
10003362:	4643      	mov	r3, r8
10003364:	726b      	strb	r3, [r5, #9]
10003366:	f7fe ff92 	bl	1000228e <_ZN11ST7735_pico8drawLineEsssst+0x202>
1000336a:	9c06      	ldr	r4, [sp, #24]
1000336c:	6868      	ldr	r0, [r5, #4]
1000336e:	6803      	ldr	r3, [r0, #0]
10003370:	691b      	ldr	r3, [r3, #16]
10003372:	4798      	blx	r3
10003374:	2800      	cmp	r0, #0
10003376:	d1f9      	bne.n	1000336c <_ZN11ST7735_pico8drawLineEsssst+0x12e0>
10003378:	2201      	movs	r2, #1
1000337a:	6868      	ldr	r0, [r5, #4]
1000337c:	9406      	str	r4, [sp, #24]
1000337e:	6803      	ldr	r3, [r0, #0]
10003380:	9200      	str	r2, [sp, #0]
10003382:	695b      	ldr	r3, [r3, #20]
10003384:	2200      	movs	r2, #0
10003386:	001c      	movs	r4, r3
10003388:	2110      	movs	r1, #16
1000338a:	2300      	movs	r3, #0
1000338c:	47a0      	blx	r4
1000338e:	2201      	movs	r2, #1
10003390:	726a      	strb	r2, [r5, #9]
10003392:	f7fe ff6c 	bl	1000226e <_ZN11ST7735_pico8drawLineEsssst+0x1e2>
10003396:	9c06      	ldr	r4, [sp, #24]
10003398:	6868      	ldr	r0, [r5, #4]
1000339a:	6803      	ldr	r3, [r0, #0]
1000339c:	691b      	ldr	r3, [r3, #16]
1000339e:	4798      	blx	r3
100033a0:	2800      	cmp	r0, #0
100033a2:	d1f9      	bne.n	10003398 <_ZN11ST7735_pico8drawLineEsssst+0x130c>
100033a4:	2201      	movs	r2, #1
100033a6:	6868      	ldr	r0, [r5, #4]
100033a8:	9406      	str	r4, [sp, #24]
100033aa:	6803      	ldr	r3, [r0, #0]
100033ac:	9200      	str	r2, [sp, #0]
100033ae:	695b      	ldr	r3, [r3, #20]
100033b0:	2200      	movs	r2, #0
100033b2:	001c      	movs	r4, r3
100033b4:	2110      	movs	r1, #16
100033b6:	2300      	movs	r3, #0
100033b8:	47a0      	blx	r4
100033ba:	2201      	movs	r2, #1
100033bc:	726a      	strb	r2, [r5, #9]
100033be:	f7fe ff3f 	bl	10002240 <_ZN11ST7735_pico8drawLineEsssst+0x1b4>
100033c2:	9c06      	ldr	r4, [sp, #24]
100033c4:	6868      	ldr	r0, [r5, #4]
100033c6:	6803      	ldr	r3, [r0, #0]
100033c8:	691b      	ldr	r3, [r3, #16]
100033ca:	4798      	blx	r3
100033cc:	2800      	cmp	r0, #0
100033ce:	d1f9      	bne.n	100033c4 <_ZN11ST7735_pico8drawLineEsssst+0x1338>
100033d0:	2201      	movs	r2, #1
100033d2:	4680      	mov	r8, r0
100033d4:	6868      	ldr	r0, [r5, #4]
100033d6:	9406      	str	r4, [sp, #24]
100033d8:	6803      	ldr	r3, [r0, #0]
100033da:	9200      	str	r2, [sp, #0]
100033dc:	695b      	ldr	r3, [r3, #20]
100033de:	2200      	movs	r2, #0
100033e0:	001c      	movs	r4, r3
100033e2:	2108      	movs	r1, #8
100033e4:	2300      	movs	r3, #0
100033e6:	47a0      	blx	r4
100033e8:	4643      	mov	r3, r8
100033ea:	726b      	strb	r3, [r5, #9]
100033ec:	f7fe ff11 	bl	10002212 <_ZN11ST7735_pico8drawLineEsssst+0x186>
100033f0:	9c06      	ldr	r4, [sp, #24]
100033f2:	6868      	ldr	r0, [r5, #4]
100033f4:	6803      	ldr	r3, [r0, #0]
100033f6:	691b      	ldr	r3, [r3, #16]
100033f8:	4798      	blx	r3
100033fa:	2800      	cmp	r0, #0
100033fc:	d1f9      	bne.n	100033f2 <_ZN11ST7735_pico8drawLineEsssst+0x1366>
100033fe:	2201      	movs	r2, #1
10003400:	4680      	mov	r8, r0
10003402:	6868      	ldr	r0, [r5, #4]
10003404:	9406      	str	r4, [sp, #24]
10003406:	6803      	ldr	r3, [r0, #0]
10003408:	9200      	str	r2, [sp, #0]
1000340a:	695b      	ldr	r3, [r3, #20]
1000340c:	2200      	movs	r2, #0
1000340e:	001c      	movs	r4, r3
10003410:	2108      	movs	r1, #8
10003412:	2300      	movs	r3, #0
10003414:	47a0      	blx	r4
10003416:	4643      	mov	r3, r8
10003418:	726b      	strb	r3, [r5, #9]
1000341a:	f7ff f894 	bl	10002546 <_ZN11ST7735_pico8drawLineEsssst+0x4ba>
1000341e:	b293      	uxth	r3, r2
10003420:	1ae4      	subs	r4, r4, r3
10003422:	4454      	add	r4, sl
10003424:	469b      	mov	fp, r3
10003426:	b224      	sxth	r4, r4
10003428:	f7ff f907 	bl	1000263a <_ZN11ST7735_pico8drawLineEsssst+0x5ae>
1000342c:	4661      	mov	r1, ip
1000342e:	b283      	uxth	r3, r0
10003430:	1acc      	subs	r4, r1, r3
10003432:	4454      	add	r4, sl
10003434:	469b      	mov	fp, r3
10003436:	b224      	sxth	r4, r4
10003438:	f7ff f9f4 	bl	10002824 <_ZN11ST7735_pico8drawLineEsssst+0x798>

1000343c <_ZN11ST7735_pico9setCursorEssb>:
1000343c:	b570      	push	{r4, r5, r6, lr}
1000343e:	021c      	lsls	r4, r3, #8
10003440:	431c      	orrs	r4, r3
10003442:	4b25      	ldr	r3, [pc, #148]	; (100034d8 <_ZN11ST7735_pico9setCursorEssb+0x9c>)
10003444:	81c4      	strh	r4, [r0, #14]
10003446:	4299      	cmp	r1, r3
10003448:	d106      	bne.n	10003458 <_ZN11ST7735_pico9setCursorEssb+0x1c>
1000344a:	2301      	movs	r3, #1
1000344c:	7383      	strb	r3, [r0, #14]
1000344e:	2126      	movs	r1, #38	; 0x26
10003450:	5e43      	ldrsh	r3, [r0, r1]
10003452:	0fd9      	lsrs	r1, r3, #31
10003454:	18c9      	adds	r1, r1, r3
10003456:	1049      	asrs	r1, r1, #1
10003458:	4b1f      	ldr	r3, [pc, #124]	; (100034d8 <_ZN11ST7735_pico9setCursorEssb+0x9c>)
1000345a:	429a      	cmp	r2, r3
1000345c:	d106      	bne.n	1000346c <_ZN11ST7735_pico9setCursorEssb+0x30>
1000345e:	2301      	movs	r3, #1
10003460:	73c3      	strb	r3, [r0, #15]
10003462:	2228      	movs	r2, #40	; 0x28
10003464:	5e83      	ldrsh	r3, [r0, r2]
10003466:	0fda      	lsrs	r2, r3, #31
10003468:	18d2      	adds	r2, r2, r3
1000346a:	1052      	asrs	r2, r2, #1
1000346c:	2900      	cmp	r1, #0
1000346e:	db31      	blt.n	100034d4 <_ZN11ST7735_pico9setCursorEssb+0x98>
10003470:	2426      	movs	r4, #38	; 0x26
10003472:	5f03      	ldrsh	r3, [r0, r4]
10003474:	428b      	cmp	r3, r1
10003476:	dd26      	ble.n	100034c6 <_ZN11ST7735_pico9setCursorEssb+0x8a>
10003478:	8141      	strh	r1, [r0, #10]
1000347a:	2a00      	cmp	r2, #0
1000347c:	db28      	blt.n	100034d0 <_ZN11ST7735_pico9setCursorEssb+0x94>
1000347e:	2428      	movs	r4, #40	; 0x28
10003480:	5f03      	ldrsh	r3, [r0, r4]
10003482:	4293      	cmp	r3, r2
10003484:	dd1c      	ble.n	100034c0 <_ZN11ST7735_pico9setCursorEssb+0x84>
10003486:	232a      	movs	r3, #42	; 0x2a
10003488:	5ec4      	ldrsh	r4, [r0, r3]
1000348a:	8182      	strh	r2, [r0, #12]
1000348c:	2300      	movs	r3, #0
1000348e:	428c      	cmp	r4, r1
10003490:	dc10      	bgt.n	100034b4 <_ZN11ST7735_pico9setCursorEssb+0x78>
10003492:	262e      	movs	r6, #46	; 0x2e
10003494:	5f85      	ldrsh	r5, [r0, r6]
10003496:	192c      	adds	r4, r5, r4
10003498:	42a1      	cmp	r1, r4
1000349a:	dc0b      	bgt.n	100034b4 <_ZN11ST7735_pico9setCursorEssb+0x78>
1000349c:	212c      	movs	r1, #44	; 0x2c
1000349e:	5e44      	ldrsh	r4, [r0, r1]
100034a0:	4294      	cmp	r4, r2
100034a2:	dc07      	bgt.n	100034b4 <_ZN11ST7735_pico9setCursorEssb+0x78>
100034a4:	2330      	movs	r3, #48	; 0x30
100034a6:	5ec1      	ldrsh	r1, [r0, r3]
100034a8:	0fd3      	lsrs	r3, r2, #31
100034aa:	1909      	adds	r1, r1, r4
100034ac:	17cc      	asrs	r4, r1, #31
100034ae:	4291      	cmp	r1, r2
100034b0:	4163      	adcs	r3, r4
100034b2:	b2db      	uxtb	r3, r3
100034b4:	2233      	movs	r2, #51	; 0x33
100034b6:	5483      	strb	r3, [r0, r2]
100034b8:	236c      	movs	r3, #108	; 0x6c
100034ba:	2200      	movs	r2, #0
100034bc:	52c2      	strh	r2, [r0, r3]
100034be:	bd70      	pop	{r4, r5, r6, pc}
100034c0:	3b01      	subs	r3, #1
100034c2:	b21a      	sxth	r2, r3
100034c4:	e7df      	b.n	10003486 <_ZN11ST7735_pico9setCursorEssb+0x4a>
100034c6:	3b01      	subs	r3, #1
100034c8:	b219      	sxth	r1, r3
100034ca:	8141      	strh	r1, [r0, #10]
100034cc:	2a00      	cmp	r2, #0
100034ce:	dad6      	bge.n	1000347e <_ZN11ST7735_pico9setCursorEssb+0x42>
100034d0:	2200      	movs	r2, #0
100034d2:	e7d8      	b.n	10003486 <_ZN11ST7735_pico9setCursorEssb+0x4a>
100034d4:	2100      	movs	r1, #0
100034d6:	e7cf      	b.n	10003478 <_ZN11ST7735_pico9setCursorEssb+0x3c>
100034d8:	0000270e 	.word	0x0000270e

100034dc <_ZN11ST7735_pico12setTextColorEt>:
100034dc:	040b      	lsls	r3, r1, #16
100034de:	4319      	orrs	r1, r3
100034e0:	6341      	str	r1, [r0, #52]	; 0x34
100034e2:	4770      	bx	lr

100034e4 <_ZN11ST7735_pico8drawCharEsshtthh>:
100034e4:	b5f0      	push	{r4, r5, r6, r7, lr}
100034e6:	464e      	mov	r6, r9
100034e8:	4657      	mov	r7, sl
100034ea:	4645      	mov	r5, r8
100034ec:	46de      	mov	lr, fp
100034ee:	b5e0      	push	{r5, r6, r7, lr}
100034f0:	0007      	movs	r7, r0
100034f2:	4689      	mov	r9, r1
100034f4:	b095      	sub	sp, #84	; 0x54
100034f6:	9305      	str	r3, [sp, #20]
100034f8:	ab1e      	add	r3, sp, #120	; 0x78
100034fa:	881c      	ldrh	r4, [r3, #0]
100034fc:	ab1f      	add	r3, sp, #124	; 0x7c
100034fe:	881d      	ldrh	r5, [r3, #0]
10003500:	ab20      	add	r3, sp, #128	; 0x80
10003502:	7819      	ldrb	r1, [r3, #0]
10003504:	ab21      	add	r3, sp, #132	; 0x84
10003506:	7818      	ldrb	r0, [r3, #0]
10003508:	9208      	str	r2, [sp, #32]
1000350a:	9403      	str	r4, [sp, #12]
1000350c:	9507      	str	r5, [sp, #28]
1000350e:	9106      	str	r1, [sp, #24]
10003510:	9004      	str	r0, [sp, #16]
10003512:	0016      	movs	r6, r2
10003514:	2226      	movs	r2, #38	; 0x26
10003516:	5ebb      	ldrsh	r3, [r7, r2]
10003518:	454b      	cmp	r3, r9
1000351a:	dc00      	bgt.n	1000351e <_ZN11ST7735_pico8drawCharEsshtthh+0x3a>
1000351c:	e21d      	b.n	1000395a <_ZN11ST7735_pico8drawCharEsshtthh+0x476>
1000351e:	2228      	movs	r2, #40	; 0x28
10003520:	5ebb      	ldrsh	r3, [r7, r2]
10003522:	42b3      	cmp	r3, r6
10003524:	dc00      	bgt.n	10003528 <_ZN11ST7735_pico8drawCharEsshtthh+0x44>
10003526:	e218      	b.n	1000395a <_ZN11ST7735_pico8drawCharEsshtthh+0x476>
10003528:	468c      	mov	ip, r1
1000352a:	004b      	lsls	r3, r1, #1
1000352c:	4649      	mov	r1, r9
1000352e:	4463      	add	r3, ip
10003530:	005b      	lsls	r3, r3, #1
10003532:	18ca      	adds	r2, r1, r3
10003534:	2a00      	cmp	r2, #0
10003536:	dc00      	bgt.n	1000353a <_ZN11ST7735_pico8drawCharEsshtthh+0x56>
10003538:	e20f      	b.n	1000395a <_ZN11ST7735_pico8drawCharEsshtthh+0x476>
1000353a:	00c0      	lsls	r0, r0, #3
1000353c:	1832      	adds	r2, r6, r0
1000353e:	2a00      	cmp	r2, #0
10003540:	dc00      	bgt.n	10003544 <_ZN11ST7735_pico8drawCharEsshtthh+0x60>
10003542:	e20a      	b.n	1000395a <_ZN11ST7735_pico8drawCharEsshtthh+0x476>
10003544:	42ac      	cmp	r4, r5
10003546:	d100      	bne.n	1000354a <_ZN11ST7735_pico8drawCharEsshtthh+0x66>
10003548:	e173      	b.n	10003832 <_ZN11ST7735_pico8drawCharEsshtthh+0x34e>
1000354a:	8b39      	ldrh	r1, [r7, #24]
1000354c:	4449      	add	r1, r9
1000354e:	b28c      	uxth	r4, r1
10003550:	b20d      	sxth	r5, r1
10003552:	2220      	movs	r2, #32
10003554:	5eb9      	ldrsh	r1, [r7, r2]
10003556:	42a9      	cmp	r1, r5
10003558:	dc00      	bgt.n	1000355c <_ZN11ST7735_pico8drawCharEsshtthh+0x78>
1000355a:	e1fe      	b.n	1000395a <_ZN11ST7735_pico8drawCharEsshtthh+0x476>
1000355c:	46b4      	mov	ip, r6
1000355e:	8b7a      	ldrh	r2, [r7, #26]
10003560:	4462      	add	r2, ip
10003562:	b296      	uxth	r6, r2
10003564:	b212      	sxth	r2, r2
10003566:	4693      	mov	fp, r2
10003568:	46b1      	mov	r9, r6
1000356a:	2622      	movs	r6, #34	; 0x22
1000356c:	5fba      	ldrsh	r2, [r7, r6]
1000356e:	4692      	mov	sl, r2
10003570:	455a      	cmp	r2, fp
10003572:	dc00      	bgt.n	10003576 <_ZN11ST7735_pico8drawCharEsshtthh+0x92>
10003574:	e1f1      	b.n	1000395a <_ZN11ST7735_pico8drawCharEsshtthh+0x476>
10003576:	261c      	movs	r6, #28
10003578:	5fba      	ldrsh	r2, [r7, r6]
1000357a:	950d      	str	r5, [sp, #52]	; 0x34
1000357c:	195d      	adds	r5, r3, r5
1000357e:	4690      	mov	r8, r2
10003580:	4295      	cmp	r5, r2
10003582:	dc00      	bgt.n	10003586 <_ZN11ST7735_pico8drawCharEsshtthh+0xa2>
10003584:	e1e9      	b.n	1000395a <_ZN11ST7735_pico8drawCharEsshtthh+0x476>
10003586:	251e      	movs	r5, #30
10003588:	5f7e      	ldrsh	r6, [r7, r5]
1000358a:	46b4      	mov	ip, r6
1000358c:	960a      	str	r6, [sp, #40]	; 0x28
1000358e:	465e      	mov	r6, fp
10003590:	1985      	adds	r5, r0, r6
10003592:	4565      	cmp	r5, ip
10003594:	dc00      	bgt.n	10003598 <_ZN11ST7735_pico8drawCharEsshtthh+0xb4>
10003596:	e1e0      	b.n	1000395a <_ZN11ST7735_pico8drawCharEsshtthh+0x476>
10003598:	b29d      	uxth	r5, r3
1000359a:	b283      	uxth	r3, r0
1000359c:	980d      	ldr	r0, [sp, #52]	; 0x34
1000359e:	9308      	str	r3, [sp, #32]
100035a0:	4282      	cmp	r2, r0
100035a2:	dd00      	ble.n	100035a6 <_ZN11ST7735_pico8drawCharEsshtthh+0xc2>
100035a4:	e36f      	b.n	10003c86 <_ZN11ST7735_pico8drawCharEsshtthh+0x7a2>
100035a6:	4680      	mov	r8, r0
100035a8:	b22b      	sxth	r3, r5
100035aa:	9409      	str	r4, [sp, #36]	; 0x24
100035ac:	4443      	add	r3, r8
100035ae:	428b      	cmp	r3, r1
100035b0:	dd02      	ble.n	100035b8 <_ZN11ST7735_pico8drawCharEsshtthh+0xd4>
100035b2:	9b09      	ldr	r3, [sp, #36]	; 0x24
100035b4:	1ac9      	subs	r1, r1, r3
100035b6:	b28d      	uxth	r5, r1
100035b8:	45dc      	cmp	ip, fp
100035ba:	dd00      	ble.n	100035be <_ZN11ST7735_pico8drawCharEsshtthh+0xda>
100035bc:	e356      	b.n	10003c6c <_ZN11ST7735_pico8drawCharEsshtthh+0x788>
100035be:	466b      	mov	r3, sp
100035c0:	2220      	movs	r2, #32
100035c2:	5e9b      	ldrsh	r3, [r3, r2]
100035c4:	465a      	mov	r2, fp
100035c6:	46c8      	mov	r8, r9
100035c8:	920a      	str	r2, [sp, #40]	; 0x28
100035ca:	9a0a      	ldr	r2, [sp, #40]	; 0x28
100035cc:	4694      	mov	ip, r2
100035ce:	4463      	add	r3, ip
100035d0:	4553      	cmp	r3, sl
100035d2:	dd04      	ble.n	100035de <_ZN11ST7735_pico8drawCharEsshtthh+0xfa>
100035d4:	4653      	mov	r3, sl
100035d6:	4642      	mov	r2, r8
100035d8:	1a98      	subs	r0, r3, r2
100035da:	b283      	uxth	r3, r0
100035dc:	9308      	str	r3, [sp, #32]
100035de:	6878      	ldr	r0, [r7, #4]
100035e0:	6803      	ldr	r3, [r0, #0]
100035e2:	68db      	ldr	r3, [r3, #12]
100035e4:	4798      	blx	r3
100035e6:	2800      	cmp	r0, #0
100035e8:	d106      	bne.n	100035f8 <_ZN11ST7735_pico8drawCharEsshtthh+0x114>
100035ea:	2380      	movs	r3, #128	; 0x80
100035ec:	5cfa      	ldrb	r2, [r7, r3]
100035ee:	3b7f      	subs	r3, #127	; 0x7f
100035f0:	4093      	lsls	r3, r2
100035f2:	22d0      	movs	r2, #208	; 0xd0
100035f4:	0612      	lsls	r2, r2, #24
100035f6:	6193      	str	r3, [r2, #24]
100035f8:	7a7b      	ldrb	r3, [r7, #9]
100035fa:	2b00      	cmp	r3, #0
100035fc:	d000      	beq.n	10003600 <_ZN11ST7735_pico8drawCharEsshtthh+0x11c>
100035fe:	e3c3      	b.n	10003d88 <_ZN11ST7735_pico8drawCharEsshtthh+0x8a4>
10003600:	2381      	movs	r3, #129	; 0x81
10003602:	5cfa      	ldrb	r2, [r7, r3]
10003604:	3b80      	subs	r3, #128	; 0x80
10003606:	4093      	lsls	r3, r2
10003608:	22d0      	movs	r2, #208	; 0xd0
1000360a:	0612      	lsls	r2, r2, #24
1000360c:	6193      	str	r3, [r2, #24]
1000360e:	212a      	movs	r1, #42	; 0x2a
10003610:	6878      	ldr	r0, [r7, #4]
10003612:	f7fc ffcb 	bl	100005ac <_ZN3SPI5writeEh>
10003616:	2376      	movs	r3, #118	; 0x76
10003618:	9a09      	ldr	r2, [sp, #36]	; 0x24
1000361a:	5afb      	ldrh	r3, [r7, r3]
1000361c:	4694      	mov	ip, r2
1000361e:	4463      	add	r3, ip
10003620:	b29b      	uxth	r3, r3
10003622:	4699      	mov	r9, r3
10003624:	7a7b      	ldrb	r3, [r7, #9]
10003626:	2b00      	cmp	r3, #0
10003628:	d100      	bne.n	1000362c <_ZN11ST7735_pico8drawCharEsshtthh+0x148>
1000362a:	e399      	b.n	10003d60 <_ZN11ST7735_pico8drawCharEsshtthh+0x87c>
1000362c:	2381      	movs	r3, #129	; 0x81
1000362e:	5cfa      	ldrb	r2, [r7, r3]
10003630:	3b80      	subs	r3, #128	; 0x80
10003632:	4093      	lsls	r3, r2
10003634:	22d0      	movs	r2, #208	; 0xd0
10003636:	0612      	lsls	r2, r2, #24
10003638:	6153      	str	r3, [r2, #20]
1000363a:	4649      	mov	r1, r9
1000363c:	6878      	ldr	r0, [r7, #4]
1000363e:	f7fc ffc1 	bl	100005c4 <_ZN3SPI7write16Et>
10003642:	2376      	movs	r3, #118	; 0x76
10003644:	9a09      	ldr	r2, [sp, #36]	; 0x24
10003646:	5afb      	ldrh	r3, [r7, r3]
10003648:	4694      	mov	ip, r2
1000364a:	3b01      	subs	r3, #1
1000364c:	4463      	add	r3, ip
1000364e:	18eb      	adds	r3, r5, r3
10003650:	b29d      	uxth	r5, r3
10003652:	7a7b      	ldrb	r3, [r7, #9]
10003654:	2b00      	cmp	r3, #0
10003656:	d100      	bne.n	1000365a <_ZN11ST7735_pico8drawCharEsshtthh+0x176>
10003658:	e36d      	b.n	10003d36 <_ZN11ST7735_pico8drawCharEsshtthh+0x852>
1000365a:	2381      	movs	r3, #129	; 0x81
1000365c:	5cfa      	ldrb	r2, [r7, r3]
1000365e:	3b80      	subs	r3, #128	; 0x80
10003660:	4093      	lsls	r3, r2
10003662:	22d0      	movs	r2, #208	; 0xd0
10003664:	0612      	lsls	r2, r2, #24
10003666:	6153      	str	r3, [r2, #20]
10003668:	0029      	movs	r1, r5
1000366a:	6878      	ldr	r0, [r7, #4]
1000366c:	f7fc ffaa 	bl	100005c4 <_ZN3SPI7write16Et>
10003670:	7a7b      	ldrb	r3, [r7, #9]
10003672:	2b00      	cmp	r3, #0
10003674:	d000      	beq.n	10003678 <_ZN11ST7735_pico8drawCharEsshtthh+0x194>
10003676:	e34a      	b.n	10003d0e <_ZN11ST7735_pico8drawCharEsshtthh+0x82a>
10003678:	2381      	movs	r3, #129	; 0x81
1000367a:	5cfa      	ldrb	r2, [r7, r3]
1000367c:	3b80      	subs	r3, #128	; 0x80
1000367e:	4093      	lsls	r3, r2
10003680:	22d0      	movs	r2, #208	; 0xd0
10003682:	0612      	lsls	r2, r2, #24
10003684:	6193      	str	r3, [r2, #24]
10003686:	212b      	movs	r1, #43	; 0x2b
10003688:	6878      	ldr	r0, [r7, #4]
1000368a:	f7fc ff8f 	bl	100005ac <_ZN3SPI5writeEh>
1000368e:	2378      	movs	r3, #120	; 0x78
10003690:	5afd      	ldrh	r5, [r7, r3]
10003692:	7a7b      	ldrb	r3, [r7, #9]
10003694:	4445      	add	r5, r8
10003696:	b2ad      	uxth	r5, r5
10003698:	2b00      	cmp	r3, #0
1000369a:	d100      	bne.n	1000369e <_ZN11ST7735_pico8drawCharEsshtthh+0x1ba>
1000369c:	e322      	b.n	10003ce4 <_ZN11ST7735_pico8drawCharEsshtthh+0x800>
1000369e:	2381      	movs	r3, #129	; 0x81
100036a0:	5cfa      	ldrb	r2, [r7, r3]
100036a2:	3b80      	subs	r3, #128	; 0x80
100036a4:	4093      	lsls	r3, r2
100036a6:	22d0      	movs	r2, #208	; 0xd0
100036a8:	0612      	lsls	r2, r2, #24
100036aa:	6878      	ldr	r0, [r7, #4]
100036ac:	6153      	str	r3, [r2, #20]
100036ae:	0029      	movs	r1, r5
100036b0:	f7fc ff88 	bl	100005c4 <_ZN3SPI7write16Et>
100036b4:	2378      	movs	r3, #120	; 0x78
100036b6:	5af8      	ldrh	r0, [r7, r3]
100036b8:	9b08      	ldr	r3, [sp, #32]
100036ba:	3801      	subs	r0, #1
100036bc:	469c      	mov	ip, r3
100036be:	4440      	add	r0, r8
100036c0:	7a7b      	ldrb	r3, [r7, #9]
100036c2:	4460      	add	r0, ip
100036c4:	b284      	uxth	r4, r0
100036c6:	2b00      	cmp	r3, #0
100036c8:	d100      	bne.n	100036cc <_ZN11ST7735_pico8drawCharEsshtthh+0x1e8>
100036ca:	e2f7      	b.n	10003cbc <_ZN11ST7735_pico8drawCharEsshtthh+0x7d8>
100036cc:	2381      	movs	r3, #129	; 0x81
100036ce:	5cfa      	ldrb	r2, [r7, r3]
100036d0:	3b80      	subs	r3, #128	; 0x80
100036d2:	4093      	lsls	r3, r2
100036d4:	22d0      	movs	r2, #208	; 0xd0
100036d6:	0612      	lsls	r2, r2, #24
100036d8:	6153      	str	r3, [r2, #20]
100036da:	0021      	movs	r1, r4
100036dc:	6878      	ldr	r0, [r7, #4]
100036de:	f7fc ff71 	bl	100005c4 <_ZN3SPI7write16Et>
100036e2:	7a7b      	ldrb	r3, [r7, #9]
100036e4:	2b00      	cmp	r3, #0
100036e6:	d000      	beq.n	100036ea <_ZN11ST7735_pico8drawCharEsshtthh+0x206>
100036e8:	e2d4      	b.n	10003c94 <_ZN11ST7735_pico8drawCharEsshtthh+0x7b0>
100036ea:	2381      	movs	r3, #129	; 0x81
100036ec:	5cfa      	ldrb	r2, [r7, r3]
100036ee:	3b80      	subs	r3, #128	; 0x80
100036f0:	4093      	lsls	r3, r2
100036f2:	22d0      	movs	r2, #208	; 0xd0
100036f4:	0612      	lsls	r2, r2, #24
100036f6:	6193      	str	r3, [r2, #24]
100036f8:	212c      	movs	r1, #44	; 0x2c
100036fa:	6878      	ldr	r0, [r7, #4]
100036fc:	f7fc ff56 	bl	100005ac <_ZN3SPI5writeEh>
10003700:	9b05      	ldr	r3, [sp, #20]
10003702:	469c      	mov	ip, r3
10003704:	009a      	lsls	r2, r3, #2
10003706:	2308      	movs	r3, #8
10003708:	930e      	str	r3, [sp, #56]	; 0x38
1000370a:	3b07      	subs	r3, #7
1000370c:	9308      	str	r3, [sp, #32]
1000370e:	4bd3      	ldr	r3, [pc, #844]	; (10003a5c <_ZN11ST7735_pico8drawCharEsshtthh+0x578>)
10003710:	4462      	add	r2, ip
10003712:	189b      	adds	r3, r3, r2
10003714:	9309      	str	r3, [sp, #36]	; 0x24
10003716:	2222      	movs	r2, #34	; 0x22
10003718:	5ebb      	ldrsh	r3, [r7, r2]
1000371a:	455b      	cmp	r3, fp
1000371c:	dc00      	bgt.n	10003720 <_ZN11ST7735_pico8drawCharEsshtthh+0x23c>
1000371e:	e1aa      	b.n	10003a76 <_ZN11ST7735_pico8drawCharEsshtthh+0x592>
10003720:	9b04      	ldr	r3, [sp, #16]
10003722:	2b00      	cmp	r3, #0
10003724:	d100      	bne.n	10003728 <_ZN11ST7735_pico8drawCharEsshtthh+0x244>
10003726:	e1a6      	b.n	10003a76 <_ZN11ST7735_pico8drawCharEsshtthh+0x592>
10003728:	445b      	add	r3, fp
1000372a:	b21b      	sxth	r3, r3
1000372c:	930b      	str	r3, [sp, #44]	; 0x2c
1000372e:	9b06      	ldr	r3, [sp, #24]
10003730:	3b01      	subs	r3, #1
10003732:	b2db      	uxtb	r3, r3
10003734:	930a      	str	r3, [sp, #40]	; 0x28
10003736:	e00c      	b.n	10003752 <_ZN11ST7735_pico8drawCharEsshtthh+0x26e>
10003738:	465b      	mov	r3, fp
1000373a:	3301      	adds	r3, #1
1000373c:	b21b      	sxth	r3, r3
1000373e:	469b      	mov	fp, r3
10003740:	9b0b      	ldr	r3, [sp, #44]	; 0x2c
10003742:	459b      	cmp	fp, r3
10003744:	d100      	bne.n	10003748 <_ZN11ST7735_pico8drawCharEsshtthh+0x264>
10003746:	e18b      	b.n	10003a60 <_ZN11ST7735_pico8drawCharEsshtthh+0x57c>
10003748:	2222      	movs	r2, #34	; 0x22
1000374a:	5ebb      	ldrsh	r3, [r7, r2]
1000374c:	455b      	cmp	r3, fp
1000374e:	dc00      	bgt.n	10003752 <_ZN11ST7735_pico8drawCharEsshtthh+0x26e>
10003750:	e186      	b.n	10003a60 <_ZN11ST7735_pico8drawCharEsshtthh+0x57c>
10003752:	221e      	movs	r2, #30
10003754:	5ebb      	ldrsh	r3, [r7, r2]
10003756:	455b      	cmp	r3, fp
10003758:	dcee      	bgt.n	10003738 <_ZN11ST7735_pico8drawCharEsshtthh+0x254>
1000375a:	465b      	mov	r3, fp
1000375c:	2600      	movs	r6, #0
1000375e:	9d0d      	ldr	r5, [sp, #52]	; 0x34
10003760:	930c      	str	r3, [sp, #48]	; 0x30
10003762:	9a03      	ldr	r2, [sp, #12]
10003764:	9b09      	ldr	r3, [sp, #36]	; 0x24
10003766:	4691      	mov	r9, r2
10003768:	5d9b      	ldrb	r3, [r3, r6]
1000376a:	9a08      	ldr	r2, [sp, #32]
1000376c:	4213      	tst	r3, r2
1000376e:	d101      	bne.n	10003774 <_ZN11ST7735_pico8drawCharEsshtthh+0x290>
10003770:	9b07      	ldr	r3, [sp, #28]
10003772:	4699      	mov	r9, r3
10003774:	9b06      	ldr	r3, [sp, #24]
10003776:	2b00      	cmp	r3, #0
10003778:	d030      	beq.n	100037dc <_ZN11ST7735_pico8drawCharEsshtthh+0x2f8>
1000377a:	b2aa      	uxth	r2, r5
1000377c:	4693      	mov	fp, r2
1000377e:	445b      	add	r3, fp
10003780:	b29c      	uxth	r4, r3
10003782:	2301      	movs	r3, #1
10003784:	4698      	mov	r8, r3
10003786:	23d0      	movs	r3, #208	; 0xd0
10003788:	061b      	lsls	r3, r3, #24
1000378a:	469a      	mov	sl, r3
1000378c:	9605      	str	r6, [sp, #20]
1000378e:	e004      	b.n	1000379a <_ZN11ST7735_pico8drawCharEsshtthh+0x2b6>
10003790:	3501      	adds	r5, #1
10003792:	b2ab      	uxth	r3, r5
10003794:	b22d      	sxth	r5, r5
10003796:	42a3      	cmp	r3, r4
10003798:	d01b      	beq.n	100037d2 <_ZN11ST7735_pico8drawCharEsshtthh+0x2ee>
1000379a:	221c      	movs	r2, #28
1000379c:	5ebb      	ldrsh	r3, [r7, r2]
1000379e:	42ab      	cmp	r3, r5
100037a0:	dcf6      	bgt.n	10003790 <_ZN11ST7735_pico8drawCharEsshtthh+0x2ac>
100037a2:	2220      	movs	r2, #32
100037a4:	5ebb      	ldrsh	r3, [r7, r2]
100037a6:	42ab      	cmp	r3, r5
100037a8:	ddf2      	ble.n	10003790 <_ZN11ST7735_pico8drawCharEsshtthh+0x2ac>
100037aa:	7a7b      	ldrb	r3, [r7, #9]
100037ac:	2b00      	cmp	r3, #0
100037ae:	d100      	bne.n	100037b2 <_ZN11ST7735_pico8drawCharEsshtthh+0x2ce>
100037b0:	e13f      	b.n	10003a32 <_ZN11ST7735_pico8drawCharEsshtthh+0x54e>
100037b2:	2381      	movs	r3, #129	; 0x81
100037b4:	4642      	mov	r2, r8
100037b6:	5cfb      	ldrb	r3, [r7, r3]
100037b8:	3501      	adds	r5, #1
100037ba:	409a      	lsls	r2, r3
100037bc:	0013      	movs	r3, r2
100037be:	4652      	mov	r2, sl
100037c0:	4649      	mov	r1, r9
100037c2:	6153      	str	r3, [r2, #20]
100037c4:	6878      	ldr	r0, [r7, #4]
100037c6:	f7fc fefd 	bl	100005c4 <_ZN3SPI7write16Et>
100037ca:	b2ab      	uxth	r3, r5
100037cc:	b22d      	sxth	r5, r5
100037ce:	42a3      	cmp	r3, r4
100037d0:	d1e3      	bne.n	1000379a <_ZN11ST7735_pico8drawCharEsshtthh+0x2b6>
100037d2:	9d0a      	ldr	r5, [sp, #40]	; 0x28
100037d4:	9e05      	ldr	r6, [sp, #20]
100037d6:	445d      	add	r5, fp
100037d8:	3501      	adds	r5, #1
100037da:	b22d      	sxth	r5, r5
100037dc:	3601      	adds	r6, #1
100037de:	2e05      	cmp	r6, #5
100037e0:	d1bf      	bne.n	10003762 <_ZN11ST7735_pico8drawCharEsshtthh+0x27e>
100037e2:	9b0c      	ldr	r3, [sp, #48]	; 0x30
100037e4:	469b      	mov	fp, r3
100037e6:	9b06      	ldr	r3, [sp, #24]
100037e8:	2b00      	cmp	r3, #0
100037ea:	d0a5      	beq.n	10003738 <_ZN11ST7735_pico8drawCharEsshtthh+0x254>
100037ec:	18ec      	adds	r4, r5, r3
100037ee:	2381      	movs	r3, #129	; 0x81
100037f0:	26d0      	movs	r6, #208	; 0xd0
100037f2:	4699      	mov	r9, r3
100037f4:	3b80      	subs	r3, #128	; 0x80
100037f6:	469a      	mov	sl, r3
100037f8:	b224      	sxth	r4, r4
100037fa:	0636      	lsls	r6, r6, #24
100037fc:	e003      	b.n	10003806 <_ZN11ST7735_pico8drawCharEsshtthh+0x322>
100037fe:	3501      	adds	r5, #1
10003800:	b22d      	sxth	r5, r5
10003802:	42a5      	cmp	r5, r4
10003804:	d098      	beq.n	10003738 <_ZN11ST7735_pico8drawCharEsshtthh+0x254>
10003806:	221c      	movs	r2, #28
10003808:	5ebb      	ldrsh	r3, [r7, r2]
1000380a:	42ab      	cmp	r3, r5
1000380c:	dcf7      	bgt.n	100037fe <_ZN11ST7735_pico8drawCharEsshtthh+0x31a>
1000380e:	2220      	movs	r2, #32
10003810:	5ebb      	ldrsh	r3, [r7, r2]
10003812:	42ab      	cmp	r3, r5
10003814:	ddf3      	ble.n	100037fe <_ZN11ST7735_pico8drawCharEsshtthh+0x31a>
10003816:	7a7b      	ldrb	r3, [r7, #9]
10003818:	2b00      	cmp	r3, #0
1000381a:	d100      	bne.n	1000381e <_ZN11ST7735_pico8drawCharEsshtthh+0x33a>
1000381c:	e0f6      	b.n	10003a0c <_ZN11ST7735_pico8drawCharEsshtthh+0x528>
1000381e:	464b      	mov	r3, r9
10003820:	4652      	mov	r2, sl
10003822:	5cfb      	ldrb	r3, [r7, r3]
10003824:	9907      	ldr	r1, [sp, #28]
10003826:	409a      	lsls	r2, r3
10003828:	6878      	ldr	r0, [r7, #4]
1000382a:	6172      	str	r2, [r6, #20]
1000382c:	f7fc feca 	bl	100005c4 <_ZN3SPI7write16Et>
10003830:	e7e5      	b.n	100037fe <_ZN11ST7735_pico8drawCharEsshtthh+0x31a>
10003832:	4663      	mov	r3, ip
10003834:	9a05      	ldr	r2, [sp, #20]
10003836:	2b01      	cmp	r3, #1
10003838:	d100      	bne.n	1000383c <_ZN11ST7735_pico8drawCharEsshtthh+0x358>
1000383a:	e12f      	b.n	10003a9c <_ZN11ST7735_pico8drawCharEsshtthh+0x5b8>
1000383c:	4694      	mov	ip, r2
1000383e:	0093      	lsls	r3, r2, #2
10003840:	4463      	add	r3, ip
10003842:	1c5a      	adds	r2, r3, #1
10003844:	920e      	str	r2, [sp, #56]	; 0x38
10003846:	1c9a      	adds	r2, r3, #2
10003848:	920f      	str	r2, [sp, #60]	; 0x3c
1000384a:	1cda      	adds	r2, r3, #3
1000384c:	9210      	str	r2, [sp, #64]	; 0x40
1000384e:	9a06      	ldr	r2, [sp, #24]
10003850:	930d      	str	r3, [sp, #52]	; 0x34
10003852:	4694      	mov	ip, r2
10003854:	3304      	adds	r3, #4
10003856:	9311      	str	r3, [sp, #68]	; 0x44
10003858:	b293      	uxth	r3, r2
1000385a:	9305      	str	r3, [sp, #20]
1000385c:	0053      	lsls	r3, r2, #1
1000385e:	930c      	str	r3, [sp, #48]	; 0x30
10003860:	4463      	add	r3, ip
10003862:	930b      	str	r3, [sp, #44]	; 0x2c
10003864:	0093      	lsls	r3, r2, #2
10003866:	9313      	str	r3, [sp, #76]	; 0x4c
10003868:	4463      	add	r3, ip
1000386a:	9312      	str	r3, [sp, #72]	; 0x48
1000386c:	2308      	movs	r3, #8
1000386e:	930a      	str	r3, [sp, #40]	; 0x28
10003870:	3b07      	subs	r3, #7
10003872:	4698      	mov	r8, r3
10003874:	4b79      	ldr	r3, [pc, #484]	; (10003a5c <_ZN11ST7735_pico8drawCharEsshtthh+0x578>)
10003876:	2200      	movs	r2, #0
10003878:	9307      	str	r3, [sp, #28]
1000387a:	2318      	movs	r3, #24
1000387c:	46ba      	mov	sl, r7
1000387e:	469b      	mov	fp, r3
10003880:	4641      	mov	r1, r8
10003882:	9807      	ldr	r0, [sp, #28]
10003884:	9b0d      	ldr	r3, [sp, #52]	; 0x34
10003886:	5cc3      	ldrb	r3, [r0, r3]
10003888:	400b      	ands	r3, r1
1000388a:	1e59      	subs	r1, r3, #1
1000388c:	418b      	sbcs	r3, r1
1000388e:	990e      	ldr	r1, [sp, #56]	; 0x38
10003890:	005b      	lsls	r3, r3, #1
10003892:	5c41      	ldrb	r1, [r0, r1]
10003894:	4640      	mov	r0, r8
10003896:	4201      	tst	r1, r0
10003898:	d002      	beq.n	100038a0 <_ZN11ST7735_pico8drawCharEsshtthh+0x3bc>
1000389a:	2101      	movs	r1, #1
1000389c:	430b      	orrs	r3, r1
1000389e:	b2db      	uxtb	r3, r3
100038a0:	980f      	ldr	r0, [sp, #60]	; 0x3c
100038a2:	9907      	ldr	r1, [sp, #28]
100038a4:	005b      	lsls	r3, r3, #1
100038a6:	5c09      	ldrb	r1, [r1, r0]
100038a8:	4640      	mov	r0, r8
100038aa:	4201      	tst	r1, r0
100038ac:	d002      	beq.n	100038b4 <_ZN11ST7735_pico8drawCharEsshtthh+0x3d0>
100038ae:	2101      	movs	r1, #1
100038b0:	430b      	orrs	r3, r1
100038b2:	b2db      	uxtb	r3, r3
100038b4:	4644      	mov	r4, r8
100038b6:	9d07      	ldr	r5, [sp, #28]
100038b8:	9810      	ldr	r0, [sp, #64]	; 0x40
100038ba:	0059      	lsls	r1, r3, #1
100038bc:	5c28      	ldrb	r0, [r5, r0]
100038be:	b2c9      	uxtb	r1, r1
100038c0:	4220      	tst	r0, r4
100038c2:	d100      	bne.n	100038c6 <_ZN11ST7735_pico8drawCharEsshtthh+0x3e2>
100038c4:	e096      	b.n	100039f4 <_ZN11ST7735_pico8drawCharEsshtthh+0x510>
100038c6:	2301      	movs	r3, #1
100038c8:	4319      	orrs	r1, r3
100038ca:	b2cc      	uxtb	r4, r1
100038cc:	4641      	mov	r1, r8
100038ce:	9b11      	ldr	r3, [sp, #68]	; 0x44
100038d0:	00a4      	lsls	r4, r4, #2
100038d2:	5ceb      	ldrb	r3, [r5, r3]
100038d4:	b2e4      	uxtb	r4, r4
100038d6:	0864      	lsrs	r4, r4, #1
100038d8:	420b      	tst	r3, r1
100038da:	d000      	beq.n	100038de <_ZN11ST7735_pico8drawCharEsshtthh+0x3fa>
100038dc:	e199      	b.n	10003c12 <_ZN11ST7735_pico8drawCharEsshtthh+0x72e>
100038de:	2c1e      	cmp	r4, #30
100038e0:	d100      	bne.n	100038e4 <_ZN11ST7735_pico8drawCharEsshtthh+0x400>
100038e2:	e1b9      	b.n	10003c58 <_ZN11ST7735_pico8drawCharEsshtthh+0x774>
100038e4:	9e04      	ldr	r6, [sp, #16]
100038e6:	b293      	uxth	r3, r2
100038e8:	435e      	muls	r6, r3
100038ea:	9309      	str	r3, [sp, #36]	; 0x24
100038ec:	9b08      	ldr	r3, [sp, #32]
100038ee:	2500      	movs	r5, #0
100038f0:	469c      	mov	ip, r3
100038f2:	271c      	movs	r7, #28
100038f4:	4466      	add	r6, ip
100038f6:	b236      	sxth	r6, r6
100038f8:	003b      	movs	r3, r7
100038fa:	4023      	ands	r3, r4
100038fc:	2b1c      	cmp	r3, #28
100038fe:	d04f      	beq.n	100039a0 <_ZN11ST7735_pico8drawCharEsshtthh+0x4bc>
10003900:	465b      	mov	r3, fp
10003902:	4023      	ands	r3, r4
10003904:	2b18      	cmp	r3, #24
10003906:	d060      	beq.n	100039ca <_ZN11ST7735_pico8drawCharEsshtthh+0x4e6>
10003908:	2310      	movs	r3, #16
1000390a:	4223      	tst	r3, r4
1000390c:	d12c      	bne.n	10003968 <_ZN11ST7735_pico8drawCharEsshtthh+0x484>
1000390e:	0064      	lsls	r4, r4, #1
10003910:	3501      	adds	r5, #1
10003912:	b2e4      	uxtb	r4, r4
10003914:	b2ab      	uxth	r3, r5
10003916:	b22d      	sxth	r5, r5
10003918:	2c00      	cmp	r4, #0
1000391a:	d011      	beq.n	10003940 <_ZN11ST7735_pico8drawCharEsshtthh+0x45c>
1000391c:	2c1e      	cmp	r4, #30
1000391e:	d1eb      	bne.n	100038f8 <_ZN11ST7735_pico8drawCharEsshtthh+0x414>
10003920:	9a05      	ldr	r2, [sp, #20]
10003922:	4353      	muls	r3, r2
10003924:	b299      	uxth	r1, r3
10003926:	9b03      	ldr	r3, [sp, #12]
10003928:	4449      	add	r1, r9
1000392a:	9301      	str	r3, [sp, #4]
1000392c:	466b      	mov	r3, sp
1000392e:	2210      	movs	r2, #16
10003930:	5e9b      	ldrsh	r3, [r3, r2]
10003932:	4650      	mov	r0, sl
10003934:	9300      	str	r3, [sp, #0]
10003936:	0032      	movs	r2, r6
10003938:	9b13      	ldr	r3, [sp, #76]	; 0x4c
1000393a:	b209      	sxth	r1, r1
1000393c:	f7fd ffc0 	bl	100018c0 <_ZN11ST7735_pico8fillRectEsssst>
10003940:	4643      	mov	r3, r8
10003942:	005b      	lsls	r3, r3, #1
10003944:	b2db      	uxtb	r3, r3
10003946:	4698      	mov	r8, r3
10003948:	9b0a      	ldr	r3, [sp, #40]	; 0x28
1000394a:	9a09      	ldr	r2, [sp, #36]	; 0x24
1000394c:	3b01      	subs	r3, #1
1000394e:	3201      	adds	r2, #1
10003950:	b29b      	uxth	r3, r3
10003952:	b212      	sxth	r2, r2
10003954:	930a      	str	r3, [sp, #40]	; 0x28
10003956:	2b00      	cmp	r3, #0
10003958:	d192      	bne.n	10003880 <_ZN11ST7735_pico8drawCharEsshtthh+0x39c>
1000395a:	b015      	add	sp, #84	; 0x54
1000395c:	bcf0      	pop	{r4, r5, r6, r7}
1000395e:	46bb      	mov	fp, r7
10003960:	46b2      	mov	sl, r6
10003962:	46a9      	mov	r9, r5
10003964:	46a0      	mov	r8, r4
10003966:	bdf0      	pop	{r4, r5, r6, r7, pc}
10003968:	466b      	mov	r3, sp
1000396a:	2218      	movs	r2, #24
1000396c:	5e9b      	ldrsh	r3, [r3, r2]
1000396e:	9a03      	ldr	r2, [sp, #12]
10003970:	9905      	ldr	r1, [sp, #20]
10003972:	9201      	str	r2, [sp, #4]
10003974:	466a      	mov	r2, sp
10003976:	b2ad      	uxth	r5, r5
10003978:	4369      	muls	r1, r5
1000397a:	2010      	movs	r0, #16
1000397c:	5e12      	ldrsh	r2, [r2, r0]
1000397e:	4449      	add	r1, r9
10003980:	9200      	str	r2, [sp, #0]
10003982:	4650      	mov	r0, sl
10003984:	0032      	movs	r2, r6
10003986:	b209      	sxth	r1, r1
10003988:	f7fd ff9a 	bl	100018c0 <_ZN11ST7735_pico8fillRectEsssst>
1000398c:	00a4      	lsls	r4, r4, #2
1000398e:	3502      	adds	r5, #2
10003990:	b2e4      	uxtb	r4, r4
10003992:	b22d      	sxth	r5, r5
10003994:	2c00      	cmp	r4, #0
10003996:	d0d3      	beq.n	10003940 <_ZN11ST7735_pico8drawCharEsshtthh+0x45c>
10003998:	003b      	movs	r3, r7
1000399a:	4023      	ands	r3, r4
1000399c:	2b1c      	cmp	r3, #28
1000399e:	d1af      	bne.n	10003900 <_ZN11ST7735_pico8drawCharEsshtthh+0x41c>
100039a0:	9b03      	ldr	r3, [sp, #12]
100039a2:	9905      	ldr	r1, [sp, #20]
100039a4:	9301      	str	r3, [sp, #4]
100039a6:	466b      	mov	r3, sp
100039a8:	b2ad      	uxth	r5, r5
100039aa:	4369      	muls	r1, r5
100039ac:	2210      	movs	r2, #16
100039ae:	5e9b      	ldrsh	r3, [r3, r2]
100039b0:	4449      	add	r1, r9
100039b2:	9300      	str	r3, [sp, #0]
100039b4:	0032      	movs	r2, r6
100039b6:	4650      	mov	r0, sl
100039b8:	9b0b      	ldr	r3, [sp, #44]	; 0x2c
100039ba:	b209      	sxth	r1, r1
100039bc:	0124      	lsls	r4, r4, #4
100039be:	3504      	adds	r5, #4
100039c0:	f7fd ff7e 	bl	100018c0 <_ZN11ST7735_pico8fillRectEsssst>
100039c4:	b2e4      	uxtb	r4, r4
100039c6:	b22d      	sxth	r5, r5
100039c8:	e7e4      	b.n	10003994 <_ZN11ST7735_pico8drawCharEsshtthh+0x4b0>
100039ca:	9b03      	ldr	r3, [sp, #12]
100039cc:	9905      	ldr	r1, [sp, #20]
100039ce:	9301      	str	r3, [sp, #4]
100039d0:	466b      	mov	r3, sp
100039d2:	b2ad      	uxth	r5, r5
100039d4:	4369      	muls	r1, r5
100039d6:	2210      	movs	r2, #16
100039d8:	5e9b      	ldrsh	r3, [r3, r2]
100039da:	4449      	add	r1, r9
100039dc:	9300      	str	r3, [sp, #0]
100039de:	0032      	movs	r2, r6
100039e0:	4650      	mov	r0, sl
100039e2:	9b0c      	ldr	r3, [sp, #48]	; 0x30
100039e4:	b209      	sxth	r1, r1
100039e6:	00e4      	lsls	r4, r4, #3
100039e8:	3503      	adds	r5, #3
100039ea:	f7fd ff69 	bl	100018c0 <_ZN11ST7735_pico8fillRectEsssst>
100039ee:	b2e4      	uxtb	r4, r4
100039f0:	b22d      	sxth	r5, r5
100039f2:	e7cf      	b.n	10003994 <_ZN11ST7735_pico8drawCharEsshtthh+0x4b0>
100039f4:	9811      	ldr	r0, [sp, #68]	; 0x44
100039f6:	5c29      	ldrb	r1, [r5, r0]
100039f8:	4221      	tst	r1, r4
100039fa:	d100      	bne.n	100039fe <_ZN11ST7735_pico8drawCharEsshtthh+0x51a>
100039fc:	e123      	b.n	10003c46 <_ZN11ST7735_pico8drawCharEsshtthh+0x762>
100039fe:	00dc      	lsls	r4, r3, #3
10003a00:	2301      	movs	r3, #1
10003a02:	b2e4      	uxtb	r4, r4
10003a04:	0864      	lsrs	r4, r4, #1
10003a06:	431c      	orrs	r4, r3
10003a08:	b2e4      	uxtb	r4, r4
10003a0a:	e76b      	b.n	100038e4 <_ZN11ST7735_pico8drawCharEsshtthh+0x400>
10003a0c:	6878      	ldr	r0, [r7, #4]
10003a0e:	6803      	ldr	r3, [r0, #0]
10003a10:	691b      	ldr	r3, [r3, #16]
10003a12:	4798      	blx	r3
10003a14:	2800      	cmp	r0, #0
10003a16:	d1f9      	bne.n	10003a0c <_ZN11ST7735_pico8drawCharEsshtthh+0x528>
10003a18:	4652      	mov	r2, sl
10003a1a:	6878      	ldr	r0, [r7, #4]
10003a1c:	2110      	movs	r1, #16
10003a1e:	6803      	ldr	r3, [r0, #0]
10003a20:	9200      	str	r2, [sp, #0]
10003a22:	695b      	ldr	r3, [r3, #20]
10003a24:	2200      	movs	r2, #0
10003a26:	4698      	mov	r8, r3
10003a28:	2300      	movs	r3, #0
10003a2a:	47c0      	blx	r8
10003a2c:	4653      	mov	r3, sl
10003a2e:	727b      	strb	r3, [r7, #9]
10003a30:	e6f5      	b.n	1000381e <_ZN11ST7735_pico8drawCharEsshtthh+0x33a>
10003a32:	9e05      	ldr	r6, [sp, #20]
10003a34:	6878      	ldr	r0, [r7, #4]
10003a36:	6803      	ldr	r3, [r0, #0]
10003a38:	691b      	ldr	r3, [r3, #16]
10003a3a:	4798      	blx	r3
10003a3c:	2800      	cmp	r0, #0
10003a3e:	d1f9      	bne.n	10003a34 <_ZN11ST7735_pico8drawCharEsshtthh+0x550>
10003a40:	4642      	mov	r2, r8
10003a42:	6878      	ldr	r0, [r7, #4]
10003a44:	9605      	str	r6, [sp, #20]
10003a46:	6803      	ldr	r3, [r0, #0]
10003a48:	9200      	str	r2, [sp, #0]
10003a4a:	695b      	ldr	r3, [r3, #20]
10003a4c:	2200      	movs	r2, #0
10003a4e:	001e      	movs	r6, r3
10003a50:	2110      	movs	r1, #16
10003a52:	2300      	movs	r3, #0
10003a54:	47b0      	blx	r6
10003a56:	4643      	mov	r3, r8
10003a58:	727b      	strb	r3, [r7, #9]
10003a5a:	e6aa      	b.n	100037b2 <_ZN11ST7735_pico8drawCharEsshtthh+0x2ce>
10003a5c:	100096d0 	.word	0x100096d0
10003a60:	9b08      	ldr	r3, [sp, #32]
10003a62:	005b      	lsls	r3, r3, #1
10003a64:	b2db      	uxtb	r3, r3
10003a66:	9308      	str	r3, [sp, #32]
10003a68:	9b0e      	ldr	r3, [sp, #56]	; 0x38
10003a6a:	3b01      	subs	r3, #1
10003a6c:	b2db      	uxtb	r3, r3
10003a6e:	930e      	str	r3, [sp, #56]	; 0x38
10003a70:	2b00      	cmp	r3, #0
10003a72:	d000      	beq.n	10003a76 <_ZN11ST7735_pico8drawCharEsshtthh+0x592>
10003a74:	e64f      	b.n	10003716 <_ZN11ST7735_pico8drawCharEsshtthh+0x232>
10003a76:	0038      	movs	r0, r7
10003a78:	2100      	movs	r1, #0
10003a7a:	f7fc fefd 	bl	10000878 <_ZN11ST7735_pico17writecommand_lastEh>
10003a7e:	6878      	ldr	r0, [r7, #4]
10003a80:	6803      	ldr	r3, [r0, #0]
10003a82:	68db      	ldr	r3, [r3, #12]
10003a84:	4798      	blx	r3
10003a86:	2800      	cmp	r0, #0
10003a88:	d000      	beq.n	10003a8c <_ZN11ST7735_pico8drawCharEsshtthh+0x5a8>
10003a8a:	e766      	b.n	1000395a <_ZN11ST7735_pico8drawCharEsshtthh+0x476>
10003a8c:	2380      	movs	r3, #128	; 0x80
10003a8e:	5cfa      	ldrb	r2, [r7, r3]
10003a90:	3b7f      	subs	r3, #127	; 0x7f
10003a92:	4093      	lsls	r3, r2
10003a94:	22d0      	movs	r2, #208	; 0xd0
10003a96:	0612      	lsls	r2, r2, #24
10003a98:	6153      	str	r3, [r2, #20]
10003a9a:	e75e      	b.n	1000395a <_ZN11ST7735_pico8drawCharEsshtthh+0x476>
10003a9c:	9b04      	ldr	r3, [sp, #16]
10003a9e:	2b01      	cmp	r3, #1
10003aa0:	d000      	beq.n	10003aa4 <_ZN11ST7735_pico8drawCharEsshtthh+0x5c0>
10003aa2:	e6cb      	b.n	1000383c <_ZN11ST7735_pico8drawCharEsshtthh+0x358>
10003aa4:	4694      	mov	ip, r2
10003aa6:	0093      	lsls	r3, r2, #2
10003aa8:	4463      	add	r3, ip
10003aaa:	1c5a      	adds	r2, r3, #1
10003aac:	9209      	str	r2, [sp, #36]	; 0x24
10003aae:	1c9a      	adds	r2, r3, #2
10003ab0:	9306      	str	r3, [sp, #24]
10003ab2:	920a      	str	r2, [sp, #40]	; 0x28
10003ab4:	1cda      	adds	r2, r3, #3
10003ab6:	3304      	adds	r3, #4
10003ab8:	930c      	str	r3, [sp, #48]	; 0x30
10003aba:	4bce      	ldr	r3, [pc, #824]	; (10003df4 <_ZN11ST7735_pico8drawCharEsshtthh+0x910>)
10003abc:	2600      	movs	r6, #0
10003abe:	9307      	str	r3, [sp, #28]
10003ac0:	2301      	movs	r3, #1
10003ac2:	469a      	mov	sl, r3
10003ac4:	231c      	movs	r3, #28
10003ac6:	46a0      	mov	r8, r4
10003ac8:	469b      	mov	fp, r3
10003aca:	920b      	str	r2, [sp, #44]	; 0x2c
10003acc:	9907      	ldr	r1, [sp, #28]
10003ace:	9b06      	ldr	r3, [sp, #24]
10003ad0:	9804      	ldr	r0, [sp, #16]
10003ad2:	5ccb      	ldrb	r3, [r1, r3]
10003ad4:	4003      	ands	r3, r0
10003ad6:	1e5a      	subs	r2, r3, #1
10003ad8:	4193      	sbcs	r3, r2
10003ada:	9a09      	ldr	r2, [sp, #36]	; 0x24
10003adc:	005b      	lsls	r3, r3, #1
10003ade:	5c8a      	ldrb	r2, [r1, r2]
10003ae0:	4202      	tst	r2, r0
10003ae2:	d002      	beq.n	10003aea <_ZN11ST7735_pico8drawCharEsshtthh+0x606>
10003ae4:	4652      	mov	r2, sl
10003ae6:	4313      	orrs	r3, r2
10003ae8:	b2db      	uxtb	r3, r3
10003aea:	990a      	ldr	r1, [sp, #40]	; 0x28
10003aec:	9a07      	ldr	r2, [sp, #28]
10003aee:	005b      	lsls	r3, r3, #1
10003af0:	5c52      	ldrb	r2, [r2, r1]
10003af2:	9904      	ldr	r1, [sp, #16]
10003af4:	420a      	tst	r2, r1
10003af6:	d002      	beq.n	10003afe <_ZN11ST7735_pico8drawCharEsshtthh+0x61a>
10003af8:	4652      	mov	r2, sl
10003afa:	4313      	orrs	r3, r2
10003afc:	b2db      	uxtb	r3, r3
10003afe:	9807      	ldr	r0, [sp, #28]
10003b00:	990b      	ldr	r1, [sp, #44]	; 0x2c
10003b02:	9d04      	ldr	r5, [sp, #16]
10003b04:	5c41      	ldrb	r1, [r0, r1]
10003b06:	005a      	lsls	r2, r3, #1
10003b08:	b2d2      	uxtb	r2, r2
10003b0a:	4229      	tst	r1, r5
10003b0c:	d074      	beq.n	10003bf8 <_ZN11ST7735_pico8drawCharEsshtthh+0x714>
10003b0e:	4653      	mov	r3, sl
10003b10:	431a      	orrs	r2, r3
10003b12:	9b0c      	ldr	r3, [sp, #48]	; 0x30
10003b14:	b2d4      	uxtb	r4, r2
10003b16:	00a4      	lsls	r4, r4, #2
10003b18:	5cc3      	ldrb	r3, [r0, r3]
10003b1a:	b2e4      	uxtb	r4, r4
10003b1c:	0864      	lsrs	r4, r4, #1
10003b1e:	422b      	tst	r3, r5
10003b20:	d000      	beq.n	10003b24 <_ZN11ST7735_pico8drawCharEsshtthh+0x640>
10003b22:	e153      	b.n	10003dcc <_ZN11ST7735_pico8drawCharEsshtthh+0x8e8>
10003b24:	2c1e      	cmp	r4, #30
10003b26:	d100      	bne.n	10003b2a <_ZN11ST7735_pico8drawCharEsshtthh+0x646>
10003b28:	e14c      	b.n	10003dc4 <_ZN11ST7735_pico8drawCharEsshtthh+0x8e0>
10003b2a:	b2b3      	uxth	r3, r6
10003b2c:	469c      	mov	ip, r3
10003b2e:	2500      	movs	r5, #0
10003b30:	9e08      	ldr	r6, [sp, #32]
10003b32:	9305      	str	r3, [sp, #20]
10003b34:	4466      	add	r6, ip
10003b36:	9303      	str	r3, [sp, #12]
10003b38:	b236      	sxth	r6, r6
10003b3a:	465b      	mov	r3, fp
10003b3c:	4023      	ands	r3, r4
10003b3e:	2b1c      	cmp	r3, #28
10003b40:	d03a      	beq.n	10003bb8 <_ZN11ST7735_pico8drawCharEsshtthh+0x6d4>
10003b42:	2318      	movs	r3, #24
10003b44:	4023      	ands	r3, r4
10003b46:	2b18      	cmp	r3, #24
10003b48:	d046      	beq.n	10003bd8 <_ZN11ST7735_pico8drawCharEsshtthh+0x6f4>
10003b4a:	06e3      	lsls	r3, r4, #27
10003b4c:	d421      	bmi.n	10003b92 <_ZN11ST7735_pico8drawCharEsshtthh+0x6ae>
10003b4e:	0064      	lsls	r4, r4, #1
10003b50:	3501      	adds	r5, #1
10003b52:	b2e4      	uxtb	r4, r4
10003b54:	b2ab      	uxth	r3, r5
10003b56:	b22d      	sxth	r5, r5
10003b58:	2c00      	cmp	r4, #0
10003b5a:	d00f      	beq.n	10003b7c <_ZN11ST7735_pico8drawCharEsshtthh+0x698>
10003b5c:	2c1e      	cmp	r4, #30
10003b5e:	d1ec      	bne.n	10003b3a <_ZN11ST7735_pico8drawCharEsshtthh+0x656>
10003b60:	9908      	ldr	r1, [sp, #32]
10003b62:	444b      	add	r3, r9
10003b64:	468c      	mov	ip, r1
10003b66:	b219      	sxth	r1, r3
10003b68:	4643      	mov	r3, r8
10003b6a:	9a05      	ldr	r2, [sp, #20]
10003b6c:	9300      	str	r3, [sp, #0]
10003b6e:	9203      	str	r2, [sp, #12]
10003b70:	4462      	add	r2, ip
10003b72:	2304      	movs	r3, #4
10003b74:	0038      	movs	r0, r7
10003b76:	b212      	sxth	r2, r2
10003b78:	f7fd fcfe 	bl	10001578 <_ZN11ST7735_pico13drawFastHLineEssst>
10003b7c:	9b04      	ldr	r3, [sp, #16]
10003b7e:	9e03      	ldr	r6, [sp, #12]
10003b80:	005b      	lsls	r3, r3, #1
10003b82:	b2db      	uxtb	r3, r3
10003b84:	3601      	adds	r6, #1
10003b86:	9304      	str	r3, [sp, #16]
10003b88:	b2b3      	uxth	r3, r6
10003b8a:	b236      	sxth	r6, r6
10003b8c:	2b08      	cmp	r3, #8
10003b8e:	d19d      	bne.n	10003acc <_ZN11ST7735_pico8drawCharEsshtthh+0x5e8>
10003b90:	e6e3      	b.n	1000395a <_ZN11ST7735_pico8drawCharEsshtthh+0x476>
10003b92:	464b      	mov	r3, r9
10003b94:	b2ad      	uxth	r5, r5
10003b96:	18e9      	adds	r1, r5, r3
10003b98:	0032      	movs	r2, r6
10003b9a:	4643      	mov	r3, r8
10003b9c:	0038      	movs	r0, r7
10003b9e:	b209      	sxth	r1, r1
10003ba0:	f7fd f9fe 	bl	10000fa0 <_ZN11ST7735_pico9drawPixelEsst>
10003ba4:	00a4      	lsls	r4, r4, #2
10003ba6:	3502      	adds	r5, #2
10003ba8:	b2e4      	uxtb	r4, r4
10003baa:	b22d      	sxth	r5, r5
10003bac:	2c00      	cmp	r4, #0
10003bae:	d0e5      	beq.n	10003b7c <_ZN11ST7735_pico8drawCharEsshtthh+0x698>
10003bb0:	465b      	mov	r3, fp
10003bb2:	4023      	ands	r3, r4
10003bb4:	2b1c      	cmp	r3, #28
10003bb6:	d1c4      	bne.n	10003b42 <_ZN11ST7735_pico8drawCharEsshtthh+0x65e>
10003bb8:	464b      	mov	r3, r9
10003bba:	b2ad      	uxth	r5, r5
10003bbc:	18e9      	adds	r1, r5, r3
10003bbe:	4643      	mov	r3, r8
10003bc0:	0032      	movs	r2, r6
10003bc2:	9300      	str	r3, [sp, #0]
10003bc4:	0038      	movs	r0, r7
10003bc6:	2303      	movs	r3, #3
10003bc8:	b209      	sxth	r1, r1
10003bca:	0124      	lsls	r4, r4, #4
10003bcc:	3504      	adds	r5, #4
10003bce:	f7fd fcd3 	bl	10001578 <_ZN11ST7735_pico13drawFastHLineEssst>
10003bd2:	b2e4      	uxtb	r4, r4
10003bd4:	b22d      	sxth	r5, r5
10003bd6:	e7e9      	b.n	10003bac <_ZN11ST7735_pico8drawCharEsshtthh+0x6c8>
10003bd8:	464b      	mov	r3, r9
10003bda:	b2ad      	uxth	r5, r5
10003bdc:	18e9      	adds	r1, r5, r3
10003bde:	4643      	mov	r3, r8
10003be0:	0032      	movs	r2, r6
10003be2:	9300      	str	r3, [sp, #0]
10003be4:	0038      	movs	r0, r7
10003be6:	2302      	movs	r3, #2
10003be8:	b209      	sxth	r1, r1
10003bea:	00e4      	lsls	r4, r4, #3
10003bec:	3503      	adds	r5, #3
10003bee:	f7fd fcc3 	bl	10001578 <_ZN11ST7735_pico13drawFastHLineEssst>
10003bf2:	b2e4      	uxtb	r4, r4
10003bf4:	b22d      	sxth	r5, r5
10003bf6:	e7d9      	b.n	10003bac <_ZN11ST7735_pico8drawCharEsshtthh+0x6c8>
10003bf8:	990c      	ldr	r1, [sp, #48]	; 0x30
10003bfa:	5c42      	ldrb	r2, [r0, r1]
10003bfc:	9904      	ldr	r1, [sp, #16]
10003bfe:	420a      	tst	r2, r1
10003c00:	d100      	bne.n	10003c04 <_ZN11ST7735_pico8drawCharEsshtthh+0x720>
10003c02:	e0d6      	b.n	10003db2 <_ZN11ST7735_pico8drawCharEsshtthh+0x8ce>
10003c04:	00dc      	lsls	r4, r3, #3
10003c06:	4653      	mov	r3, sl
10003c08:	b2e4      	uxtb	r4, r4
10003c0a:	0864      	lsrs	r4, r4, #1
10003c0c:	431c      	orrs	r4, r3
10003c0e:	b2e4      	uxtb	r4, r4
10003c10:	e78b      	b.n	10003b2a <_ZN11ST7735_pico8drawCharEsshtthh+0x646>
10003c12:	2301      	movs	r3, #1
10003c14:	431c      	orrs	r4, r3
10003c16:	b2e4      	uxtb	r4, r4
10003c18:	2c1f      	cmp	r4, #31
10003c1a:	d000      	beq.n	10003c1e <_ZN11ST7735_pico8drawCharEsshtthh+0x73a>
10003c1c:	e65f      	b.n	100038de <_ZN11ST7735_pico8drawCharEsshtthh+0x3fa>
10003c1e:	b293      	uxth	r3, r2
10003c20:	0019      	movs	r1, r3
10003c22:	9309      	str	r3, [sp, #36]	; 0x24
10003c24:	9b04      	ldr	r3, [sp, #16]
10003c26:	4650      	mov	r0, sl
10003c28:	001a      	movs	r2, r3
10003c2a:	434a      	muls	r2, r1
10003c2c:	9908      	ldr	r1, [sp, #32]
10003c2e:	b21b      	sxth	r3, r3
10003c30:	468c      	mov	ip, r1
10003c32:	9903      	ldr	r1, [sp, #12]
10003c34:	4462      	add	r2, ip
10003c36:	9101      	str	r1, [sp, #4]
10003c38:	9300      	str	r3, [sp, #0]
10003c3a:	4649      	mov	r1, r9
10003c3c:	9b12      	ldr	r3, [sp, #72]	; 0x48
10003c3e:	b212      	sxth	r2, r2
10003c40:	f7fd fe3e 	bl	100018c0 <_ZN11ST7735_pico8fillRectEsssst>
10003c44:	e67c      	b.n	10003940 <_ZN11ST7735_pico8drawCharEsshtthh+0x45c>
10003c46:	00db      	lsls	r3, r3, #3
10003c48:	b2db      	uxtb	r3, r3
10003c4a:	085c      	lsrs	r4, r3, #1
10003c4c:	2b00      	cmp	r3, #0
10003c4e:	d000      	beq.n	10003c52 <_ZN11ST7735_pico8drawCharEsshtthh+0x76e>
10003c50:	e648      	b.n	100038e4 <_ZN11ST7735_pico8drawCharEsshtthh+0x400>
10003c52:	b293      	uxth	r3, r2
10003c54:	9309      	str	r3, [sp, #36]	; 0x24
10003c56:	e673      	b.n	10003940 <_ZN11ST7735_pico8drawCharEsshtthh+0x45c>
10003c58:	9e04      	ldr	r6, [sp, #16]
10003c5a:	b293      	uxth	r3, r2
10003c5c:	435e      	muls	r6, r3
10003c5e:	9309      	str	r3, [sp, #36]	; 0x24
10003c60:	9b08      	ldr	r3, [sp, #32]
10003c62:	2100      	movs	r1, #0
10003c64:	469c      	mov	ip, r3
10003c66:	4466      	add	r6, ip
10003c68:	b236      	sxth	r6, r6
10003c6a:	e65c      	b.n	10003926 <_ZN11ST7735_pico8drawCharEsshtthh+0x442>
10003c6c:	4663      	mov	r3, ip
10003c6e:	b29b      	uxth	r3, r3
10003c70:	4698      	mov	r8, r3
10003c72:	464b      	mov	r3, r9
10003c74:	4642      	mov	r2, r8
10003c76:	1a9b      	subs	r3, r3, r2
10003c78:	9a08      	ldr	r2, [sp, #32]
10003c7a:	4694      	mov	ip, r2
10003c7c:	4463      	add	r3, ip
10003c7e:	b29a      	uxth	r2, r3
10003c80:	9208      	str	r2, [sp, #32]
10003c82:	b21b      	sxth	r3, r3
10003c84:	e4a1      	b.n	100035ca <_ZN11ST7735_pico8drawCharEsshtthh+0xe6>
10003c86:	b293      	uxth	r3, r2
10003c88:	9309      	str	r3, [sp, #36]	; 0x24
10003c8a:	1ae3      	subs	r3, r4, r3
10003c8c:	18eb      	adds	r3, r5, r3
10003c8e:	b29d      	uxth	r5, r3
10003c90:	b21b      	sxth	r3, r3
10003c92:	e48b      	b.n	100035ac <_ZN11ST7735_pico8drawCharEsshtthh+0xc8>
10003c94:	9e05      	ldr	r6, [sp, #20]
10003c96:	6878      	ldr	r0, [r7, #4]
10003c98:	6803      	ldr	r3, [r0, #0]
10003c9a:	691b      	ldr	r3, [r3, #16]
10003c9c:	4798      	blx	r3
10003c9e:	2800      	cmp	r0, #0
10003ca0:	d1f9      	bne.n	10003c96 <_ZN11ST7735_pico8drawCharEsshtthh+0x7b2>
10003ca2:	2201      	movs	r2, #1
10003ca4:	0004      	movs	r4, r0
10003ca6:	6878      	ldr	r0, [r7, #4]
10003ca8:	2108      	movs	r1, #8
10003caa:	6803      	ldr	r3, [r0, #0]
10003cac:	9200      	str	r2, [sp, #0]
10003cae:	695d      	ldr	r5, [r3, #20]
10003cb0:	2200      	movs	r2, #0
10003cb2:	2300      	movs	r3, #0
10003cb4:	9605      	str	r6, [sp, #20]
10003cb6:	47a8      	blx	r5
10003cb8:	727c      	strb	r4, [r7, #9]
10003cba:	e516      	b.n	100036ea <_ZN11ST7735_pico8drawCharEsshtthh+0x206>
10003cbc:	9e05      	ldr	r6, [sp, #20]
10003cbe:	6878      	ldr	r0, [r7, #4]
10003cc0:	6803      	ldr	r3, [r0, #0]
10003cc2:	691b      	ldr	r3, [r3, #16]
10003cc4:	4798      	blx	r3
10003cc6:	2800      	cmp	r0, #0
10003cc8:	d1f9      	bne.n	10003cbe <_ZN11ST7735_pico8drawCharEsshtthh+0x7da>
10003cca:	2501      	movs	r5, #1
10003ccc:	6878      	ldr	r0, [r7, #4]
10003cce:	2200      	movs	r2, #0
10003cd0:	6803      	ldr	r3, [r0, #0]
10003cd2:	9500      	str	r5, [sp, #0]
10003cd4:	695b      	ldr	r3, [r3, #20]
10003cd6:	2110      	movs	r1, #16
10003cd8:	4698      	mov	r8, r3
10003cda:	9605      	str	r6, [sp, #20]
10003cdc:	2300      	movs	r3, #0
10003cde:	47c0      	blx	r8
10003ce0:	727d      	strb	r5, [r7, #9]
10003ce2:	e4f3      	b.n	100036cc <_ZN11ST7735_pico8drawCharEsshtthh+0x1e8>
10003ce4:	9e05      	ldr	r6, [sp, #20]
10003ce6:	6878      	ldr	r0, [r7, #4]
10003ce8:	6803      	ldr	r3, [r0, #0]
10003cea:	691b      	ldr	r3, [r3, #16]
10003cec:	4798      	blx	r3
10003cee:	2800      	cmp	r0, #0
10003cf0:	d1f9      	bne.n	10003ce6 <_ZN11ST7735_pico8drawCharEsshtthh+0x802>
10003cf2:	2201      	movs	r2, #1
10003cf4:	4691      	mov	r9, r2
10003cf6:	6878      	ldr	r0, [r7, #4]
10003cf8:	2110      	movs	r1, #16
10003cfa:	6803      	ldr	r3, [r0, #0]
10003cfc:	9200      	str	r2, [sp, #0]
10003cfe:	695c      	ldr	r4, [r3, #20]
10003d00:	2200      	movs	r2, #0
10003d02:	2300      	movs	r3, #0
10003d04:	9605      	str	r6, [sp, #20]
10003d06:	47a0      	blx	r4
10003d08:	464b      	mov	r3, r9
10003d0a:	727b      	strb	r3, [r7, #9]
10003d0c:	e4c7      	b.n	1000369e <_ZN11ST7735_pico8drawCharEsshtthh+0x1ba>
10003d0e:	9e05      	ldr	r6, [sp, #20]
10003d10:	6878      	ldr	r0, [r7, #4]
10003d12:	6803      	ldr	r3, [r0, #0]
10003d14:	691b      	ldr	r3, [r3, #16]
10003d16:	4798      	blx	r3
10003d18:	2800      	cmp	r0, #0
10003d1a:	d1f9      	bne.n	10003d10 <_ZN11ST7735_pico8drawCharEsshtthh+0x82c>
10003d1c:	2201      	movs	r2, #1
10003d1e:	0004      	movs	r4, r0
10003d20:	6878      	ldr	r0, [r7, #4]
10003d22:	2108      	movs	r1, #8
10003d24:	6803      	ldr	r3, [r0, #0]
10003d26:	9200      	str	r2, [sp, #0]
10003d28:	695d      	ldr	r5, [r3, #20]
10003d2a:	2200      	movs	r2, #0
10003d2c:	2300      	movs	r3, #0
10003d2e:	9605      	str	r6, [sp, #20]
10003d30:	47a8      	blx	r5
10003d32:	727c      	strb	r4, [r7, #9]
10003d34:	e4a0      	b.n	10003678 <_ZN11ST7735_pico8drawCharEsshtthh+0x194>
10003d36:	9e05      	ldr	r6, [sp, #20]
10003d38:	6878      	ldr	r0, [r7, #4]
10003d3a:	6803      	ldr	r3, [r0, #0]
10003d3c:	691b      	ldr	r3, [r3, #16]
10003d3e:	4798      	blx	r3
10003d40:	2800      	cmp	r0, #0
10003d42:	d1f9      	bne.n	10003d38 <_ZN11ST7735_pico8drawCharEsshtthh+0x854>
10003d44:	2201      	movs	r2, #1
10003d46:	4691      	mov	r9, r2
10003d48:	6878      	ldr	r0, [r7, #4]
10003d4a:	2110      	movs	r1, #16
10003d4c:	6803      	ldr	r3, [r0, #0]
10003d4e:	9200      	str	r2, [sp, #0]
10003d50:	695c      	ldr	r4, [r3, #20]
10003d52:	2200      	movs	r2, #0
10003d54:	2300      	movs	r3, #0
10003d56:	9605      	str	r6, [sp, #20]
10003d58:	47a0      	blx	r4
10003d5a:	464b      	mov	r3, r9
10003d5c:	727b      	strb	r3, [r7, #9]
10003d5e:	e47c      	b.n	1000365a <_ZN11ST7735_pico8drawCharEsshtthh+0x176>
10003d60:	9e05      	ldr	r6, [sp, #20]
10003d62:	6878      	ldr	r0, [r7, #4]
10003d64:	6803      	ldr	r3, [r0, #0]
10003d66:	691b      	ldr	r3, [r3, #16]
10003d68:	4798      	blx	r3
10003d6a:	2800      	cmp	r0, #0
10003d6c:	d1f9      	bne.n	10003d62 <_ZN11ST7735_pico8drawCharEsshtthh+0x87e>
10003d6e:	2401      	movs	r4, #1
10003d70:	6878      	ldr	r0, [r7, #4]
10003d72:	2200      	movs	r2, #0
10003d74:	6803      	ldr	r3, [r0, #0]
10003d76:	9400      	str	r4, [sp, #0]
10003d78:	695b      	ldr	r3, [r3, #20]
10003d7a:	2110      	movs	r1, #16
10003d7c:	469a      	mov	sl, r3
10003d7e:	9605      	str	r6, [sp, #20]
10003d80:	2300      	movs	r3, #0
10003d82:	47d0      	blx	sl
10003d84:	727c      	strb	r4, [r7, #9]
10003d86:	e451      	b.n	1000362c <_ZN11ST7735_pico8drawCharEsshtthh+0x148>
10003d88:	9e05      	ldr	r6, [sp, #20]
10003d8a:	6878      	ldr	r0, [r7, #4]
10003d8c:	6803      	ldr	r3, [r0, #0]
10003d8e:	691b      	ldr	r3, [r3, #16]
10003d90:	4798      	blx	r3
10003d92:	2800      	cmp	r0, #0
10003d94:	d1f9      	bne.n	10003d8a <_ZN11ST7735_pico8drawCharEsshtthh+0x8a6>
10003d96:	2201      	movs	r2, #1
10003d98:	0004      	movs	r4, r0
10003d9a:	6878      	ldr	r0, [r7, #4]
10003d9c:	2108      	movs	r1, #8
10003d9e:	6803      	ldr	r3, [r0, #0]
10003da0:	9200      	str	r2, [sp, #0]
10003da2:	695b      	ldr	r3, [r3, #20]
10003da4:	2200      	movs	r2, #0
10003da6:	4699      	mov	r9, r3
10003da8:	9605      	str	r6, [sp, #20]
10003daa:	2300      	movs	r3, #0
10003dac:	47c8      	blx	r9
10003dae:	727c      	strb	r4, [r7, #9]
10003db0:	e426      	b.n	10003600 <_ZN11ST7735_pico8drawCharEsshtthh+0x11c>
10003db2:	00db      	lsls	r3, r3, #3
10003db4:	b2db      	uxtb	r3, r3
10003db6:	085c      	lsrs	r4, r3, #1
10003db8:	2b00      	cmp	r3, #0
10003dba:	d000      	beq.n	10003dbe <_ZN11ST7735_pico8drawCharEsshtthh+0x8da>
10003dbc:	e6b5      	b.n	10003b2a <_ZN11ST7735_pico8drawCharEsshtthh+0x646>
10003dbe:	b2b3      	uxth	r3, r6
10003dc0:	9303      	str	r3, [sp, #12]
10003dc2:	e6db      	b.n	10003b7c <_ZN11ST7735_pico8drawCharEsshtthh+0x698>
10003dc4:	b2b2      	uxth	r2, r6
10003dc6:	2300      	movs	r3, #0
10003dc8:	9205      	str	r2, [sp, #20]
10003dca:	e6c9      	b.n	10003b60 <_ZN11ST7735_pico8drawCharEsshtthh+0x67c>
10003dcc:	4653      	mov	r3, sl
10003dce:	431c      	orrs	r4, r3
10003dd0:	b2e4      	uxtb	r4, r4
10003dd2:	2c1f      	cmp	r4, #31
10003dd4:	d000      	beq.n	10003dd8 <_ZN11ST7735_pico8drawCharEsshtthh+0x8f4>
10003dd6:	e6a5      	b.n	10003b24 <_ZN11ST7735_pico8drawCharEsshtthh+0x640>
10003dd8:	b2b3      	uxth	r3, r6
10003dda:	469c      	mov	ip, r3
10003ddc:	9303      	str	r3, [sp, #12]
10003dde:	4643      	mov	r3, r8
10003de0:	9a08      	ldr	r2, [sp, #32]
10003de2:	9300      	str	r3, [sp, #0]
10003de4:	4462      	add	r2, ip
10003de6:	2305      	movs	r3, #5
10003de8:	4649      	mov	r1, r9
10003dea:	0038      	movs	r0, r7
10003dec:	b212      	sxth	r2, r2
10003dee:	f7fd fbc3 	bl	10001578 <_ZN11ST7735_pico13drawFastHLineEssst>
10003df2:	e6c3      	b.n	10003b7c <_ZN11ST7735_pico8drawCharEsshtthh+0x698>
10003df4:	100096d0 	.word	0x100096d0

10003df8 <_ZN11ST7735_pico7setFontERK17ILI9341_t3_font_t>:
10003df8:	236c      	movs	r3, #108	; 0x6c
10003dfa:	2200      	movs	r2, #0
10003dfc:	b570      	push	{r4, r5, r6, lr}
10003dfe:	64c1      	str	r1, [r0, #76]	; 0x4c
10003e00:	52c2      	strh	r2, [r0, r3]
10003e02:	6dc3      	ldr	r3, [r0, #92]	; 0x5c
10003e04:	0004      	movs	r4, r0
10003e06:	2b00      	cmp	r3, #0
10003e08:	d003      	beq.n	10003e12 <_ZN11ST7735_pico7setFontERK17ILI9341_t3_font_t+0x1a>
10003e0a:	8983      	ldrh	r3, [r0, #12]
10003e0c:	65c2      	str	r2, [r0, #92]	; 0x5c
10003e0e:	3b06      	subs	r3, #6
10003e10:	8183      	strh	r3, [r0, #12]
10003e12:	2350      	movs	r3, #80	; 0x50
10003e14:	2501      	movs	r5, #1
10003e16:	54e5      	strb	r5, [r4, r3]
10003e18:	7b0a      	ldrb	r2, [r1, #12]
10003e1a:	2a17      	cmp	r2, #23
10003e1c:	d000      	beq.n	10003e20 <_ZN11ST7735_pico7setFontERK17ILI9341_t3_font_t+0x28>
10003e1e:	bd70      	pop	{r4, r5, r6, pc}
10003e20:	2603      	movs	r6, #3
10003e22:	7b4a      	ldrb	r2, [r1, #13]
10003e24:	2008      	movs	r0, #8
10003e26:	4016      	ands	r6, r2
10003e28:	2251      	movs	r2, #81	; 0x51
10003e2a:	3601      	adds	r6, #1
10003e2c:	54e6      	strb	r6, [r4, r3]
10003e2e:	08b3      	lsrs	r3, r6, #2
10003e30:	1c59      	adds	r1, r3, #1
10003e32:	54a1      	strb	r1, [r4, r2]
10003e34:	002a      	movs	r2, r5
10003e36:	3302      	adds	r3, #2
10003e38:	409a      	lsls	r2, r3
10003e3a:	0013      	movs	r3, r2
10003e3c:	2252      	movs	r2, #82	; 0x52
10003e3e:	3b01      	subs	r3, #1
10003e40:	54a3      	strb	r3, [r4, r2]
10003e42:	0031      	movs	r1, r6
10003e44:	f004 fb58 	bl	100084f8 <__wrap___aeabi_idiv>
10003e48:	0029      	movs	r1, r5
10003e4a:	2353      	movs	r3, #83	; 0x53
10003e4c:	40b1      	lsls	r1, r6
10003e4e:	54e0      	strb	r0, [r4, r3]
10003e50:	3901      	subs	r1, #1
10003e52:	201f      	movs	r0, #31
10003e54:	f004 fb50 	bl	100084f8 <__wrap___aeabi_idiv>
10003e58:	f004 fc3a 	bl	100086d0 <__wrap___aeabi_i2f>
10003e5c:	8ea2      	ldrh	r2, [r4, #52]	; 0x34
10003e5e:	8ee3      	ldrh	r3, [r4, #54]	; 0x36
10003e60:	65a0      	str	r0, [r4, #88]	; 0x58
10003e62:	4293      	cmp	r3, r2
10003e64:	d1db      	bne.n	10003e1e <_ZN11ST7735_pico7setFontERK17ILI9341_t3_font_t+0x26>
10003e66:	425a      	negs	r2, r3
10003e68:	4153      	adcs	r3, r2
10003e6a:	425b      	negs	r3, r3
10003e6c:	86e3      	strh	r3, [r4, #54]	; 0x36
10003e6e:	e7d6      	b.n	10003e1e <_ZN11ST7735_pico7setFontERK17ILI9341_t3_font_t+0x26>

10003e70 <_ZN11ST7735_pico10charBoundsEcPsS0_S0_S0_S0_S0_>:
10003e70:	b5f0      	push	{r4, r5, r6, r7, lr}
10003e72:	46de      	mov	lr, fp
10003e74:	464e      	mov	r6, r9
10003e76:	4657      	mov	r7, sl
10003e78:	4645      	mov	r5, r8
10003e7a:	b5e0      	push	{r5, r6, r7, lr}
10003e7c:	6cc6      	ldr	r6, [r0, #76]	; 0x4c
10003e7e:	b087      	sub	sp, #28
10003e80:	4683      	mov	fp, r0
10003e82:	9200      	str	r2, [sp, #0]
10003e84:	9301      	str	r3, [sp, #4]
10003e86:	2e00      	cmp	r6, #0
10003e88:	d100      	bne.n	10003e8c <_ZN11ST7735_pico10charBoundsEcPsS0_S0_S0_S0_S0_+0x1c>
10003e8a:	e1a6      	b.n	100041da <_ZN11ST7735_pico10charBoundsEcPsS0_S0_S0_S0_S0_+0x36a>
10003e8c:	290a      	cmp	r1, #10
10003e8e:	d100      	bne.n	10003e92 <_ZN11ST7735_pico10charBoundsEcPsS0_S0_S0_S0_S0_+0x22>
10003e90:	e187      	b.n	100041a2 <_ZN11ST7735_pico10charBoundsEcPsS0_S0_S0_S0_S0_+0x332>
10003e92:	290d      	cmp	r1, #13
10003e94:	d100      	bne.n	10003e98 <_ZN11ST7735_pico10charBoundsEcPsS0_S0_S0_S0_S0_+0x28>
10003e96:	e18b      	b.n	100041b0 <_ZN11ST7735_pico10charBoundsEcPsS0_S0_S0_S0_S0_+0x340>
10003e98:	7bb2      	ldrb	r2, [r6, #14]
10003e9a:	428a      	cmp	r2, r1
10003e9c:	d900      	bls.n	10003ea0 <_ZN11ST7735_pico10charBoundsEcPsS0_S0_S0_S0_S0_+0x30>
10003e9e:	e18e      	b.n	100041be <_ZN11ST7735_pico10charBoundsEcPsS0_S0_S0_S0_S0_+0x34e>
10003ea0:	7bf3      	ldrb	r3, [r6, #15]
10003ea2:	428b      	cmp	r3, r1
10003ea4:	d200      	bcs.n	10003ea8 <_ZN11ST7735_pico10charBoundsEcPsS0_S0_S0_S0_S0_+0x38>
10003ea6:	e18a      	b.n	100041be <_ZN11ST7735_pico10charBoundsEcPsS0_S0_S0_S0_S0_+0x34e>
10003ea8:	7cb5      	ldrb	r5, [r6, #18]
10003eaa:	1a8c      	subs	r4, r1, r2
10003eac:	436c      	muls	r4, r5
10003eae:	68b3      	ldr	r3, [r6, #8]
10003eb0:	2207      	movs	r2, #7
10003eb2:	9302      	str	r3, [sp, #8]
10003eb4:	6833      	ldr	r3, [r6, #0]
10003eb6:	4690      	mov	r8, r2
10003eb8:	4699      	mov	r9, r3
10003eba:	3201      	adds	r2, #1
10003ebc:	4694      	mov	ip, r2
10003ebe:	3a07      	subs	r2, #7
10003ec0:	4648      	mov	r0, r9
10003ec2:	2300      	movs	r3, #0
10003ec4:	4692      	mov	sl, r2
10003ec6:	46b1      	mov	r9, r6
10003ec8:	e00c      	b.n	10003ee4 <_ZN11ST7735_pico10charBoundsEcPsS0_S0_S0_S0_S0_+0x74>
10003eca:	408b      	lsls	r3, r1
10003ecc:	001e      	movs	r6, r3
10003ece:	4653      	mov	r3, sl
10003ed0:	408b      	lsls	r3, r1
10003ed2:	3a08      	subs	r2, #8
10003ed4:	3b01      	subs	r3, #1
10003ed6:	403b      	ands	r3, r7
10003ed8:	18ad      	adds	r5, r5, r2
10003eda:	4333      	orrs	r3, r6
10003edc:	1864      	adds	r4, r4, r1
10003ede:	2d00      	cmp	r5, #0
10003ee0:	d100      	bne.n	10003ee4 <_ZN11ST7735_pico10charBoundsEcPsS0_S0_S0_S0_S0_+0x74>
10003ee2:	e22f      	b.n	10004344 <_ZN11ST7735_pico10charBoundsEcPsS0_S0_S0_S0_S0_+0x4d4>
10003ee4:	08e2      	lsrs	r2, r4, #3
10003ee6:	5c87      	ldrb	r7, [r0, r2]
10003ee8:	4642      	mov	r2, r8
10003eea:	4661      	mov	r1, ip
10003eec:	4022      	ands	r2, r4
10003eee:	1a89      	subs	r1, r1, r2
10003ef0:	42a9      	cmp	r1, r5
10003ef2:	d9ea      	bls.n	10003eca <_ZN11ST7735_pico10charBoundsEcPsS0_S0_S0_S0_S0_+0x5a>
10003ef4:	2201      	movs	r2, #1
10003ef6:	1b49      	subs	r1, r1, r5
10003ef8:	40aa      	lsls	r2, r5
10003efa:	410f      	asrs	r7, r1
10003efc:	40ab      	lsls	r3, r5
10003efe:	464e      	mov	r6, r9
10003f00:	3a01      	subs	r2, #1
10003f02:	4017      	ands	r7, r2
10003f04:	433b      	orrs	r3, r7
10003f06:	9902      	ldr	r1, [sp, #8]
10003f08:	18ca      	adds	r2, r1, r3
10003f0a:	5ccb      	ldrb	r3, [r1, r3]
10003f0c:	1159      	asrs	r1, r3, #5
10003f0e:	d000      	beq.n	10003f12 <_ZN11ST7735_pico10charBoundsEcPsS0_S0_S0_S0_S0_+0xa2>
10003f10:	e14e      	b.n	100041b0 <_ZN11ST7735_pico10charBoundsEcPsS0_S0_S0_S0_S0_+0x340>
10003f12:	2007      	movs	r0, #7
10003f14:	7cf1      	ldrb	r1, [r6, #19]
10003f16:	4681      	mov	r9, r0
10003f18:	3001      	adds	r0, #1
10003f1a:	4680      	mov	r8, r0
10003f1c:	3807      	subs	r0, #7
10003f1e:	000d      	movs	r5, r1
10003f20:	46b4      	mov	ip, r6
10003f22:	9102      	str	r1, [sp, #8]
10003f24:	2703      	movs	r7, #3
10003f26:	2100      	movs	r1, #0
10003f28:	4682      	mov	sl, r0
10003f2a:	001e      	movs	r6, r3
10003f2c:	e00e      	b.n	10003f4c <_ZN11ST7735_pico10charBoundsEcPsS0_S0_S0_S0_S0_+0xdc>
10003f2e:	000b      	movs	r3, r1
10003f30:	4651      	mov	r1, sl
10003f32:	4081      	lsls	r1, r0
10003f34:	4083      	lsls	r3, r0
10003f36:	3901      	subs	r1, #1
10003f38:	3c08      	subs	r4, #8
10003f3a:	4031      	ands	r1, r6
10003f3c:	192d      	adds	r5, r5, r4
10003f3e:	4319      	orrs	r1, r3
10003f40:	183f      	adds	r7, r7, r0
10003f42:	2d00      	cmp	r5, #0
10003f44:	d100      	bne.n	10003f48 <_ZN11ST7735_pico10charBoundsEcPsS0_S0_S0_S0_S0_+0xd8>
10003f46:	e207      	b.n	10004358 <_ZN11ST7735_pico10charBoundsEcPsS0_S0_S0_S0_S0_+0x4e8>
10003f48:	08fb      	lsrs	r3, r7, #3
10003f4a:	5cd6      	ldrb	r6, [r2, r3]
10003f4c:	464c      	mov	r4, r9
10003f4e:	4643      	mov	r3, r8
10003f50:	403c      	ands	r4, r7
10003f52:	1b18      	subs	r0, r3, r4
10003f54:	42a8      	cmp	r0, r5
10003f56:	d9ea      	bls.n	10003f2e <_ZN11ST7735_pico10charBoundsEcPsS0_S0_S0_S0_S0_+0xbe>
10003f58:	0033      	movs	r3, r6
10003f5a:	1b40      	subs	r0, r0, r5
10003f5c:	4103      	asrs	r3, r0
10003f5e:	2001      	movs	r0, #1
10003f60:	40a8      	lsls	r0, r5
10003f62:	40a9      	lsls	r1, r5
10003f64:	4666      	mov	r6, ip
10003f66:	3801      	subs	r0, #1
10003f68:	4003      	ands	r3, r0
10003f6a:	430b      	orrs	r3, r1
10003f6c:	9305      	str	r3, [sp, #20]
10003f6e:	9f02      	ldr	r7, [sp, #8]
10003f70:	3703      	adds	r7, #3
10003f72:	9703      	str	r7, [sp, #12]
10003f74:	7d33      	ldrb	r3, [r6, #20]
10003f76:	001d      	movs	r5, r3
10003f78:	9302      	str	r3, [sp, #8]
10003f7a:	2300      	movs	r3, #0
10003f7c:	469a      	mov	sl, r3
10003f7e:	3307      	adds	r3, #7
10003f80:	4698      	mov	r8, r3
10003f82:	3301      	adds	r3, #1
10003f84:	469c      	mov	ip, r3
10003f86:	3b07      	subs	r3, #7
10003f88:	4651      	mov	r1, sl
10003f8a:	4699      	mov	r9, r3
10003f8c:	46b2      	mov	sl, r6
10003f8e:	e00c      	b.n	10003faa <_ZN11ST7735_pico10charBoundsEcPsS0_S0_S0_S0_S0_+0x13a>
10003f90:	4081      	lsls	r1, r0
10003f92:	000e      	movs	r6, r1
10003f94:	4649      	mov	r1, r9
10003f96:	4081      	lsls	r1, r0
10003f98:	3c08      	subs	r4, #8
10003f9a:	3901      	subs	r1, #1
10003f9c:	4019      	ands	r1, r3
10003f9e:	192d      	adds	r5, r5, r4
10003fa0:	4331      	orrs	r1, r6
10003fa2:	183f      	adds	r7, r7, r0
10003fa4:	2d00      	cmp	r5, #0
10003fa6:	d100      	bne.n	10003faa <_ZN11ST7735_pico10charBoundsEcPsS0_S0_S0_S0_S0_+0x13a>
10003fa8:	e1d9      	b.n	1000435e <_ZN11ST7735_pico10charBoundsEcPsS0_S0_S0_S0_S0_+0x4ee>
10003faa:	4644      	mov	r4, r8
10003fac:	4660      	mov	r0, ip
10003fae:	08fb      	lsrs	r3, r7, #3
10003fb0:	403c      	ands	r4, r7
10003fb2:	5cd3      	ldrb	r3, [r2, r3]
10003fb4:	1b00      	subs	r0, r0, r4
10003fb6:	42a8      	cmp	r0, r5
10003fb8:	d9ea      	bls.n	10003f90 <_ZN11ST7735_pico10charBoundsEcPsS0_S0_S0_S0_S0_+0x120>
10003fba:	1b40      	subs	r0, r0, r5
10003fbc:	4103      	asrs	r3, r0
10003fbe:	0018      	movs	r0, r3
10003fc0:	2301      	movs	r3, #1
10003fc2:	40ab      	lsls	r3, r5
10003fc4:	40a9      	lsls	r1, r5
10003fc6:	3b01      	subs	r3, #1
10003fc8:	4003      	ands	r3, r0
10003fca:	430b      	orrs	r3, r1
10003fcc:	4656      	mov	r6, sl
10003fce:	469a      	mov	sl, r3
10003fd0:	9903      	ldr	r1, [sp, #12]
10003fd2:	9b02      	ldr	r3, [sp, #8]
10003fd4:	468c      	mov	ip, r1
10003fd6:	4463      	add	r3, ip
10003fd8:	9304      	str	r3, [sp, #16]
10003fda:	001f      	movs	r7, r3
10003fdc:	7d73      	ldrb	r3, [r6, #21]
10003fde:	2100      	movs	r1, #0
10003fe0:	001d      	movs	r5, r3
10003fe2:	9303      	str	r3, [sp, #12]
10003fe4:	2307      	movs	r3, #7
10003fe6:	4698      	mov	r8, r3
10003fe8:	3301      	adds	r3, #1
10003fea:	469c      	mov	ip, r3
10003fec:	46b1      	mov	r9, r6
10003fee:	e00c      	b.n	1000400a <_ZN11ST7735_pico10charBoundsEcPsS0_S0_S0_S0_S0_+0x19a>
10003ff0:	4081      	lsls	r1, r0
10003ff2:	000e      	movs	r6, r1
10003ff4:	2101      	movs	r1, #1
10003ff6:	4081      	lsls	r1, r0
10003ff8:	3c08      	subs	r4, #8
10003ffa:	3901      	subs	r1, #1
10003ffc:	4019      	ands	r1, r3
10003ffe:	192d      	adds	r5, r5, r4
10004000:	4331      	orrs	r1, r6
10004002:	183f      	adds	r7, r7, r0
10004004:	2d00      	cmp	r5, #0
10004006:	d100      	bne.n	1000400a <_ZN11ST7735_pico10charBoundsEcPsS0_S0_S0_S0_S0_+0x19a>
10004008:	e1a1      	b.n	1000434e <_ZN11ST7735_pico10charBoundsEcPsS0_S0_S0_S0_S0_+0x4de>
1000400a:	4644      	mov	r4, r8
1000400c:	4660      	mov	r0, ip
1000400e:	08fb      	lsrs	r3, r7, #3
10004010:	403c      	ands	r4, r7
10004012:	5cd3      	ldrb	r3, [r2, r3]
10004014:	1b00      	subs	r0, r0, r4
10004016:	42a8      	cmp	r0, r5
10004018:	d9ea      	bls.n	10003ff0 <_ZN11ST7735_pico10charBoundsEcPsS0_S0_S0_S0_S0_+0x180>
1000401a:	1b40      	subs	r0, r0, r5
1000401c:	4103      	asrs	r3, r0
1000401e:	0018      	movs	r0, r3
10004020:	2301      	movs	r3, #1
10004022:	40ab      	lsls	r3, r5
10004024:	40a9      	lsls	r1, r5
10004026:	464e      	mov	r6, r9
10004028:	3b01      	subs	r3, #1
1000402a:	4003      	ands	r3, r0
1000402c:	430b      	orrs	r3, r1
1000402e:	9302      	str	r3, [sp, #8]
10004030:	9b03      	ldr	r3, [sp, #12]
10004032:	1e59      	subs	r1, r3, #1
10004034:	2301      	movs	r3, #1
10004036:	0018      	movs	r0, r3
10004038:	4088      	lsls	r0, r1
1000403a:	0001      	movs	r1, r0
1000403c:	9802      	ldr	r0, [sp, #8]
1000403e:	4208      	tst	r0, r1
10004040:	d003      	beq.n	1000404a <_ZN11ST7735_pico10charBoundsEcPsS0_S0_S0_S0_S0_+0x1da>
10004042:	9903      	ldr	r1, [sp, #12]
10004044:	408b      	lsls	r3, r1
10004046:	1ac3      	subs	r3, r0, r3
10004048:	9302      	str	r3, [sp, #8]
1000404a:	9904      	ldr	r1, [sp, #16]
1000404c:	9b03      	ldr	r3, [sp, #12]
1000404e:	468c      	mov	ip, r1
10004050:	4463      	add	r3, ip
10004052:	469c      	mov	ip, r3
10004054:	9304      	str	r3, [sp, #16]
10004056:	2307      	movs	r3, #7
10004058:	7db1      	ldrb	r1, [r6, #22]
1000405a:	4699      	mov	r9, r3
1000405c:	3301      	adds	r3, #1
1000405e:	4665      	mov	r5, ip
10004060:	000f      	movs	r7, r1
10004062:	2400      	movs	r4, #0
10004064:	4698      	mov	r8, r3
10004066:	46b4      	mov	ip, r6
10004068:	9103      	str	r1, [sp, #12]
1000406a:	e00c      	b.n	10004086 <_ZN11ST7735_pico10charBoundsEcPsS0_S0_S0_S0_S0_+0x216>
1000406c:	4084      	lsls	r4, r0
1000406e:	0026      	movs	r6, r4
10004070:	2401      	movs	r4, #1
10004072:	4084      	lsls	r4, r0
10004074:	3908      	subs	r1, #8
10004076:	3c01      	subs	r4, #1
10004078:	401c      	ands	r4, r3
1000407a:	187f      	adds	r7, r7, r1
1000407c:	4334      	orrs	r4, r6
1000407e:	182d      	adds	r5, r5, r0
10004080:	2f00      	cmp	r7, #0
10004082:	d100      	bne.n	10004086 <_ZN11ST7735_pico10charBoundsEcPsS0_S0_S0_S0_S0_+0x216>
10004084:	e166      	b.n	10004354 <_ZN11ST7735_pico10charBoundsEcPsS0_S0_S0_S0_S0_+0x4e4>
10004086:	4649      	mov	r1, r9
10004088:	4640      	mov	r0, r8
1000408a:	08eb      	lsrs	r3, r5, #3
1000408c:	4029      	ands	r1, r5
1000408e:	5cd3      	ldrb	r3, [r2, r3]
10004090:	1a40      	subs	r0, r0, r1
10004092:	42b8      	cmp	r0, r7
10004094:	d9ea      	bls.n	1000406c <_ZN11ST7735_pico10charBoundsEcPsS0_S0_S0_S0_S0_+0x1fc>
10004096:	2101      	movs	r1, #1
10004098:	1bc0      	subs	r0, r0, r7
1000409a:	40b9      	lsls	r1, r7
1000409c:	4103      	asrs	r3, r0
1000409e:	40bc      	lsls	r4, r7
100040a0:	4666      	mov	r6, ip
100040a2:	3901      	subs	r1, #1
100040a4:	400b      	ands	r3, r1
100040a6:	431c      	orrs	r4, r3
100040a8:	9b03      	ldr	r3, [sp, #12]
100040aa:	1e59      	subs	r1, r3, #1
100040ac:	2301      	movs	r3, #1
100040ae:	0018      	movs	r0, r3
100040b0:	4088      	lsls	r0, r1
100040b2:	4204      	tst	r4, r0
100040b4:	d002      	beq.n	100040bc <_ZN11ST7735_pico10charBoundsEcPsS0_S0_S0_S0_S0_+0x24c>
100040b6:	9903      	ldr	r1, [sp, #12]
100040b8:	408b      	lsls	r3, r1
100040ba:	1ae4      	subs	r4, r4, r3
100040bc:	9b04      	ldr	r3, [sp, #16]
100040be:	2108      	movs	r1, #8
100040c0:	469c      	mov	ip, r3
100040c2:	9f03      	ldr	r7, [sp, #12]
100040c4:	2300      	movs	r3, #0
100040c6:	4467      	add	r7, ip
100040c8:	4689      	mov	r9, r1
100040ca:	46a4      	mov	ip, r4
100040cc:	46b0      	mov	r8, r6
100040ce:	0014      	movs	r4, r2
100040d0:	7df5      	ldrb	r5, [r6, #23]
100040d2:	e00c      	b.n	100040ee <_ZN11ST7735_pico10charBoundsEcPsS0_S0_S0_S0_S0_+0x27e>
100040d4:	408b      	lsls	r3, r1
100040d6:	001e      	movs	r6, r3
100040d8:	2301      	movs	r3, #1
100040da:	408b      	lsls	r3, r1
100040dc:	3808      	subs	r0, #8
100040de:	3b01      	subs	r3, #1
100040e0:	4013      	ands	r3, r2
100040e2:	182d      	adds	r5, r5, r0
100040e4:	4333      	orrs	r3, r6
100040e6:	187f      	adds	r7, r7, r1
100040e8:	2d00      	cmp	r5, #0
100040ea:	d100      	bne.n	100040ee <_ZN11ST7735_pico10charBoundsEcPsS0_S0_S0_S0_S0_+0x27e>
100040ec:	e12c      	b.n	10004348 <_ZN11ST7735_pico10charBoundsEcPsS0_S0_S0_S0_S0_+0x4d8>
100040ee:	2007      	movs	r0, #7
100040f0:	4649      	mov	r1, r9
100040f2:	08fa      	lsrs	r2, r7, #3
100040f4:	4038      	ands	r0, r7
100040f6:	5ca2      	ldrb	r2, [r4, r2]
100040f8:	1a09      	subs	r1, r1, r0
100040fa:	42a9      	cmp	r1, r5
100040fc:	d9ea      	bls.n	100040d4 <_ZN11ST7735_pico10charBoundsEcPsS0_S0_S0_S0_S0_+0x264>
100040fe:	1b49      	subs	r1, r1, r5
10004100:	410a      	asrs	r2, r1
10004102:	0011      	movs	r1, r2
10004104:	2201      	movs	r2, #1
10004106:	40aa      	lsls	r2, r5
10004108:	40ab      	lsls	r3, r5
1000410a:	4646      	mov	r6, r8
1000410c:	4664      	mov	r4, ip
1000410e:	3a01      	subs	r2, #1
10004110:	400a      	ands	r2, r1
10004112:	4313      	orrs	r3, r2
10004114:	466a      	mov	r2, sp
10004116:	8912      	ldrh	r2, [r2, #8]
10004118:	9800      	ldr	r0, [sp, #0]
1000411a:	4694      	mov	ip, r2
1000411c:	b2a1      	uxth	r1, r4
1000411e:	8800      	ldrh	r0, [r0, #0]
10004120:	466c      	mov	r4, sp
10004122:	4460      	add	r0, ip
10004124:	468c      	mov	ip, r1
10004126:	9202      	str	r2, [sp, #8]
10004128:	9a01      	ldr	r2, [sp, #4]
1000412a:	8aa4      	ldrh	r4, [r4, #20]
1000412c:	8812      	ldrh	r2, [r2, #0]
1000412e:	9103      	str	r1, [sp, #12]
10004130:	4462      	add	r2, ip
10004132:	46a4      	mov	ip, r4
10004134:	4654      	mov	r4, sl
10004136:	b2a4      	uxth	r4, r4
10004138:	46a0      	mov	r8, r4
1000413a:	2448      	movs	r4, #72	; 0x48
1000413c:	46a1      	mov	r9, r4
1000413e:	465c      	mov	r4, fp
10004140:	464d      	mov	r5, r9
10004142:	5d64      	ldrb	r4, [r4, r5]
10004144:	b207      	sxth	r7, r0
10004146:	b211      	sxth	r1, r2
10004148:	4460      	add	r0, ip
1000414a:	4442      	add	r2, r8
1000414c:	b200      	sxth	r0, r0
1000414e:	b212      	sxth	r2, r2
10004150:	2c00      	cmp	r4, #0
10004152:	d005      	beq.n	10004160 <_ZN11ST7735_pico10charBoundsEcPsS0_S0_S0_S0_S0_+0x2f0>
10004154:	465c      	mov	r4, fp
10004156:	2526      	movs	r5, #38	; 0x26
10004158:	5f64      	ldrsh	r4, [r4, r5]
1000415a:	4284      	cmp	r4, r0
1000415c:	da00      	bge.n	10004160 <_ZN11ST7735_pico10charBoundsEcPsS0_S0_S0_S0_S0_+0x2f0>
1000415e:	e101      	b.n	10004364 <_ZN11ST7735_pico10charBoundsEcPsS0_S0_S0_S0_S0_+0x4f4>
10004160:	9c10      	ldr	r4, [sp, #64]	; 0x40
10004162:	2500      	movs	r5, #0
10004164:	5f64      	ldrsh	r4, [r4, r5]
10004166:	42bc      	cmp	r4, r7
10004168:	dd01      	ble.n	1000416e <_ZN11ST7735_pico10charBoundsEcPsS0_S0_S0_S0_S0_+0x2fe>
1000416a:	9c10      	ldr	r4, [sp, #64]	; 0x40
1000416c:	8027      	strh	r7, [r4, #0]
1000416e:	9c11      	ldr	r4, [sp, #68]	; 0x44
10004170:	2500      	movs	r5, #0
10004172:	5f64      	ldrsh	r4, [r4, r5]
10004174:	428c      	cmp	r4, r1
10004176:	dd01      	ble.n	1000417c <_ZN11ST7735_pico10charBoundsEcPsS0_S0_S0_S0_S0_+0x30c>
10004178:	9c11      	ldr	r4, [sp, #68]	; 0x44
1000417a:	8021      	strh	r1, [r4, #0]
1000417c:	9912      	ldr	r1, [sp, #72]	; 0x48
1000417e:	2400      	movs	r4, #0
10004180:	5f09      	ldrsh	r1, [r1, r4]
10004182:	4281      	cmp	r1, r0
10004184:	da01      	bge.n	1000418a <_ZN11ST7735_pico10charBoundsEcPsS0_S0_S0_S0_S0_+0x31a>
10004186:	9912      	ldr	r1, [sp, #72]	; 0x48
10004188:	8008      	strh	r0, [r1, #0]
1000418a:	9913      	ldr	r1, [sp, #76]	; 0x4c
1000418c:	2000      	movs	r0, #0
1000418e:	5e09      	ldrsh	r1, [r1, r0]
10004190:	4291      	cmp	r1, r2
10004192:	da01      	bge.n	10004198 <_ZN11ST7735_pico10charBoundsEcPsS0_S0_S0_S0_S0_+0x328>
10004194:	9913      	ldr	r1, [sp, #76]	; 0x4c
10004196:	800a      	strh	r2, [r1, #0]
10004198:	9900      	ldr	r1, [sp, #0]
1000419a:	880a      	ldrh	r2, [r1, #0]
1000419c:	18d3      	adds	r3, r2, r3
1000419e:	800b      	strh	r3, [r1, #0]
100041a0:	e006      	b.n	100041b0 <_ZN11ST7735_pico10charBoundsEcPsS0_S0_S0_S0_S0_+0x340>
100041a2:	2300      	movs	r3, #0
100041a4:	9901      	ldr	r1, [sp, #4]
100041a6:	8013      	strh	r3, [r2, #0]
100041a8:	7e33      	ldrb	r3, [r6, #24]
100041aa:	880a      	ldrh	r2, [r1, #0]
100041ac:	189b      	adds	r3, r3, r2
100041ae:	800b      	strh	r3, [r1, #0]
100041b0:	b007      	add	sp, #28
100041b2:	bcf0      	pop	{r4, r5, r6, r7}
100041b4:	46bb      	mov	fp, r7
100041b6:	46b2      	mov	sl, r6
100041b8:	46a9      	mov	r9, r5
100041ba:	46a0      	mov	r8, r4
100041bc:	bdf0      	pop	{r4, r5, r6, r7, pc}
100041be:	7c34      	ldrb	r4, [r6, #16]
100041c0:	428c      	cmp	r4, r1
100041c2:	d8f5      	bhi.n	100041b0 <_ZN11ST7735_pico10charBoundsEcPsS0_S0_S0_S0_S0_+0x340>
100041c4:	7c70      	ldrb	r0, [r6, #17]
100041c6:	4288      	cmp	r0, r1
100041c8:	d3f2      	bcc.n	100041b0 <_ZN11ST7735_pico10charBoundsEcPsS0_S0_S0_S0_S0_+0x340>
100041ca:	1b0c      	subs	r4, r1, r4
100041cc:	7bf1      	ldrb	r1, [r6, #15]
100041ce:	7cb5      	ldrb	r5, [r6, #18]
100041d0:	1864      	adds	r4, r4, r1
100041d2:	1aa4      	subs	r4, r4, r2
100041d4:	3401      	adds	r4, #1
100041d6:	436c      	muls	r4, r5
100041d8:	e669      	b.n	10003eae <_ZN11ST7735_pico10charBoundsEcPsS0_S0_S0_S0_S0_+0x3e>
100041da:	6dc3      	ldr	r3, [r0, #92]	; 0x5c
100041dc:	2b00      	cmp	r3, #0
100041de:	d06c      	beq.n	100042ba <_ZN11ST7735_pico10charBoundsEcPsS0_S0_S0_S0_S0_+0x44a>
100041e0:	290a      	cmp	r1, #10
100041e2:	d060      	beq.n	100042a6 <_ZN11ST7735_pico10charBoundsEcPsS0_S0_S0_S0_S0_+0x436>
100041e4:	290d      	cmp	r1, #13
100041e6:	d0e3      	beq.n	100041b0 <_ZN11ST7735_pico10charBoundsEcPsS0_S0_S0_S0_S0_+0x340>
100041e8:	7a1a      	ldrb	r2, [r3, #8]
100041ea:	4291      	cmp	r1, r2
100041ec:	d3e0      	bcc.n	100041b0 <_ZN11ST7735_pico10charBoundsEcPsS0_S0_S0_S0_S0_+0x340>
100041ee:	7a58      	ldrb	r0, [r3, #9]
100041f0:	4288      	cmp	r0, r1
100041f2:	d3dd      	bcc.n	100041b0 <_ZN11ST7735_pico10charBoundsEcPsS0_S0_S0_S0_S0_+0x340>
100041f4:	1a8a      	subs	r2, r1, r2
100041f6:	6859      	ldr	r1, [r3, #4]
100041f8:	2705      	movs	r7, #5
100041fa:	468c      	mov	ip, r1
100041fc:	00d2      	lsls	r2, r2, #3
100041fe:	4462      	add	r2, ip
10004200:	7911      	ldrb	r1, [r2, #4]
10004202:	7a9b      	ldrb	r3, [r3, #10]
10004204:	4689      	mov	r9, r1
10004206:	7991      	ldrb	r1, [r2, #6]
10004208:	469c      	mov	ip, r3
1000420a:	085b      	lsrs	r3, r3, #1
1000420c:	18c9      	adds	r1, r1, r3
1000420e:	b24b      	sxtb	r3, r1
10004210:	469a      	mov	sl, r3
10004212:	7895      	ldrb	r5, [r2, #2]
10004214:	2348      	movs	r3, #72	; 0x48
10004216:	78d4      	ldrb	r4, [r2, #3]
10004218:	57d7      	ldrsb	r7, [r2, r7]
1000421a:	465a      	mov	r2, fp
1000421c:	5cd3      	ldrb	r3, [r2, r3]
1000421e:	2b00      	cmp	r3, #0
10004220:	d000      	beq.n	10004224 <_ZN11ST7735_pico10charBoundsEcPsS0_S0_S0_S0_S0_+0x3b4>
10004222:	e0cf      	b.n	100043c4 <_ZN11ST7735_pico10charBoundsEcPsS0_S0_S0_S0_S0_+0x554>
10004224:	9b00      	ldr	r3, [sp, #0]
10004226:	2200      	movs	r2, #0
10004228:	5e9b      	ldrsh	r3, [r3, r2]
1000422a:	9a01      	ldr	r2, [sp, #4]
1000422c:	8812      	ldrh	r2, [r2, #0]
1000422e:	4659      	mov	r1, fp
10004230:	2644      	movs	r6, #68	; 0x44
10004232:	5d8e      	ldrb	r6, [r1, r6]
10004234:	2145      	movs	r1, #69	; 0x45
10004236:	468c      	mov	ip, r1
10004238:	4659      	mov	r1, fp
1000423a:	4660      	mov	r0, ip
1000423c:	5c09      	ldrb	r1, [r1, r0]
1000423e:	4650      	mov	r0, sl
10004240:	468c      	mov	ip, r1
10004242:	4348      	muls	r0, r1
10004244:	1812      	adds	r2, r2, r0
10004246:	4660      	mov	r0, ip
10004248:	4344      	muls	r4, r0
1000424a:	4377      	muls	r7, r6
1000424c:	4375      	muls	r5, r6
1000424e:	9810      	ldr	r0, [sp, #64]	; 0x40
10004250:	3c01      	subs	r4, #1
10004252:	18fb      	adds	r3, r7, r3
10004254:	b211      	sxth	r1, r2
10004256:	3d01      	subs	r5, #1
10004258:	1912      	adds	r2, r2, r4
1000425a:	2400      	movs	r4, #0
1000425c:	5f04      	ldrsh	r4, [r0, r4]
1000425e:	b21f      	sxth	r7, r3
10004260:	195b      	adds	r3, r3, r5
10004262:	b21b      	sxth	r3, r3
10004264:	b212      	sxth	r2, r2
10004266:	42bc      	cmp	r4, r7
10004268:	dd01      	ble.n	1000426e <_ZN11ST7735_pico10charBoundsEcPsS0_S0_S0_S0_S0_+0x3fe>
1000426a:	9810      	ldr	r0, [sp, #64]	; 0x40
1000426c:	8007      	strh	r7, [r0, #0]
1000426e:	9811      	ldr	r0, [sp, #68]	; 0x44
10004270:	2400      	movs	r4, #0
10004272:	5f04      	ldrsh	r4, [r0, r4]
10004274:	428c      	cmp	r4, r1
10004276:	dd01      	ble.n	1000427c <_ZN11ST7735_pico10charBoundsEcPsS0_S0_S0_S0_S0_+0x40c>
10004278:	9811      	ldr	r0, [sp, #68]	; 0x44
1000427a:	8001      	strh	r1, [r0, #0]
1000427c:	9912      	ldr	r1, [sp, #72]	; 0x48
1000427e:	2000      	movs	r0, #0
10004280:	5e09      	ldrsh	r1, [r1, r0]
10004282:	4299      	cmp	r1, r3
10004284:	da01      	bge.n	1000428a <_ZN11ST7735_pico10charBoundsEcPsS0_S0_S0_S0_S0_+0x41a>
10004286:	9912      	ldr	r1, [sp, #72]	; 0x48
10004288:	800b      	strh	r3, [r1, #0]
1000428a:	9b13      	ldr	r3, [sp, #76]	; 0x4c
1000428c:	2100      	movs	r1, #0
1000428e:	5e5b      	ldrsh	r3, [r3, r1]
10004290:	4293      	cmp	r3, r2
10004292:	da01      	bge.n	10004298 <_ZN11ST7735_pico10charBoundsEcPsS0_S0_S0_S0_S0_+0x428>
10004294:	9b13      	ldr	r3, [sp, #76]	; 0x4c
10004296:	801a      	strh	r2, [r3, #0]
10004298:	4648      	mov	r0, r9
1000429a:	9a00      	ldr	r2, [sp, #0]
1000429c:	4370      	muls	r0, r6
1000429e:	8813      	ldrh	r3, [r2, #0]
100042a0:	1818      	adds	r0, r3, r0
100042a2:	8010      	strh	r0, [r2, #0]
100042a4:	e784      	b.n	100041b0 <_ZN11ST7735_pico10charBoundsEcPsS0_S0_S0_S0_S0_+0x340>
100042a6:	8016      	strh	r6, [r2, #0]
100042a8:	2245      	movs	r2, #69	; 0x45
100042aa:	7a9b      	ldrb	r3, [r3, #10]
100042ac:	5c82      	ldrb	r2, [r0, r2]
100042ae:	9901      	ldr	r1, [sp, #4]
100042b0:	4353      	muls	r3, r2
100042b2:	880a      	ldrh	r2, [r1, #0]
100042b4:	189b      	adds	r3, r3, r2
100042b6:	800b      	strh	r3, [r1, #0]
100042b8:	e77a      	b.n	100041b0 <_ZN11ST7735_pico10charBoundsEcPsS0_S0_S0_S0_S0_+0x340>
100042ba:	290a      	cmp	r1, #10
100042bc:	d067      	beq.n	1000438e <_ZN11ST7735_pico10charBoundsEcPsS0_S0_S0_S0_S0_+0x51e>
100042be:	290d      	cmp	r1, #13
100042c0:	d100      	bne.n	100042c4 <_ZN11ST7735_pico10charBoundsEcPsS0_S0_S0_S0_S0_+0x454>
100042c2:	e775      	b.n	100041b0 <_ZN11ST7735_pico10charBoundsEcPsS0_S0_S0_S0_S0_+0x340>
100042c4:	2248      	movs	r2, #72	; 0x48
100042c6:	5c82      	ldrb	r2, [r0, r2]
100042c8:	2a00      	cmp	r2, #0
100042ca:	d169      	bne.n	100043a0 <_ZN11ST7735_pico10charBoundsEcPsS0_S0_S0_S0_S0_+0x530>
100042cc:	9b00      	ldr	r3, [sp, #0]
100042ce:	2500      	movs	r5, #0
100042d0:	5f5d      	ldrsh	r5, [r3, r5]
100042d2:	9b01      	ldr	r3, [sp, #4]
100042d4:	2600      	movs	r6, #0
100042d6:	5f9e      	ldrsh	r6, [r3, r6]
100042d8:	465a      	mov	r2, fp
100042da:	2344      	movs	r3, #68	; 0x44
100042dc:	5cd0      	ldrb	r0, [r2, r3]
100042de:	3301      	adds	r3, #1
100042e0:	0044      	lsls	r4, r0, #1
100042e2:	5cd3      	ldrb	r3, [r2, r3]
100042e4:	1821      	adds	r1, r4, r0
100042e6:	9a12      	ldr	r2, [sp, #72]	; 0x48
100042e8:	0049      	lsls	r1, r1, #1
100042ea:	1949      	adds	r1, r1, r5
100042ec:	00db      	lsls	r3, r3, #3
100042ee:	2500      	movs	r5, #0
100042f0:	5f52      	ldrsh	r2, [r2, r5]
100042f2:	199b      	adds	r3, r3, r6
100042f4:	3901      	subs	r1, #1
100042f6:	3b01      	subs	r3, #1
100042f8:	428a      	cmp	r2, r1
100042fa:	da01      	bge.n	10004300 <_ZN11ST7735_pico10charBoundsEcPsS0_S0_S0_S0_S0_+0x490>
100042fc:	9a12      	ldr	r2, [sp, #72]	; 0x48
100042fe:	8011      	strh	r1, [r2, #0]
10004300:	9a13      	ldr	r2, [sp, #76]	; 0x4c
10004302:	2100      	movs	r1, #0
10004304:	5e52      	ldrsh	r2, [r2, r1]
10004306:	429a      	cmp	r2, r3
10004308:	da01      	bge.n	1000430e <_ZN11ST7735_pico10charBoundsEcPsS0_S0_S0_S0_S0_+0x49e>
1000430a:	9a13      	ldr	r2, [sp, #76]	; 0x4c
1000430c:	8013      	strh	r3, [r2, #0]
1000430e:	9b00      	ldr	r3, [sp, #0]
10004310:	2200      	movs	r2, #0
10004312:	5e9b      	ldrsh	r3, [r3, r2]
10004314:	9a10      	ldr	r2, [sp, #64]	; 0x40
10004316:	2100      	movs	r1, #0
10004318:	5e52      	ldrsh	r2, [r2, r1]
1000431a:	429a      	cmp	r2, r3
1000431c:	dd01      	ble.n	10004322 <_ZN11ST7735_pico10charBoundsEcPsS0_S0_S0_S0_S0_+0x4b2>
1000431e:	9a10      	ldr	r2, [sp, #64]	; 0x40
10004320:	8013      	strh	r3, [r2, #0]
10004322:	9b01      	ldr	r3, [sp, #4]
10004324:	2200      	movs	r2, #0
10004326:	5e9b      	ldrsh	r3, [r3, r2]
10004328:	9a11      	ldr	r2, [sp, #68]	; 0x44
1000432a:	2100      	movs	r1, #0
1000432c:	5e52      	ldrsh	r2, [r2, r1]
1000432e:	429a      	cmp	r2, r3
10004330:	dd01      	ble.n	10004336 <_ZN11ST7735_pico10charBoundsEcPsS0_S0_S0_S0_S0_+0x4c6>
10004332:	9a11      	ldr	r2, [sp, #68]	; 0x44
10004334:	8013      	strh	r3, [r2, #0]
10004336:	9a00      	ldr	r2, [sp, #0]
10004338:	1900      	adds	r0, r0, r4
1000433a:	8813      	ldrh	r3, [r2, #0]
1000433c:	0040      	lsls	r0, r0, #1
1000433e:	1818      	adds	r0, r3, r0
10004340:	8010      	strh	r0, [r2, #0]
10004342:	e735      	b.n	100041b0 <_ZN11ST7735_pico10charBoundsEcPsS0_S0_S0_S0_S0_+0x340>
10004344:	464e      	mov	r6, r9
10004346:	e5de      	b.n	10003f06 <_ZN11ST7735_pico10charBoundsEcPsS0_S0_S0_S0_S0_+0x96>
10004348:	4646      	mov	r6, r8
1000434a:	4664      	mov	r4, ip
1000434c:	e6e2      	b.n	10004114 <_ZN11ST7735_pico10charBoundsEcPsS0_S0_S0_S0_S0_+0x2a4>
1000434e:	464e      	mov	r6, r9
10004350:	9102      	str	r1, [sp, #8]
10004352:	e66d      	b.n	10004030 <_ZN11ST7735_pico10charBoundsEcPsS0_S0_S0_S0_S0_+0x1c0>
10004354:	4666      	mov	r6, ip
10004356:	e6a7      	b.n	100040a8 <_ZN11ST7735_pico10charBoundsEcPsS0_S0_S0_S0_S0_+0x238>
10004358:	4666      	mov	r6, ip
1000435a:	9105      	str	r1, [sp, #20]
1000435c:	e607      	b.n	10003f6e <_ZN11ST7735_pico10charBoundsEcPsS0_S0_S0_S0_S0_+0xfe>
1000435e:	4656      	mov	r6, sl
10004360:	468a      	mov	sl, r1
10004362:	e635      	b.n	10003fd0 <_ZN11ST7735_pico10charBoundsEcPsS0_S0_S0_S0_S0_+0x160>
10004364:	2200      	movs	r2, #0
10004366:	9800      	ldr	r0, [sp, #0]
10004368:	9d02      	ldr	r5, [sp, #8]
1000436a:	8002      	strh	r2, [r0, #0]
1000436c:	7e32      	ldrb	r2, [r6, #24]
1000436e:	9e01      	ldr	r6, [sp, #4]
10004370:	8831      	ldrh	r1, [r6, #0]
10004372:	1852      	adds	r2, r2, r1
10004374:	b292      	uxth	r2, r2
10004376:	8032      	strh	r2, [r6, #0]
10004378:	8800      	ldrh	r0, [r0, #0]
1000437a:	9903      	ldr	r1, [sp, #12]
1000437c:	182d      	adds	r5, r5, r0
1000437e:	188c      	adds	r4, r1, r2
10004380:	b22f      	sxth	r7, r5
10004382:	b221      	sxth	r1, r4
10004384:	4465      	add	r5, ip
10004386:	4444      	add	r4, r8
10004388:	b228      	sxth	r0, r5
1000438a:	b222      	sxth	r2, r4
1000438c:	e6e8      	b.n	10004160 <_ZN11ST7735_pico10charBoundsEcPsS0_S0_S0_S0_S0_+0x2f0>
1000438e:	8013      	strh	r3, [r2, #0]
10004390:	2345      	movs	r3, #69	; 0x45
10004392:	9901      	ldr	r1, [sp, #4]
10004394:	5cc3      	ldrb	r3, [r0, r3]
10004396:	880a      	ldrh	r2, [r1, #0]
10004398:	00db      	lsls	r3, r3, #3
1000439a:	189b      	adds	r3, r3, r2
1000439c:	800b      	strh	r3, [r1, #0]
1000439e:	e707      	b.n	100041b0 <_ZN11ST7735_pico10charBoundsEcPsS0_S0_S0_S0_S0_+0x340>
100043a0:	9a00      	ldr	r2, [sp, #0]
100043a2:	2500      	movs	r5, #0
100043a4:	5f55      	ldrsh	r5, [r2, r5]
100043a6:	2244      	movs	r2, #68	; 0x44
100043a8:	5c81      	ldrb	r1, [r0, r2]
100043aa:	004a      	lsls	r2, r1, #1
100043ac:	1852      	adds	r2, r2, r1
100043ae:	0001      	movs	r1, r0
100043b0:	0052      	lsls	r2, r2, #1
100043b2:	2026      	movs	r0, #38	; 0x26
100043b4:	5e09      	ldrsh	r1, [r1, r0]
100043b6:	1952      	adds	r2, r2, r5
100043b8:	428a      	cmp	r2, r1
100043ba:	dc16      	bgt.n	100043ea <_ZN11ST7735_pico10charBoundsEcPsS0_S0_S0_S0_S0_+0x57a>
100043bc:	9b01      	ldr	r3, [sp, #4]
100043be:	2600      	movs	r6, #0
100043c0:	5f9e      	ldrsh	r6, [r3, r6]
100043c2:	e789      	b.n	100042d8 <_ZN11ST7735_pico10charBoundsEcPsS0_S0_S0_S0_S0_+0x468>
100043c4:	2144      	movs	r1, #68	; 0x44
100043c6:	4688      	mov	r8, r1
100043c8:	4659      	mov	r1, fp
100043ca:	4640      	mov	r0, r8
100043cc:	9b00      	ldr	r3, [sp, #0]
100043ce:	5c09      	ldrb	r1, [r1, r0]
100043d0:	2200      	movs	r2, #0
100043d2:	5e9b      	ldrsh	r3, [r3, r2]
100043d4:	197a      	adds	r2, r7, r5
100043d6:	434a      	muls	r2, r1
100043d8:	4659      	mov	r1, fp
100043da:	2026      	movs	r0, #38	; 0x26
100043dc:	5e09      	ldrsh	r1, [r1, r0]
100043de:	18d2      	adds	r2, r2, r3
100043e0:	428a      	cmp	r2, r1
100043e2:	dc10      	bgt.n	10004406 <_ZN11ST7735_pico10charBoundsEcPsS0_S0_S0_S0_S0_+0x596>
100043e4:	9a01      	ldr	r2, [sp, #4]
100043e6:	8812      	ldrh	r2, [r2, #0]
100043e8:	e721      	b.n	1000422e <_ZN11ST7735_pico10charBoundsEcPsS0_S0_S0_S0_S0_+0x3be>
100043ea:	9a00      	ldr	r2, [sp, #0]
100043ec:	4659      	mov	r1, fp
100043ee:	8013      	strh	r3, [r2, #0]
100043f0:	2345      	movs	r3, #69	; 0x45
100043f2:	5ccb      	ldrb	r3, [r1, r3]
100043f4:	9901      	ldr	r1, [sp, #4]
100043f6:	00db      	lsls	r3, r3, #3
100043f8:	880e      	ldrh	r6, [r1, #0]
100043fa:	199e      	adds	r6, r3, r6
100043fc:	b236      	sxth	r6, r6
100043fe:	800e      	strh	r6, [r1, #0]
10004400:	2300      	movs	r3, #0
10004402:	5ed5      	ldrsh	r5, [r2, r3]
10004404:	e768      	b.n	100042d8 <_ZN11ST7735_pico10charBoundsEcPsS0_S0_S0_S0_S0_+0x468>
10004406:	2345      	movs	r3, #69	; 0x45
10004408:	465a      	mov	r2, fp
1000440a:	9900      	ldr	r1, [sp, #0]
1000440c:	9801      	ldr	r0, [sp, #4]
1000440e:	800e      	strh	r6, [r1, #0]
10004410:	5cd2      	ldrb	r2, [r2, r3]
10004412:	4663      	mov	r3, ip
10004414:	435a      	muls	r2, r3
10004416:	8803      	ldrh	r3, [r0, #0]
10004418:	18d2      	adds	r2, r2, r3
1000441a:	b292      	uxth	r2, r2
1000441c:	8002      	strh	r2, [r0, #0]
1000441e:	2300      	movs	r3, #0
10004420:	5ecb      	ldrsh	r3, [r1, r3]
10004422:	e704      	b.n	1000422e <_ZN11ST7735_pico10charBoundsEcPsS0_S0_S0_S0_S0_+0x3be>

10004424 <_ZN11ST7735_pico11strPixelLenEPKc>:
10004424:	b5f0      	push	{r4, r5, r6, r7, lr}
10004426:	4645      	mov	r5, r8
10004428:	46de      	mov	lr, fp
1000442a:	4657      	mov	r7, sl
1000442c:	464e      	mov	r6, r9
1000442e:	b5e0      	push	{r5, r6, r7, lr}
10004430:	b08f      	sub	sp, #60	; 0x3c
10004432:	4680      	mov	r8, r0
10004434:	9106      	str	r1, [sp, #24]
10004436:	2900      	cmp	r1, #0
10004438:	d100      	bne.n	1000443c <_ZN11ST7735_pico11strPixelLenEPKc+0x18>
1000443a:	e09a      	b.n	10004572 <_ZN11ST7735_pico11strPixelLenEPKc+0x14e>
1000443c:	6dc2      	ldr	r2, [r0, #92]	; 0x5c
1000443e:	2a00      	cmp	r2, #0
10004440:	d000      	beq.n	10004444 <_ZN11ST7735_pico11strPixelLenEPKc+0x20>
10004442:	e0bd      	b.n	100045c0 <_ZN11ST7735_pico11strPixelLenEPKc+0x19c>
10004444:	780d      	ldrb	r5, [r1, #0]
10004446:	2d00      	cmp	r5, #0
10004448:	d100      	bne.n	1000444c <_ZN11ST7735_pico11strPixelLenEPKc+0x28>
1000444a:	e092      	b.n	10004572 <_ZN11ST7735_pico11strPixelLenEPKc+0x14e>
1000444c:	2300      	movs	r3, #0
1000444e:	9307      	str	r3, [sp, #28]
10004450:	9305      	str	r3, [sp, #20]
10004452:	3307      	adds	r3, #7
10004454:	4699      	mov	r9, r3
10004456:	3301      	adds	r3, #1
10004458:	469b      	mov	fp, r3
1000445a:	3b07      	subs	r3, #7
1000445c:	469a      	mov	sl, r3
1000445e:	2d0a      	cmp	r5, #10
10004460:	d077      	beq.n	10004552 <_ZN11ST7735_pico11strPixelLenEPKc+0x12e>
10004462:	4643      	mov	r3, r8
10004464:	6cdf      	ldr	r7, [r3, #76]	; 0x4c
10004466:	2f00      	cmp	r7, #0
10004468:	d100      	bne.n	1000446c <_ZN11ST7735_pico11strPixelLenEPKc+0x48>
1000446a:	e09a      	b.n	100045a2 <_ZN11ST7735_pico11strPixelLenEPKc+0x17e>
1000446c:	7bba      	ldrb	r2, [r7, #14]
1000446e:	42aa      	cmp	r2, r5
10004470:	d900      	bls.n	10004474 <_ZN11ST7735_pico11strPixelLenEPKc+0x50>
10004472:	e086      	b.n	10004582 <_ZN11ST7735_pico11strPixelLenEPKc+0x15e>
10004474:	7bfb      	ldrb	r3, [r7, #15]
10004476:	42ab      	cmp	r3, r5
10004478:	d200      	bcs.n	1000447c <_ZN11ST7735_pico11strPixelLenEPKc+0x58>
1000447a:	e082      	b.n	10004582 <_ZN11ST7735_pico11strPixelLenEPKc+0x15e>
1000447c:	7cbc      	ldrb	r4, [r7, #18]
1000447e:	1aa8      	subs	r0, r5, r2
10004480:	4360      	muls	r0, r4
10004482:	68bb      	ldr	r3, [r7, #8]
10004484:	683a      	ldr	r2, [r7, #0]
10004486:	9308      	str	r3, [sp, #32]
10004488:	9709      	str	r7, [sp, #36]	; 0x24
1000448a:	2300      	movs	r3, #0
1000448c:	0017      	movs	r7, r2
1000448e:	46ac      	mov	ip, r5
10004490:	e00b      	b.n	100044aa <_ZN11ST7735_pico11strPixelLenEPKc+0x86>
10004492:	4651      	mov	r1, sl
10004494:	4091      	lsls	r1, r2
10004496:	4093      	lsls	r3, r2
10004498:	3901      	subs	r1, #1
1000449a:	3e08      	subs	r6, #8
1000449c:	4029      	ands	r1, r5
1000449e:	19a4      	adds	r4, r4, r6
100044a0:	430b      	orrs	r3, r1
100044a2:	1880      	adds	r0, r0, r2
100044a4:	2c00      	cmp	r4, #0
100044a6:	d100      	bne.n	100044aa <_ZN11ST7735_pico11strPixelLenEPKc+0x86>
100044a8:	e087      	b.n	100045ba <_ZN11ST7735_pico11strPixelLenEPKc+0x196>
100044aa:	08c2      	lsrs	r2, r0, #3
100044ac:	464e      	mov	r6, r9
100044ae:	5cbd      	ldrb	r5, [r7, r2]
100044b0:	465a      	mov	r2, fp
100044b2:	4006      	ands	r6, r0
100044b4:	1b92      	subs	r2, r2, r6
100044b6:	42a2      	cmp	r2, r4
100044b8:	d9eb      	bls.n	10004492 <_ZN11ST7735_pico11strPixelLenEPKc+0x6e>
100044ba:	002e      	movs	r6, r5
100044bc:	1b12      	subs	r2, r2, r4
100044be:	4116      	asrs	r6, r2
100044c0:	4652      	mov	r2, sl
100044c2:	40a2      	lsls	r2, r4
100044c4:	40a3      	lsls	r3, r4
100044c6:	4665      	mov	r5, ip
100044c8:	3a01      	subs	r2, #1
100044ca:	4016      	ands	r6, r2
100044cc:	9f09      	ldr	r7, [sp, #36]	; 0x24
100044ce:	4333      	orrs	r3, r6
100044d0:	9a08      	ldr	r2, [sp, #32]
100044d2:	18d0      	adds	r0, r2, r3
100044d4:	5cd3      	ldrb	r3, [r2, r3]
100044d6:	115b      	asrs	r3, r3, #5
100044d8:	d1c1      	bne.n	1000445e <_ZN11ST7735_pico11strPixelLenEPKc+0x3a>
100044da:	7d7a      	ldrb	r2, [r7, #21]
100044dc:	7d3d      	ldrb	r5, [r7, #20]
100044de:	7cfb      	ldrb	r3, [r7, #19]
100044e0:	18ad      	adds	r5, r5, r2
100044e2:	7dba      	ldrb	r2, [r7, #22]
100044e4:	3303      	adds	r3, #3
100044e6:	18ad      	adds	r5, r5, r2
100044e8:	2600      	movs	r6, #0
100044ea:	7dff      	ldrb	r7, [r7, #23]
100044ec:	18ed      	adds	r5, r5, r3
100044ee:	e00a      	b.n	10004506 <_ZN11ST7735_pico11strPixelLenEPKc+0xe2>
100044f0:	4653      	mov	r3, sl
100044f2:	408b      	lsls	r3, r1
100044f4:	408e      	lsls	r6, r1
100044f6:	3b01      	subs	r3, #1
100044f8:	3a08      	subs	r2, #8
100044fa:	4023      	ands	r3, r4
100044fc:	18bf      	adds	r7, r7, r2
100044fe:	431e      	orrs	r6, r3
10004500:	186d      	adds	r5, r5, r1
10004502:	2f00      	cmp	r7, #0
10004504:	d010      	beq.n	10004528 <_ZN11ST7735_pico11strPixelLenEPKc+0x104>
10004506:	08eb      	lsrs	r3, r5, #3
10004508:	464a      	mov	r2, r9
1000450a:	5cc4      	ldrb	r4, [r0, r3]
1000450c:	465b      	mov	r3, fp
1000450e:	402a      	ands	r2, r5
10004510:	1a99      	subs	r1, r3, r2
10004512:	42b9      	cmp	r1, r7
10004514:	d9ec      	bls.n	100044f0 <_ZN11ST7735_pico11strPixelLenEPKc+0xcc>
10004516:	4652      	mov	r2, sl
10004518:	0023      	movs	r3, r4
1000451a:	40ba      	lsls	r2, r7
1000451c:	1bc9      	subs	r1, r1, r7
1000451e:	410b      	asrs	r3, r1
10004520:	40be      	lsls	r6, r7
10004522:	3a01      	subs	r2, #1
10004524:	4013      	ands	r3, r2
10004526:	431e      	orrs	r6, r3
10004528:	9b05      	ldr	r3, [sp, #20]
1000452a:	469c      	mov	ip, r3
1000452c:	4466      	add	r6, ip
1000452e:	b2b3      	uxth	r3, r6
10004530:	001a      	movs	r2, r3
10004532:	9305      	str	r3, [sp, #20]
10004534:	9907      	ldr	r1, [sp, #28]
10004536:	1c0b      	adds	r3, r1, #0
10004538:	4291      	cmp	r1, r2
1000453a:	d200      	bcs.n	1000453e <_ZN11ST7735_pico11strPixelLenEPKc+0x11a>
1000453c:	1c13      	adds	r3, r2, #0
1000453e:	b29b      	uxth	r3, r3
10004540:	9307      	str	r3, [sp, #28]
10004542:	9a06      	ldr	r2, [sp, #24]
10004544:	7855      	ldrb	r5, [r2, #1]
10004546:	1c53      	adds	r3, r2, #1
10004548:	2d00      	cmp	r5, #0
1000454a:	d00e      	beq.n	1000456a <_ZN11ST7735_pico11strPixelLenEPKc+0x146>
1000454c:	9306      	str	r3, [sp, #24]
1000454e:	2d0a      	cmp	r5, #10
10004550:	d187      	bne.n	10004462 <_ZN11ST7735_pico11strPixelLenEPKc+0x3e>
10004552:	9b05      	ldr	r3, [sp, #20]
10004554:	9a07      	ldr	r2, [sp, #28]
10004556:	4293      	cmp	r3, r2
10004558:	d9f3      	bls.n	10004542 <_ZN11ST7735_pico11strPixelLenEPKc+0x11e>
1000455a:	9307      	str	r3, [sp, #28]
1000455c:	2300      	movs	r3, #0
1000455e:	9a06      	ldr	r2, [sp, #24]
10004560:	9305      	str	r3, [sp, #20]
10004562:	7855      	ldrb	r5, [r2, #1]
10004564:	1c53      	adds	r3, r2, #1
10004566:	2d00      	cmp	r5, #0
10004568:	d1f0      	bne.n	1000454c <_ZN11ST7735_pico11strPixelLenEPKc+0x128>
1000456a:	466b      	mov	r3, sp
1000456c:	201c      	movs	r0, #28
1000456e:	5e18      	ldrsh	r0, [r3, r0]
10004570:	e000      	b.n	10004574 <_ZN11ST7735_pico11strPixelLenEPKc+0x150>
10004572:	2000      	movs	r0, #0
10004574:	b00f      	add	sp, #60	; 0x3c
10004576:	bcf0      	pop	{r4, r5, r6, r7}
10004578:	46bb      	mov	fp, r7
1000457a:	46b2      	mov	sl, r6
1000457c:	46a9      	mov	r9, r5
1000457e:	46a0      	mov	r8, r4
10004580:	bdf0      	pop	{r4, r5, r6, r7, pc}
10004582:	7c38      	ldrb	r0, [r7, #16]
10004584:	42a8      	cmp	r0, r5
10004586:	d900      	bls.n	1000458a <_ZN11ST7735_pico11strPixelLenEPKc+0x166>
10004588:	e769      	b.n	1000445e <_ZN11ST7735_pico11strPixelLenEPKc+0x3a>
1000458a:	7c79      	ldrb	r1, [r7, #17]
1000458c:	42a9      	cmp	r1, r5
1000458e:	d200      	bcs.n	10004592 <_ZN11ST7735_pico11strPixelLenEPKc+0x16e>
10004590:	e765      	b.n	1000445e <_ZN11ST7735_pico11strPixelLenEPKc+0x3a>
10004592:	7bfb      	ldrb	r3, [r7, #15]
10004594:	1a28      	subs	r0, r5, r0
10004596:	18c0      	adds	r0, r0, r3
10004598:	7cbc      	ldrb	r4, [r7, #18]
1000459a:	1a80      	subs	r0, r0, r2
1000459c:	3001      	adds	r0, #1
1000459e:	4360      	muls	r0, r4
100045a0:	e76f      	b.n	10004482 <_ZN11ST7735_pico11strPixelLenEPKc+0x5e>
100045a2:	2244      	movs	r2, #68	; 0x44
100045a4:	5c9b      	ldrb	r3, [r3, r2]
100045a6:	005a      	lsls	r2, r3, #1
100045a8:	189b      	adds	r3, r3, r2
100045aa:	9a05      	ldr	r2, [sp, #20]
100045ac:	005b      	lsls	r3, r3, #1
100045ae:	4694      	mov	ip, r2
100045b0:	4463      	add	r3, ip
100045b2:	b29b      	uxth	r3, r3
100045b4:	001a      	movs	r2, r3
100045b6:	9305      	str	r3, [sp, #20]
100045b8:	e7bc      	b.n	10004534 <_ZN11ST7735_pico11strPixelLenEPKc+0x110>
100045ba:	4665      	mov	r5, ip
100045bc:	9f09      	ldr	r7, [sp, #36]	; 0x24
100045be:	e787      	b.n	100044d0 <_ZN11ST7735_pico11strPixelLenEPKc+0xac>
100045c0:	220c      	movs	r2, #12
100045c2:	5e83      	ldrsh	r3, [r0, r2]
100045c4:	aa0b      	add	r2, sp, #44	; 0x2c
100045c6:	4691      	mov	r9, r2
100045c8:	4649      	mov	r1, r9
100045ca:	8942      	ldrh	r2, [r0, #10]
100045cc:	ac0c      	add	r4, sp, #48	; 0x30
100045ce:	800a      	strh	r2, [r1, #0]
100045d0:	a906      	add	r1, sp, #24
100045d2:	468c      	mov	ip, r1
100045d4:	2216      	movs	r2, #22
100045d6:	4462      	add	r2, ip
100045d8:	8013      	strh	r3, [r2, #0]
100045da:	0003      	movs	r3, r0
100045dc:	4692      	mov	sl, r2
100045de:	2226      	movs	r2, #38	; 0x26
100045e0:	5e9a      	ldrsh	r2, [r3, r2]
100045e2:	271e      	movs	r7, #30
100045e4:	8022      	strh	r2, [r4, #0]
100045e6:	8d03      	ldrh	r3, [r0, #40]	; 0x28
100045e8:	ad0d      	add	r5, sp, #52	; 0x34
100045ea:	834b      	strh	r3, [r1, #26]
100045ec:	2301      	movs	r3, #1
100045ee:	9906      	ldr	r1, [sp, #24]
100045f0:	425b      	negs	r3, r3
100045f2:	1c4e      	adds	r6, r1, #1
100045f4:	7809      	ldrb	r1, [r1, #0]
100045f6:	4467      	add	r7, ip
100045f8:	802b      	strh	r3, [r5, #0]
100045fa:	803b      	strh	r3, [r7, #0]
100045fc:	2900      	cmp	r1, #0
100045fe:	d015      	beq.n	1000462c <_ZN11ST7735_pico11strPixelLenEPKc+0x208>
10004600:	aa06      	add	r2, sp, #24
10004602:	4694      	mov	ip, r2
10004604:	231a      	movs	r3, #26
10004606:	4463      	add	r3, ip
10004608:	9301      	str	r3, [sp, #4]
1000460a:	464a      	mov	r2, r9
1000460c:	4653      	mov	r3, sl
1000460e:	4640      	mov	r0, r8
10004610:	9703      	str	r7, [sp, #12]
10004612:	9502      	str	r5, [sp, #8]
10004614:	9400      	str	r4, [sp, #0]
10004616:	3601      	adds	r6, #1
10004618:	f7ff fc2a 	bl	10003e70 <_ZN11ST7735_pico10charBoundsEcPsS0_S0_S0_S0_S0_>
1000461c:	1e73      	subs	r3, r6, #1
1000461e:	7819      	ldrb	r1, [r3, #0]
10004620:	2900      	cmp	r1, #0
10004622:	d1ed      	bne.n	10004600 <_ZN11ST7735_pico11strPixelLenEPKc+0x1dc>
10004624:	2200      	movs	r2, #0
10004626:	5eab      	ldrsh	r3, [r5, r2]
10004628:	2100      	movs	r1, #0
1000462a:	5e62      	ldrsh	r2, [r4, r1]
1000462c:	2000      	movs	r0, #0
1000462e:	4293      	cmp	r3, r2
10004630:	dba0      	blt.n	10004574 <_ZN11ST7735_pico11strPixelLenEPKc+0x150>
10004632:	3301      	adds	r3, #1
10004634:	1a98      	subs	r0, r3, r2
10004636:	b200      	sxth	r0, r0
10004638:	e79c      	b.n	10004574 <_ZN11ST7735_pico11strPixelLenEPKc+0x150>
1000463a:	46c0      	nop			; (mov r8, r8)

1000463c <_ZN11ST7735_pico12drawFontBitsEbmmllm>:
1000463c:	b5f0      	push	{r4, r5, r6, r7, lr}
1000463e:	4657      	mov	r7, sl
10004640:	4645      	mov	r5, r8
10004642:	46de      	mov	lr, fp
10004644:	464e      	mov	r6, r9
10004646:	b5e0      	push	{r5, r6, r7, lr}
10004648:	b087      	sub	sp, #28
1000464a:	469a      	mov	sl, r3
1000464c:	4680      	mov	r8, r0
1000464e:	0017      	movs	r7, r2
10004650:	000b      	movs	r3, r1
10004652:	9103      	str	r1, [sp, #12]
10004654:	2a00      	cmp	r2, #0
10004656:	d108      	bne.n	1000466a <_ZN11ST7735_pico12drawFontBitsEbmmllm+0x2e>
10004658:	2900      	cmp	r1, #0
1000465a:	d154      	bne.n	10004706 <_ZN11ST7735_pico12drawFontBitsEbmmllm+0xca>
1000465c:	b007      	add	sp, #28
1000465e:	bcf0      	pop	{r4, r5, r6, r7}
10004660:	46bb      	mov	fp, r7
10004662:	46b2      	mov	sl, r6
10004664:	46a9      	mov	r9, r5
10004666:	46a0      	mov	r8, r4
10004668:	bdf0      	pop	{r4, r5, r6, r7, pc}
1000466a:	4655      	mov	r5, sl
1000466c:	2900      	cmp	r1, #0
1000466e:	d15a      	bne.n	10004726 <_ZN11ST7735_pico12drawFontBitsEbmmllm+0xea>
10004670:	2400      	movs	r4, #0
10004672:	3301      	adds	r3, #1
10004674:	4699      	mov	r9, r3
10004676:	9b11      	ldr	r3, [sp, #68]	; 0x44
10004678:	0020      	movs	r0, r4
1000467a:	b21b      	sxth	r3, r3
1000467c:	469b      	mov	fp, r3
1000467e:	9b12      	ldr	r3, [sp, #72]	; 0x48
10004680:	2600      	movs	r6, #0
10004682:	b21b      	sxth	r3, r3
10004684:	4644      	mov	r4, r8
10004686:	9304      	str	r3, [sp, #16]
10004688:	e015      	b.n	100046b6 <_ZN11ST7735_pico12drawFontBitsEbmmllm+0x7a>
1000468a:	2800      	cmp	r0, #0
1000468c:	d00f      	beq.n	100046ae <_ZN11ST7735_pico12drawFontBitsEbmmllm+0x72>
1000468e:	4652      	mov	r2, sl
10004690:	1a51      	subs	r1, r2, r1
10004692:	9a10      	ldr	r2, [sp, #64]	; 0x40
10004694:	b203      	sxth	r3, r0
10004696:	4694      	mov	ip, r2
10004698:	8ea2      	ldrh	r2, [r4, #52]	; 0x34
1000469a:	4461      	add	r1, ip
1000469c:	9201      	str	r2, [sp, #4]
1000469e:	9a04      	ldr	r2, [sp, #16]
100046a0:	1a09      	subs	r1, r1, r0
100046a2:	9200      	str	r2, [sp, #0]
100046a4:	0020      	movs	r0, r4
100046a6:	465a      	mov	r2, fp
100046a8:	b209      	sxth	r1, r1
100046aa:	f7fd f909 	bl	100018c0 <_ZN11ST7735_pico8fillRectEsssst>
100046ae:	2000      	movs	r0, #0
100046b0:	3601      	adds	r6, #1
100046b2:	2d00      	cmp	r5, #0
100046b4:	d009      	beq.n	100046ca <_ZN11ST7735_pico12drawFontBitsEbmmllm+0x8e>
100046b6:	464b      	mov	r3, r9
100046b8:	0029      	movs	r1, r5
100046ba:	3d01      	subs	r5, #1
100046bc:	40ab      	lsls	r3, r5
100046be:	421f      	tst	r7, r3
100046c0:	d0e3      	beq.n	1000468a <_ZN11ST7735_pico12drawFontBitsEbmmllm+0x4e>
100046c2:	2600      	movs	r6, #0
100046c4:	3001      	adds	r0, #1
100046c6:	2d00      	cmp	r5, #0
100046c8:	d1f5      	bne.n	100046b6 <_ZN11ST7735_pico12drawFontBitsEbmmllm+0x7a>
100046ca:	46a0      	mov	r8, r4
100046cc:	0004      	movs	r4, r0
100046ce:	9d10      	ldr	r5, [sp, #64]	; 0x40
100046d0:	4455      	add	r5, sl
100046d2:	2c00      	cmp	r4, #0
100046d4:	d00d      	beq.n	100046f2 <_ZN11ST7735_pico12drawFontBitsEbmmllm+0xb6>
100046d6:	4640      	mov	r0, r8
100046d8:	8e80      	ldrh	r0, [r0, #52]	; 0x34
100046da:	9a11      	ldr	r2, [sp, #68]	; 0x44
100046dc:	9001      	str	r0, [sp, #4]
100046de:	9812      	ldr	r0, [sp, #72]	; 0x48
100046e0:	1b29      	subs	r1, r5, r4
100046e2:	b200      	sxth	r0, r0
100046e4:	9000      	str	r0, [sp, #0]
100046e6:	b223      	sxth	r3, r4
100046e8:	4640      	mov	r0, r8
100046ea:	b212      	sxth	r2, r2
100046ec:	b209      	sxth	r1, r1
100046ee:	f7fd f8e7 	bl	100018c0 <_ZN11ST7735_pico8fillRectEsssst>
100046f2:	2e00      	cmp	r6, #0
100046f4:	d0b2      	beq.n	1000465c <_ZN11ST7735_pico12drawFontBitsEbmmllm+0x20>
100046f6:	9b03      	ldr	r3, [sp, #12]
100046f8:	2b00      	cmp	r3, #0
100046fa:	d0af      	beq.n	1000465c <_ZN11ST7735_pico12drawFontBitsEbmmllm+0x20>
100046fc:	9a11      	ldr	r2, [sp, #68]	; 0x44
100046fe:	b233      	sxth	r3, r6
10004700:	b212      	sxth	r2, r2
10004702:	1ba9      	subs	r1, r5, r6
10004704:	e004      	b.n	10004710 <_ZN11ST7735_pico12drawFontBitsEbmmllm+0xd4>
10004706:	4653      	mov	r3, sl
10004708:	9a11      	ldr	r2, [sp, #68]	; 0x44
1000470a:	9910      	ldr	r1, [sp, #64]	; 0x40
1000470c:	b21b      	sxth	r3, r3
1000470e:	b212      	sxth	r2, r2
10004710:	4640      	mov	r0, r8
10004712:	8ec0      	ldrh	r0, [r0, #54]	; 0x36
10004714:	b209      	sxth	r1, r1
10004716:	9001      	str	r0, [sp, #4]
10004718:	9812      	ldr	r0, [sp, #72]	; 0x48
1000471a:	b200      	sxth	r0, r0
1000471c:	9000      	str	r0, [sp, #0]
1000471e:	4640      	mov	r0, r8
10004720:	f7fd f8ce 	bl	100018c0 <_ZN11ST7735_pico8fillRectEsssst>
10004724:	e79a      	b.n	1000465c <_ZN11ST7735_pico12drawFontBitsEbmmllm+0x20>
10004726:	9b10      	ldr	r3, [sp, #64]	; 0x40
10004728:	2600      	movs	r6, #0
1000472a:	4699      	mov	r9, r3
1000472c:	2301      	movs	r3, #1
1000472e:	469b      	mov	fp, r3
10004730:	9b11      	ldr	r3, [sp, #68]	; 0x44
10004732:	464f      	mov	r7, r9
10004734:	b21b      	sxth	r3, r3
10004736:	9304      	str	r3, [sp, #16]
10004738:	9b12      	ldr	r3, [sp, #72]	; 0x48
1000473a:	2400      	movs	r4, #0
1000473c:	b21b      	sxth	r3, r3
1000473e:	4691      	mov	r9, r2
10004740:	9305      	str	r3, [sp, #20]
10004742:	e012      	b.n	1000476a <_ZN11ST7735_pico12drawFontBitsEbmmllm+0x12e>
10004744:	2e00      	cmp	r6, #0
10004746:	d00b      	beq.n	10004760 <_ZN11ST7735_pico12drawFontBitsEbmmllm+0x124>
10004748:	4642      	mov	r2, r8
1000474a:	8ed2      	ldrh	r2, [r2, #54]	; 0x36
1000474c:	1bb9      	subs	r1, r7, r6
1000474e:	9201      	str	r2, [sp, #4]
10004750:	9a05      	ldr	r2, [sp, #20]
10004752:	4640      	mov	r0, r8
10004754:	9200      	str	r2, [sp, #0]
10004756:	b233      	sxth	r3, r6
10004758:	9a04      	ldr	r2, [sp, #16]
1000475a:	b209      	sxth	r1, r1
1000475c:	f7fd f8b0 	bl	100018c0 <_ZN11ST7735_pico8fillRectEsssst>
10004760:	2600      	movs	r6, #0
10004762:	3401      	adds	r4, #1
10004764:	3701      	adds	r7, #1
10004766:	2d00      	cmp	r5, #0
10004768:	d0b1      	beq.n	100046ce <_ZN11ST7735_pico12drawFontBitsEbmmllm+0x92>
1000476a:	465b      	mov	r3, fp
1000476c:	3d01      	subs	r5, #1
1000476e:	40ab      	lsls	r3, r5
10004770:	464a      	mov	r2, r9
10004772:	421a      	tst	r2, r3
10004774:	d1e6      	bne.n	10004744 <_ZN11ST7735_pico12drawFontBitsEbmmllm+0x108>
10004776:	2c00      	cmp	r4, #0
10004778:	d00b      	beq.n	10004792 <_ZN11ST7735_pico12drawFontBitsEbmmllm+0x156>
1000477a:	4642      	mov	r2, r8
1000477c:	8e92      	ldrh	r2, [r2, #52]	; 0x34
1000477e:	1b39      	subs	r1, r7, r4
10004780:	9201      	str	r2, [sp, #4]
10004782:	9a05      	ldr	r2, [sp, #20]
10004784:	4640      	mov	r0, r8
10004786:	9200      	str	r2, [sp, #0]
10004788:	b223      	sxth	r3, r4
1000478a:	9a04      	ldr	r2, [sp, #16]
1000478c:	b209      	sxth	r1, r1
1000478e:	f7fd f897 	bl	100018c0 <_ZN11ST7735_pico8fillRectEsssst>
10004792:	2400      	movs	r4, #0
10004794:	3601      	adds	r6, #1
10004796:	e7e5      	b.n	10004764 <_ZN11ST7735_pico12drawFontBitsEbmmllm+0x128>

10004798 <_ZN11ST7735_pico12drawFontCharEj>:
10004798:	b5f0      	push	{r4, r5, r6, r7, lr}
1000479a:	46de      	mov	lr, fp
1000479c:	4657      	mov	r7, sl
1000479e:	464e      	mov	r6, r9
100047a0:	4645      	mov	r5, r8
100047a2:	b5e0      	push	{r5, r6, r7, lr}
100047a4:	6cc2      	ldr	r2, [r0, #76]	; 0x4c
100047a6:	b099      	sub	sp, #100	; 0x64
100047a8:	af04      	add	r7, sp, #16
100047aa:	647a      	str	r2, [r7, #68]	; 0x44
100047ac:	4683      	mov	fp, r0
100047ae:	7b90      	ldrb	r0, [r2, #14]
100047b0:	4288      	cmp	r0, r1
100047b2:	d806      	bhi.n	100047c2 <_ZN11ST7735_pico12drawFontCharEj+0x2a>
100047b4:	7bd3      	ldrb	r3, [r2, #15]
100047b6:	428b      	cmp	r3, r1
100047b8:	d303      	bcc.n	100047c2 <_ZN11ST7735_pico12drawFontCharEj+0x2a>
100047ba:	7c94      	ldrb	r4, [r2, #18]
100047bc:	1a08      	subs	r0, r1, r0
100047be:	4360      	muls	r0, r4
100047c0:	e00f      	b.n	100047e2 <_ZN11ST7735_pico12drawFontCharEj+0x4a>
100047c2:	6c7c      	ldr	r4, [r7, #68]	; 0x44
100047c4:	7c22      	ldrb	r2, [r4, #16]
100047c6:	428a      	cmp	r2, r1
100047c8:	d900      	bls.n	100047cc <_ZN11ST7735_pico12drawFontCharEj+0x34>
100047ca:	e2f5      	b.n	10004db8 <_ZN11ST7735_pico12drawFontCharEj+0x620>
100047cc:	7c63      	ldrb	r3, [r4, #17]
100047ce:	428b      	cmp	r3, r1
100047d0:	d200      	bcs.n	100047d4 <_ZN11ST7735_pico12drawFontCharEj+0x3c>
100047d2:	e2f1      	b.n	10004db8 <_ZN11ST7735_pico12drawFontCharEj+0x620>
100047d4:	7be3      	ldrb	r3, [r4, #15]
100047d6:	3101      	adds	r1, #1
100047d8:	1859      	adds	r1, r3, r1
100047da:	7ca4      	ldrb	r4, [r4, #18]
100047dc:	1a89      	subs	r1, r1, r2
100047de:	1a08      	subs	r0, r1, r0
100047e0:	4360      	muls	r0, r4
100047e2:	6c7b      	ldr	r3, [r7, #68]	; 0x44
100047e4:	2600      	movs	r6, #0
100047e6:	689a      	ldr	r2, [r3, #8]
100047e8:	681b      	ldr	r3, [r3, #0]
100047ea:	64fa      	str	r2, [r7, #76]	; 0x4c
100047ec:	4699      	mov	r9, r3
100047ee:	2307      	movs	r3, #7
100047f0:	4698      	mov	r8, r3
100047f2:	3301      	adds	r3, #1
100047f4:	469c      	mov	ip, r3
100047f6:	3b07      	subs	r3, #7
100047f8:	469a      	mov	sl, r3
100047fa:	4649      	mov	r1, r9
100047fc:	e00c      	b.n	10004818 <_ZN11ST7735_pico12drawFontCharEj+0x80>
100047fe:	4096      	lsls	r6, r2
10004800:	46b1      	mov	r9, r6
10004802:	4656      	mov	r6, sl
10004804:	4096      	lsls	r6, r2
10004806:	3e01      	subs	r6, #1
10004808:	402e      	ands	r6, r5
1000480a:	464d      	mov	r5, r9
1000480c:	3b08      	subs	r3, #8
1000480e:	18e4      	adds	r4, r4, r3
10004810:	432e      	orrs	r6, r5
10004812:	1880      	adds	r0, r0, r2
10004814:	2c00      	cmp	r4, #0
10004816:	d00f      	beq.n	10004838 <_ZN11ST7735_pico12drawFontCharEj+0xa0>
10004818:	08c3      	lsrs	r3, r0, #3
1000481a:	5ccd      	ldrb	r5, [r1, r3]
1000481c:	4643      	mov	r3, r8
1000481e:	4662      	mov	r2, ip
10004820:	4003      	ands	r3, r0
10004822:	1ad2      	subs	r2, r2, r3
10004824:	42a2      	cmp	r2, r4
10004826:	d9ea      	bls.n	100047fe <_ZN11ST7735_pico12drawFontCharEj+0x66>
10004828:	1b12      	subs	r2, r2, r4
1000482a:	4115      	asrs	r5, r2
1000482c:	2201      	movs	r2, #1
1000482e:	40a2      	lsls	r2, r4
10004830:	40a6      	lsls	r6, r4
10004832:	3a01      	subs	r2, #1
10004834:	4015      	ands	r5, r2
10004836:	432e      	orrs	r6, r5
10004838:	6cfb      	ldr	r3, [r7, #76]	; 0x4c
1000483a:	469c      	mov	ip, r3
1000483c:	44b4      	add	ip, r6
1000483e:	4662      	mov	r2, ip
10004840:	5d9b      	ldrb	r3, [r3, r6]
10004842:	64ba      	str	r2, [r7, #72]	; 0x48
10004844:	115a      	asrs	r2, r3, #5
10004846:	d000      	beq.n	1000484a <_ZN11ST7735_pico12drawFontCharEj+0xb2>
10004848:	e2b6      	b.n	10004db8 <_ZN11ST7735_pico12drawFontCharEj+0x620>
1000484a:	6c7a      	ldr	r2, [r7, #68]	; 0x44
1000484c:	2600      	movs	r6, #0
1000484e:	7cd2      	ldrb	r2, [r2, #19]
10004850:	2503      	movs	r5, #3
10004852:	4692      	mov	sl, r2
10004854:	0014      	movs	r4, r2
10004856:	2207      	movs	r2, #7
10004858:	4690      	mov	r8, r2
1000485a:	3201      	adds	r2, #1
1000485c:	4694      	mov	ip, r2
1000485e:	3a07      	subs	r2, #7
10004860:	4691      	mov	r9, r2
10004862:	e00e      	b.n	10004882 <_ZN11ST7735_pico12drawFontCharEj+0xea>
10004864:	464a      	mov	r2, r9
10004866:	408a      	lsls	r2, r1
10004868:	408e      	lsls	r6, r1
1000486a:	3a01      	subs	r2, #1
1000486c:	3808      	subs	r0, #8
1000486e:	401a      	ands	r2, r3
10004870:	1824      	adds	r4, r4, r0
10004872:	4316      	orrs	r6, r2
10004874:	186d      	adds	r5, r5, r1
10004876:	2c00      	cmp	r4, #0
10004878:	d100      	bne.n	1000487c <_ZN11ST7735_pico12drawFontCharEj+0xe4>
1000487a:	e2b3      	b.n	10004de4 <_ZN11ST7735_pico12drawFontCharEj+0x64c>
1000487c:	6cba      	ldr	r2, [r7, #72]	; 0x48
1000487e:	08eb      	lsrs	r3, r5, #3
10004880:	5cd3      	ldrb	r3, [r2, r3]
10004882:	4640      	mov	r0, r8
10004884:	4662      	mov	r2, ip
10004886:	4028      	ands	r0, r5
10004888:	1a11      	subs	r1, r2, r0
1000488a:	42a1      	cmp	r1, r4
1000488c:	d9ea      	bls.n	10004864 <_ZN11ST7735_pico12drawFontCharEj+0xcc>
1000488e:	1b09      	subs	r1, r1, r4
10004890:	410b      	asrs	r3, r1
10004892:	2101      	movs	r1, #1
10004894:	40a1      	lsls	r1, r4
10004896:	40a6      	lsls	r6, r4
10004898:	3901      	subs	r1, #1
1000489a:	400b      	ands	r3, r1
1000489c:	4333      	orrs	r3, r6
1000489e:	64fb      	str	r3, [r7, #76]	; 0x4c
100048a0:	4655      	mov	r5, sl
100048a2:	6c7b      	ldr	r3, [r7, #68]	; 0x44
100048a4:	3503      	adds	r5, #3
100048a6:	643d      	str	r5, [r7, #64]	; 0x40
100048a8:	7d1b      	ldrb	r3, [r3, #20]
100048aa:	2600      	movs	r6, #0
100048ac:	469a      	mov	sl, r3
100048ae:	001c      	movs	r4, r3
100048b0:	2307      	movs	r3, #7
100048b2:	4698      	mov	r8, r3
100048b4:	3301      	adds	r3, #1
100048b6:	469c      	mov	ip, r3
100048b8:	3b07      	subs	r3, #7
100048ba:	4699      	mov	r9, r3
100048bc:	e00b      	b.n	100048d6 <_ZN11ST7735_pico12drawFontCharEj+0x13e>
100048be:	464a      	mov	r2, r9
100048c0:	408a      	lsls	r2, r1
100048c2:	408e      	lsls	r6, r1
100048c4:	3a01      	subs	r2, #1
100048c6:	3808      	subs	r0, #8
100048c8:	401a      	ands	r2, r3
100048ca:	1824      	adds	r4, r4, r0
100048cc:	4316      	orrs	r6, r2
100048ce:	186d      	adds	r5, r5, r1
100048d0:	2c00      	cmp	r4, #0
100048d2:	d100      	bne.n	100048d6 <_ZN11ST7735_pico12drawFontCharEj+0x13e>
100048d4:	e29b      	b.n	10004e0e <_ZN11ST7735_pico12drawFontCharEj+0x676>
100048d6:	6cba      	ldr	r2, [r7, #72]	; 0x48
100048d8:	4640      	mov	r0, r8
100048da:	08eb      	lsrs	r3, r5, #3
100048dc:	5cd3      	ldrb	r3, [r2, r3]
100048de:	4662      	mov	r2, ip
100048e0:	4028      	ands	r0, r5
100048e2:	1a11      	subs	r1, r2, r0
100048e4:	42a1      	cmp	r1, r4
100048e6:	d9ea      	bls.n	100048be <_ZN11ST7735_pico12drawFontCharEj+0x126>
100048e8:	2201      	movs	r2, #1
100048ea:	1b09      	subs	r1, r1, r4
100048ec:	40a2      	lsls	r2, r4
100048ee:	410b      	asrs	r3, r1
100048f0:	40a6      	lsls	r6, r4
100048f2:	3a01      	subs	r2, #1
100048f4:	4013      	ands	r3, r2
100048f6:	4333      	orrs	r3, r6
100048f8:	63fb      	str	r3, [r7, #60]	; 0x3c
100048fa:	6c3e      	ldr	r6, [r7, #64]	; 0x40
100048fc:	6c7b      	ldr	r3, [r7, #68]	; 0x44
100048fe:	4456      	add	r6, sl
10004900:	643e      	str	r6, [r7, #64]	; 0x40
10004902:	7d5b      	ldrb	r3, [r3, #21]
10004904:	2400      	movs	r4, #0
10004906:	469a      	mov	sl, r3
10004908:	001d      	movs	r5, r3
1000490a:	2307      	movs	r3, #7
1000490c:	4698      	mov	r8, r3
1000490e:	3301      	adds	r3, #1
10004910:	469c      	mov	ip, r3
10004912:	3b07      	subs	r3, #7
10004914:	4699      	mov	r9, r3
10004916:	e00a      	b.n	1000492e <_ZN11ST7735_pico12drawFontCharEj+0x196>
10004918:	464a      	mov	r2, r9
1000491a:	408a      	lsls	r2, r1
1000491c:	408c      	lsls	r4, r1
1000491e:	3a01      	subs	r2, #1
10004920:	3808      	subs	r0, #8
10004922:	401a      	ands	r2, r3
10004924:	182d      	adds	r5, r5, r0
10004926:	4314      	orrs	r4, r2
10004928:	1876      	adds	r6, r6, r1
1000492a:	2d00      	cmp	r5, #0
1000492c:	d011      	beq.n	10004952 <_ZN11ST7735_pico12drawFontCharEj+0x1ba>
1000492e:	6cba      	ldr	r2, [r7, #72]	; 0x48
10004930:	4640      	mov	r0, r8
10004932:	08f3      	lsrs	r3, r6, #3
10004934:	5cd3      	ldrb	r3, [r2, r3]
10004936:	4662      	mov	r2, ip
10004938:	4030      	ands	r0, r6
1000493a:	1a11      	subs	r1, r2, r0
1000493c:	42a9      	cmp	r1, r5
1000493e:	d9eb      	bls.n	10004918 <_ZN11ST7735_pico12drawFontCharEj+0x180>
10004940:	1b49      	subs	r1, r1, r5
10004942:	410b      	asrs	r3, r1
10004944:	001a      	movs	r2, r3
10004946:	2301      	movs	r3, #1
10004948:	40ab      	lsls	r3, r5
1000494a:	40ac      	lsls	r4, r5
1000494c:	3b01      	subs	r3, #1
1000494e:	4013      	ands	r3, r2
10004950:	431c      	orrs	r4, r3
10004952:	4653      	mov	r3, sl
10004954:	1e5a      	subs	r2, r3, #1
10004956:	2301      	movs	r3, #1
10004958:	0019      	movs	r1, r3
1000495a:	4091      	lsls	r1, r2
1000495c:	420c      	tst	r4, r1
1000495e:	d002      	beq.n	10004966 <_ZN11ST7735_pico12drawFontCharEj+0x1ce>
10004960:	4652      	mov	r2, sl
10004962:	4093      	lsls	r3, r2
10004964:	1ae4      	subs	r4, r4, r3
10004966:	6c3e      	ldr	r6, [r7, #64]	; 0x40
10004968:	6c7b      	ldr	r3, [r7, #68]	; 0x44
1000496a:	4456      	add	r6, sl
1000496c:	63be      	str	r6, [r7, #56]	; 0x38
1000496e:	7d9b      	ldrb	r3, [r3, #22]
10004970:	001d      	movs	r5, r3
10004972:	643b      	str	r3, [r7, #64]	; 0x40
10004974:	2300      	movs	r3, #0
10004976:	469a      	mov	sl, r3
10004978:	3307      	adds	r3, #7
1000497a:	4699      	mov	r9, r3
1000497c:	3301      	adds	r3, #1
1000497e:	4698      	mov	r8, r3
10004980:	3b07      	subs	r3, #7
10004982:	469c      	mov	ip, r3
10004984:	465b      	mov	r3, fp
10004986:	46a3      	mov	fp, r4
10004988:	4654      	mov	r4, sl
1000498a:	469a      	mov	sl, r3
1000498c:	e00b      	b.n	100049a6 <_ZN11ST7735_pico12drawFontCharEj+0x20e>
1000498e:	4662      	mov	r2, ip
10004990:	408a      	lsls	r2, r1
10004992:	408c      	lsls	r4, r1
10004994:	3a01      	subs	r2, #1
10004996:	3808      	subs	r0, #8
10004998:	401a      	ands	r2, r3
1000499a:	182d      	adds	r5, r5, r0
1000499c:	4314      	orrs	r4, r2
1000499e:	1876      	adds	r6, r6, r1
100049a0:	2d00      	cmp	r5, #0
100049a2:	d100      	bne.n	100049a6 <_ZN11ST7735_pico12drawFontCharEj+0x20e>
100049a4:	e220      	b.n	10004de8 <_ZN11ST7735_pico12drawFontCharEj+0x650>
100049a6:	6cba      	ldr	r2, [r7, #72]	; 0x48
100049a8:	4648      	mov	r0, r9
100049aa:	08f3      	lsrs	r3, r6, #3
100049ac:	5cd3      	ldrb	r3, [r2, r3]
100049ae:	4642      	mov	r2, r8
100049b0:	4030      	ands	r0, r6
100049b2:	1a11      	subs	r1, r2, r0
100049b4:	42a9      	cmp	r1, r5
100049b6:	d9ea      	bls.n	1000498e <_ZN11ST7735_pico12drawFontCharEj+0x1f6>
100049b8:	1b49      	subs	r1, r1, r5
100049ba:	410b      	asrs	r3, r1
100049bc:	4652      	mov	r2, sl
100049be:	46a2      	mov	sl, r4
100049c0:	0019      	movs	r1, r3
100049c2:	2301      	movs	r3, #1
100049c4:	465c      	mov	r4, fp
100049c6:	4693      	mov	fp, r2
100049c8:	4652      	mov	r2, sl
100049ca:	40ab      	lsls	r3, r5
100049cc:	40aa      	lsls	r2, r5
100049ce:	3b01      	subs	r3, #1
100049d0:	400b      	ands	r3, r1
100049d2:	4313      	orrs	r3, r2
100049d4:	469a      	mov	sl, r3
100049d6:	6c3b      	ldr	r3, [r7, #64]	; 0x40
100049d8:	1e5a      	subs	r2, r3, #1
100049da:	2301      	movs	r3, #1
100049dc:	0019      	movs	r1, r3
100049de:	4091      	lsls	r1, r2
100049e0:	000a      	movs	r2, r1
100049e2:	4651      	mov	r1, sl
100049e4:	4211      	tst	r1, r2
100049e6:	d003      	beq.n	100049f0 <_ZN11ST7735_pico12drawFontCharEj+0x258>
100049e8:	6c3a      	ldr	r2, [r7, #64]	; 0x40
100049ea:	4093      	lsls	r3, r2
100049ec:	1acb      	subs	r3, r1, r3
100049ee:	469a      	mov	sl, r3
100049f0:	6bbb      	ldr	r3, [r7, #56]	; 0x38
100049f2:	6c3e      	ldr	r6, [r7, #64]	; 0x40
100049f4:	469c      	mov	ip, r3
100049f6:	6c7b      	ldr	r3, [r7, #68]	; 0x44
100049f8:	4466      	add	r6, ip
100049fa:	637e      	str	r6, [r7, #52]	; 0x34
100049fc:	7ddb      	ldrb	r3, [r3, #23]
100049fe:	2207      	movs	r2, #7
10004a00:	001d      	movs	r5, r3
10004a02:	63bb      	str	r3, [r7, #56]	; 0x38
10004a04:	2300      	movs	r3, #0
10004a06:	4691      	mov	r9, r2
10004a08:	3201      	adds	r2, #1
10004a0a:	46a4      	mov	ip, r4
10004a0c:	4690      	mov	r8, r2
10004a0e:	001c      	movs	r4, r3
10004a10:	e00b      	b.n	10004a2a <_ZN11ST7735_pico12drawFontCharEj+0x292>
10004a12:	2201      	movs	r2, #1
10004a14:	408a      	lsls	r2, r1
10004a16:	408c      	lsls	r4, r1
10004a18:	3a01      	subs	r2, #1
10004a1a:	3808      	subs	r0, #8
10004a1c:	401a      	ands	r2, r3
10004a1e:	182d      	adds	r5, r5, r0
10004a20:	4314      	orrs	r4, r2
10004a22:	1876      	adds	r6, r6, r1
10004a24:	2d00      	cmp	r5, #0
10004a26:	d100      	bne.n	10004a2a <_ZN11ST7735_pico12drawFontCharEj+0x292>
10004a28:	e1e3      	b.n	10004df2 <_ZN11ST7735_pico12drawFontCharEj+0x65a>
10004a2a:	6cba      	ldr	r2, [r7, #72]	; 0x48
10004a2c:	4648      	mov	r0, r9
10004a2e:	08f3      	lsrs	r3, r6, #3
10004a30:	5cd3      	ldrb	r3, [r2, r3]
10004a32:	4642      	mov	r2, r8
10004a34:	4030      	ands	r0, r6
10004a36:	1a11      	subs	r1, r2, r0
10004a38:	42a9      	cmp	r1, r5
10004a3a:	d9ea      	bls.n	10004a12 <_ZN11ST7735_pico12drawFontCharEj+0x27a>
10004a3c:	1b49      	subs	r1, r1, r5
10004a3e:	410b      	asrs	r3, r1
10004a40:	2101      	movs	r1, #1
10004a42:	0022      	movs	r2, r4
10004a44:	40a9      	lsls	r1, r5
10004a46:	40aa      	lsls	r2, r5
10004a48:	3901      	subs	r1, #1
10004a4a:	400b      	ands	r3, r1
10004a4c:	4313      	orrs	r3, r2
10004a4e:	613b      	str	r3, [r7, #16]
10004a50:	465b      	mov	r3, fp
10004a52:	220a      	movs	r2, #10
10004a54:	5e9b      	ldrsh	r3, [r3, r2]
10004a56:	4664      	mov	r4, ip
10004a58:	2b00      	cmp	r3, #0
10004a5a:	da00      	bge.n	10004a5e <_ZN11ST7735_pico12drawFontCharEj+0x2c6>
10004a5c:	e1d1      	b.n	10004e02 <_ZN11ST7735_pico12drawFontCharEj+0x66a>
10004a5e:	191a      	adds	r2, r3, r4
10004a60:	643a      	str	r2, [r7, #64]	; 0x40
10004a62:	2a00      	cmp	r2, #0
10004a64:	da04      	bge.n	10004a70 <_ZN11ST7735_pico12drawFontCharEj+0x2d8>
10004a66:	465a      	mov	r2, fp
10004a68:	1b1b      	subs	r3, r3, r4
10004a6a:	8153      	strh	r3, [r2, #10]
10004a6c:	2300      	movs	r3, #0
10004a6e:	643b      	str	r3, [r7, #64]	; 0x40
10004a70:	6c3b      	ldr	r3, [r7, #64]	; 0x40
10004a72:	6cfa      	ldr	r2, [r7, #76]	; 0x4c
10004a74:	469c      	mov	ip, r3
10004a76:	465b      	mov	r3, fp
10004a78:	2126      	movs	r1, #38	; 0x26
10004a7a:	5e5b      	ldrsh	r3, [r3, r1]
10004a7c:	4462      	add	r2, ip
10004a7e:	429a      	cmp	r2, r3
10004a80:	dc00      	bgt.n	10004a84 <_ZN11ST7735_pico12drawFontCharEj+0x2ec>
10004a82:	e1a1      	b.n	10004dc8 <_ZN11ST7735_pico12drawFontCharEj+0x630>
10004a84:	2348      	movs	r3, #72	; 0x48
10004a86:	465a      	mov	r2, fp
10004a88:	5cd3      	ldrb	r3, [r2, r3]
10004a8a:	2b00      	cmp	r3, #0
10004a8c:	d100      	bne.n	10004a90 <_ZN11ST7735_pico12drawFontCharEj+0x2f8>
10004a8e:	e193      	b.n	10004db8 <_ZN11ST7735_pico12drawFontCharEj+0x620>
10004a90:	2300      	movs	r3, #0
10004a92:	2c00      	cmp	r4, #0
10004a94:	da01      	bge.n	10004a9a <_ZN11ST7735_pico12drawFontCharEj+0x302>
10004a96:	4263      	negs	r3, r4
10004a98:	b21b      	sxth	r3, r3
10004a9a:	465a      	mov	r2, fp
10004a9c:	8153      	strh	r3, [r2, #10]
10004a9e:	6c7b      	ldr	r3, [r7, #68]	; 0x44
10004aa0:	8992      	ldrh	r2, [r2, #12]
10004aa2:	7e1b      	ldrb	r3, [r3, #24]
10004aa4:	2100      	movs	r1, #0
10004aa6:	189b      	adds	r3, r3, r2
10004aa8:	465a      	mov	r2, fp
10004aaa:	b21b      	sxth	r3, r3
10004aac:	8193      	strh	r3, [r2, #12]
10004aae:	6cfa      	ldr	r2, [r7, #76]	; 0x4c
10004ab0:	6439      	str	r1, [r7, #64]	; 0x40
10004ab2:	2132      	movs	r1, #50	; 0x32
10004ab4:	4658      	mov	r0, fp
10004ab6:	5c41      	ldrb	r1, [r0, r1]
10004ab8:	2900      	cmp	r1, #0
10004aba:	d004      	beq.n	10004ac6 <_ZN11ST7735_pico12drawFontCharEj+0x32e>
10004abc:	2133      	movs	r1, #51	; 0x33
10004abe:	5c41      	ldrb	r1, [r0, r1]
10004ac0:	2900      	cmp	r1, #0
10004ac2:	d000      	beq.n	10004ac6 <_ZN11ST7735_pico12drawFontCharEj+0x32e>
10004ac4:	e32d      	b.n	10005122 <_ZN11ST7735_pico12drawFontCharEj+0x98a>
10004ac6:	465a      	mov	r2, fp
10004ac8:	2128      	movs	r1, #40	; 0x28
10004aca:	5e52      	ldrsh	r2, [r2, r1]
10004acc:	429a      	cmp	r2, r3
10004ace:	dc00      	bgt.n	10004ad2 <_ZN11ST7735_pico12drawFontCharEj+0x33a>
10004ad0:	e172      	b.n	10004db8 <_ZN11ST7735_pico12drawFontCharEj+0x620>
10004ad2:	6b79      	ldr	r1, [r7, #52]	; 0x34
10004ad4:	6bba      	ldr	r2, [r7, #56]	; 0x38
10004ad6:	468c      	mov	ip, r1
10004ad8:	4462      	add	r2, ip
10004ada:	63ba      	str	r2, [r7, #56]	; 0x38
10004adc:	6bf8      	ldr	r0, [r7, #60]	; 0x3c
10004ade:	6c7a      	ldr	r2, [r7, #68]	; 0x44
10004ae0:	7e51      	ldrb	r1, [r2, #25]
10004ae2:	0002      	movs	r2, r0
10004ae4:	18c9      	adds	r1, r1, r3
10004ae6:	4452      	add	r2, sl
10004ae8:	1a8a      	subs	r2, r1, r2
10004aea:	637a      	str	r2, [r7, #52]	; 0x34
10004aec:	4690      	mov	r8, r2
10004aee:	465a      	mov	r2, fp
10004af0:	62b8      	str	r0, [r7, #40]	; 0x28
10004af2:	8ed1      	ldrh	r1, [r2, #54]	; 0x36
10004af4:	8e92      	ldrh	r2, [r2, #52]	; 0x34
10004af6:	4291      	cmp	r1, r2
10004af8:	d100      	bne.n	10004afc <_ZN11ST7735_pico12drawFontCharEj+0x364>
10004afa:	e1f5      	b.n	10004ee8 <_ZN11ST7735_pico12drawFontCharEj+0x750>
10004afc:	465a      	mov	r2, fp
10004afe:	250a      	movs	r5, #10
10004b00:	5f55      	ldrsh	r5, [r2, r5]
10004b02:	465a      	mov	r2, fp
10004b04:	2118      	movs	r1, #24
10004b06:	5e52      	ldrsh	r2, [r2, r1]
10004b08:	6c39      	ldr	r1, [r7, #64]	; 0x40
10004b0a:	18a8      	adds	r0, r5, r2
10004b0c:	468c      	mov	ip, r1
10004b0e:	4494      	add	ip, r2
10004b10:	4666      	mov	r6, ip
10004b12:	693a      	ldr	r2, [r7, #16]
10004b14:	6cf9      	ldr	r1, [r7, #76]	; 0x4c
10004b16:	1882      	adds	r2, r0, r2
10004b18:	4461      	add	r1, ip
10004b1a:	627e      	str	r6, [r7, #36]	; 0x24
10004b1c:	6379      	str	r1, [r7, #52]	; 0x34
10004b1e:	4291      	cmp	r1, r2
10004b20:	da00      	bge.n	10004b24 <_ZN11ST7735_pico12drawFontCharEj+0x38c>
10004b22:	0011      	movs	r1, r2
10004b24:	465a      	mov	r2, fp
10004b26:	2620      	movs	r6, #32
10004b28:	5f92      	ldrsh	r2, [r2, r6]
10004b2a:	60fa      	str	r2, [r7, #12]
10004b2c:	428a      	cmp	r2, r1
10004b2e:	dd00      	ble.n	10004b32 <_ZN11ST7735_pico12drawFontCharEj+0x39a>
10004b30:	60f9      	str	r1, [r7, #12]
10004b32:	465e      	mov	r6, fp
10004b34:	68f9      	ldr	r1, [r7, #12]
10004b36:	3901      	subs	r1, #1
10004b38:	6079      	str	r1, [r7, #4]
10004b3a:	241c      	movs	r4, #28
10004b3c:	5f36      	ldrsh	r6, [r6, r4]
10004b3e:	428e      	cmp	r6, r1
10004b40:	dd00      	ble.n	10004b44 <_ZN11ST7735_pico12drawFontCharEj+0x3ac>
10004b42:	e134      	b.n	10004dae <_ZN11ST7735_pico12drawFontCharEj+0x616>
10004b44:	6a79      	ldr	r1, [r7, #36]	; 0x24
10004b46:	6178      	str	r0, [r7, #20]
10004b48:	4288      	cmp	r0, r1
10004b4a:	dd00      	ble.n	10004b4e <_ZN11ST7735_pico12drawFontCharEj+0x3b6>
10004b4c:	e2e7      	b.n	1000511e <_ZN11ST7735_pico12drawFontCharEj+0x986>
10004b4e:	6978      	ldr	r0, [r7, #20]
10004b50:	43c1      	mvns	r1, r0
10004b52:	17c9      	asrs	r1, r1, #31
10004b54:	4008      	ands	r0, r1
10004b56:	6178      	str	r0, [r7, #20]
10004b58:	4290      	cmp	r0, r2
10004b5a:	db00      	blt.n	10004b5e <_ZN11ST7735_pico12drawFontCharEj+0x3c6>
10004b5c:	e127      	b.n	10004dae <_ZN11ST7735_pico12drawFontCharEj+0x616>
10004b5e:	465a      	mov	r2, fp
10004b60:	211a      	movs	r1, #26
10004b62:	5e52      	ldrsh	r2, [r2, r1]
10004b64:	6bf8      	ldr	r0, [r7, #60]	; 0x3c
10004b66:	189b      	adds	r3, r3, r2
10004b68:	4442      	add	r2, r8
10004b6a:	0014      	movs	r4, r2
10004b6c:	643a      	str	r2, [r7, #64]	; 0x40
10004b6e:	465a      	mov	r2, fp
10004b70:	46a4      	mov	ip, r4
10004b72:	2122      	movs	r1, #34	; 0x22
10004b74:	5e51      	ldrsh	r1, [r2, r1]
10004b76:	6c7a      	ldr	r2, [r7, #68]	; 0x44
10004b78:	4460      	add	r0, ip
10004b7a:	7e12      	ldrb	r2, [r2, #24]
10004b7c:	6338      	str	r0, [r7, #48]	; 0x30
10004b7e:	18d2      	adds	r2, r2, r3
10004b80:	4290      	cmp	r0, r2
10004b82:	da00      	bge.n	10004b86 <_ZN11ST7735_pico12drawFontCharEj+0x3ee>
10004b84:	e37a      	b.n	1000527c <_ZN11ST7735_pico12drawFontCharEj+0xae4>
10004b86:	6038      	str	r0, [r7, #0]
10004b88:	4288      	cmp	r0, r1
10004b8a:	dd00      	ble.n	10004b8e <_ZN11ST7735_pico12drawFontCharEj+0x3f6>
10004b8c:	e374      	b.n	10005278 <_ZN11ST7735_pico12drawFontCharEj+0xae0>
10004b8e:	683a      	ldr	r2, [r7, #0]
10004b90:	3a01      	subs	r2, #1
10004b92:	4691      	mov	r9, r2
10004b94:	465a      	mov	r2, fp
10004b96:	201e      	movs	r0, #30
10004b98:	5e12      	ldrsh	r2, [r2, r0]
10004b9a:	4690      	mov	r8, r2
10004b9c:	454a      	cmp	r2, r9
10004b9e:	dd00      	ble.n	10004ba2 <_ZN11ST7735_pico12drawFontCharEj+0x40a>
10004ba0:	e105      	b.n	10004dae <_ZN11ST7735_pico12drawFontCharEj+0x616>
10004ba2:	001c      	movs	r4, r3
10004ba4:	6c3b      	ldr	r3, [r7, #64]	; 0x40
10004ba6:	429c      	cmp	r4, r3
10004ba8:	dd00      	ble.n	10004bac <_ZN11ST7735_pico12drawFontCharEj+0x414>
10004baa:	001c      	movs	r4, r3
10004bac:	43e3      	mvns	r3, r4
10004bae:	17db      	asrs	r3, r3, #31
10004bb0:	401c      	ands	r4, r3
10004bb2:	42a1      	cmp	r1, r4
10004bb4:	dc00      	bgt.n	10004bb8 <_ZN11ST7735_pico12drawFontCharEj+0x420>
10004bb6:	e0fa      	b.n	10004dae <_ZN11ST7735_pico12drawFontCharEj+0x616>
10004bb8:	465b      	mov	r3, fp
10004bba:	6858      	ldr	r0, [r3, #4]
10004bbc:	6803      	ldr	r3, [r0, #0]
10004bbe:	68db      	ldr	r3, [r3, #12]
10004bc0:	4798      	blx	r3
10004bc2:	2800      	cmp	r0, #0
10004bc4:	d107      	bne.n	10004bd6 <_ZN11ST7735_pico12drawFontCharEj+0x43e>
10004bc6:	2380      	movs	r3, #128	; 0x80
10004bc8:	465a      	mov	r2, fp
10004bca:	5cd2      	ldrb	r2, [r2, r3]
10004bcc:	3b7f      	subs	r3, #127	; 0x7f
10004bce:	4093      	lsls	r3, r2
10004bd0:	22d0      	movs	r2, #208	; 0xd0
10004bd2:	0612      	lsls	r2, r2, #24
10004bd4:	6193      	str	r3, [r2, #24]
10004bd6:	4643      	mov	r3, r8
10004bd8:	647b      	str	r3, [r7, #68]	; 0x44
10004bda:	42a3      	cmp	r3, r4
10004bdc:	da00      	bge.n	10004be0 <_ZN11ST7735_pico12drawFontCharEj+0x448>
10004bde:	647c      	str	r4, [r7, #68]	; 0x44
10004be0:	8abb      	ldrh	r3, [r7, #20]
10004be2:	4698      	mov	r8, r3
10004be4:	2344      	movs	r3, #68	; 0x44
10004be6:	18fb      	adds	r3, r7, r3
10004be8:	881b      	ldrh	r3, [r3, #0]
10004bea:	62fb      	str	r3, [r7, #44]	; 0x2c
10004bec:	88bb      	ldrh	r3, [r7, #4]
10004bee:	469a      	mov	sl, r3
10004bf0:	464b      	mov	r3, r9
10004bf2:	b29b      	uxth	r3, r3
10004bf4:	4699      	mov	r9, r3
10004bf6:	465b      	mov	r3, fp
10004bf8:	7a5b      	ldrb	r3, [r3, #9]
10004bfa:	2b00      	cmp	r3, #0
10004bfc:	d001      	beq.n	10004c02 <_ZN11ST7735_pico12drawFontCharEj+0x46a>
10004bfe:	f000 ff07 	bl	10005a10 <_ZN11ST7735_pico12drawFontCharEj+0x1278>
10004c02:	2381      	movs	r3, #129	; 0x81
10004c04:	465a      	mov	r2, fp
10004c06:	5cd2      	ldrb	r2, [r2, r3]
10004c08:	3b80      	subs	r3, #128	; 0x80
10004c0a:	4093      	lsls	r3, r2
10004c0c:	22d0      	movs	r2, #208	; 0xd0
10004c0e:	0612      	lsls	r2, r2, #24
10004c10:	6193      	str	r3, [r2, #24]
10004c12:	465b      	mov	r3, fp
10004c14:	212a      	movs	r1, #42	; 0x2a
10004c16:	6858      	ldr	r0, [r3, #4]
10004c18:	f7fb fcc8 	bl	100005ac <_ZN3SPI5writeEh>
10004c1c:	465a      	mov	r2, fp
10004c1e:	2376      	movs	r3, #118	; 0x76
10004c20:	5ad3      	ldrh	r3, [r2, r3]
10004c22:	4443      	add	r3, r8
10004c24:	b29b      	uxth	r3, r3
10004c26:	4698      	mov	r8, r3
10004c28:	7a53      	ldrb	r3, [r2, #9]
10004c2a:	2b00      	cmp	r3, #0
10004c2c:	d101      	bne.n	10004c32 <_ZN11ST7735_pico12drawFontCharEj+0x49a>
10004c2e:	f000 ff1a 	bl	10005a66 <_ZN11ST7735_pico12drawFontCharEj+0x12ce>
10004c32:	2381      	movs	r3, #129	; 0x81
10004c34:	465a      	mov	r2, fp
10004c36:	5cd2      	ldrb	r2, [r2, r3]
10004c38:	3b80      	subs	r3, #128	; 0x80
10004c3a:	4093      	lsls	r3, r2
10004c3c:	22d0      	movs	r2, #208	; 0xd0
10004c3e:	0612      	lsls	r2, r2, #24
10004c40:	6153      	str	r3, [r2, #20]
10004c42:	465b      	mov	r3, fp
10004c44:	4641      	mov	r1, r8
10004c46:	6858      	ldr	r0, [r3, #4]
10004c48:	f7fb fcbc 	bl	100005c4 <_ZN3SPI7write16Et>
10004c4c:	465a      	mov	r2, fp
10004c4e:	2376      	movs	r3, #118	; 0x76
10004c50:	5ad3      	ldrh	r3, [r2, r3]
10004c52:	4453      	add	r3, sl
10004c54:	b29b      	uxth	r3, r3
10004c56:	4698      	mov	r8, r3
10004c58:	7a53      	ldrb	r3, [r2, #9]
10004c5a:	2b00      	cmp	r3, #0
10004c5c:	d101      	bne.n	10004c62 <_ZN11ST7735_pico12drawFontCharEj+0x4ca>
10004c5e:	f000 feed 	bl	10005a3c <_ZN11ST7735_pico12drawFontCharEj+0x12a4>
10004c62:	2381      	movs	r3, #129	; 0x81
10004c64:	465a      	mov	r2, fp
10004c66:	5cd2      	ldrb	r2, [r2, r3]
10004c68:	3b80      	subs	r3, #128	; 0x80
10004c6a:	4093      	lsls	r3, r2
10004c6c:	22d0      	movs	r2, #208	; 0xd0
10004c6e:	0612      	lsls	r2, r2, #24
10004c70:	6153      	str	r3, [r2, #20]
10004c72:	465b      	mov	r3, fp
10004c74:	4641      	mov	r1, r8
10004c76:	6858      	ldr	r0, [r3, #4]
10004c78:	f7fb fca4 	bl	100005c4 <_ZN3SPI7write16Et>
10004c7c:	465b      	mov	r3, fp
10004c7e:	7a5b      	ldrb	r3, [r3, #9]
10004c80:	2b00      	cmp	r3, #0
10004c82:	d001      	beq.n	10004c88 <_ZN11ST7735_pico12drawFontCharEj+0x4f0>
10004c84:	f000 ff44 	bl	10005b10 <_ZN11ST7735_pico12drawFontCharEj+0x1378>
10004c88:	2381      	movs	r3, #129	; 0x81
10004c8a:	465a      	mov	r2, fp
10004c8c:	5cd2      	ldrb	r2, [r2, r3]
10004c8e:	3b80      	subs	r3, #128	; 0x80
10004c90:	4093      	lsls	r3, r2
10004c92:	22d0      	movs	r2, #208	; 0xd0
10004c94:	0612      	lsls	r2, r2, #24
10004c96:	6193      	str	r3, [r2, #24]
10004c98:	465b      	mov	r3, fp
10004c9a:	212b      	movs	r1, #43	; 0x2b
10004c9c:	6858      	ldr	r0, [r3, #4]
10004c9e:	f7fb fc85 	bl	100005ac <_ZN3SPI5writeEh>
10004ca2:	465a      	mov	r2, fp
10004ca4:	2378      	movs	r3, #120	; 0x78
10004ca6:	5ad3      	ldrh	r3, [r2, r3]
10004ca8:	6afa      	ldr	r2, [r7, #44]	; 0x2c
10004caa:	4694      	mov	ip, r2
10004cac:	4463      	add	r3, ip
10004cae:	b29b      	uxth	r3, r3
10004cb0:	4698      	mov	r8, r3
10004cb2:	465b      	mov	r3, fp
10004cb4:	7a5b      	ldrb	r3, [r3, #9]
10004cb6:	2b00      	cmp	r3, #0
10004cb8:	d101      	bne.n	10004cbe <_ZN11ST7735_pico12drawFontCharEj+0x526>
10004cba:	f000 ff14 	bl	10005ae6 <_ZN11ST7735_pico12drawFontCharEj+0x134e>
10004cbe:	2381      	movs	r3, #129	; 0x81
10004cc0:	465a      	mov	r2, fp
10004cc2:	5cd2      	ldrb	r2, [r2, r3]
10004cc4:	3b80      	subs	r3, #128	; 0x80
10004cc6:	4093      	lsls	r3, r2
10004cc8:	22d0      	movs	r2, #208	; 0xd0
10004cca:	0612      	lsls	r2, r2, #24
10004ccc:	6153      	str	r3, [r2, #20]
10004cce:	465b      	mov	r3, fp
10004cd0:	4641      	mov	r1, r8
10004cd2:	6858      	ldr	r0, [r3, #4]
10004cd4:	f7fb fc76 	bl	100005c4 <_ZN3SPI7write16Et>
10004cd8:	465a      	mov	r2, fp
10004cda:	2378      	movs	r3, #120	; 0x78
10004cdc:	5ad3      	ldrh	r3, [r2, r3]
10004cde:	444b      	add	r3, r9
10004ce0:	b29b      	uxth	r3, r3
10004ce2:	4699      	mov	r9, r3
10004ce4:	7a53      	ldrb	r3, [r2, #9]
10004ce6:	2b00      	cmp	r3, #0
10004ce8:	d101      	bne.n	10004cee <_ZN11ST7735_pico12drawFontCharEj+0x556>
10004cea:	f000 fee7 	bl	10005abc <_ZN11ST7735_pico12drawFontCharEj+0x1324>
10004cee:	2381      	movs	r3, #129	; 0x81
10004cf0:	465a      	mov	r2, fp
10004cf2:	5cd2      	ldrb	r2, [r2, r3]
10004cf4:	3b80      	subs	r3, #128	; 0x80
10004cf6:	4093      	lsls	r3, r2
10004cf8:	22d0      	movs	r2, #208	; 0xd0
10004cfa:	0612      	lsls	r2, r2, #24
10004cfc:	6153      	str	r3, [r2, #20]
10004cfe:	465b      	mov	r3, fp
10004d00:	4649      	mov	r1, r9
10004d02:	6858      	ldr	r0, [r3, #4]
10004d04:	f7fb fc5e 	bl	100005c4 <_ZN3SPI7write16Et>
10004d08:	465b      	mov	r3, fp
10004d0a:	7a5b      	ldrb	r3, [r3, #9]
10004d0c:	2b00      	cmp	r3, #0
10004d0e:	d001      	beq.n	10004d14 <_ZN11ST7735_pico12drawFontCharEj+0x57c>
10004d10:	f000 febe 	bl	10005a90 <_ZN11ST7735_pico12drawFontCharEj+0x12f8>
10004d14:	697b      	ldr	r3, [r7, #20]
10004d16:	60bb      	str	r3, [r7, #8]
10004d18:	42b3      	cmp	r3, r6
10004d1a:	da00      	bge.n	10004d1e <_ZN11ST7735_pico12drawFontCharEj+0x586>
10004d1c:	60be      	str	r6, [r7, #8]
10004d1e:	2381      	movs	r3, #129	; 0x81
10004d20:	465a      	mov	r2, fp
10004d22:	5cd2      	ldrb	r2, [r2, r3]
10004d24:	3b80      	subs	r3, #128	; 0x80
10004d26:	4093      	lsls	r3, r2
10004d28:	22d0      	movs	r2, #208	; 0xd0
10004d2a:	0612      	lsls	r2, r2, #24
10004d2c:	6193      	str	r3, [r2, #24]
10004d2e:	465b      	mov	r3, fp
10004d30:	212c      	movs	r1, #44	; 0x2c
10004d32:	6858      	ldr	r0, [r3, #4]
10004d34:	f7fb fc3a 	bl	100005ac <_ZN3SPI5writeEh>
10004d38:	6c3b      	ldr	r3, [r7, #64]	; 0x40
10004d3a:	6c7a      	ldr	r2, [r7, #68]	; 0x44
10004d3c:	4293      	cmp	r3, r2
10004d3e:	dc00      	bgt.n	10004d42 <_ZN11ST7735_pico12drawFontCharEj+0x5aa>
10004d40:	e2a6      	b.n	10005290 <_ZN11ST7735_pico12drawFontCharEj+0xaf8>
10004d42:	687b      	ldr	r3, [r7, #4]
10004d44:	68ba      	ldr	r2, [r7, #8]
10004d46:	4293      	cmp	r3, r2
10004d48:	da00      	bge.n	10004d4c <_ZN11ST7735_pico12drawFontCharEj+0x5b4>
10004d4a:	e2a1      	b.n	10005290 <_ZN11ST7735_pico12drawFontCharEj+0xaf8>
10004d4c:	2381      	movs	r3, #129	; 0x81
10004d4e:	469a      	mov	sl, r3
10004d50:	68fb      	ldr	r3, [r7, #12]
10004d52:	465c      	mov	r4, fp
10004d54:	469b      	mov	fp, r3
10004d56:	23d0      	movs	r3, #208	; 0xd0
10004d58:	061b      	lsls	r3, r3, #24
10004d5a:	4699      	mov	r9, r3
10004d5c:	68bd      	ldr	r5, [r7, #8]
10004d5e:	e00e      	b.n	10004d7e <_ZN11ST7735_pico12drawFontCharEj+0x5e6>
10004d60:	4653      	mov	r3, sl
10004d62:	2201      	movs	r2, #1
10004d64:	5ce3      	ldrb	r3, [r4, r3]
10004d66:	4641      	mov	r1, r8
10004d68:	409a      	lsls	r2, r3
10004d6a:	0013      	movs	r3, r2
10004d6c:	464a      	mov	r2, r9
10004d6e:	6860      	ldr	r0, [r4, #4]
10004d70:	6153      	str	r3, [r2, #20]
10004d72:	3501      	adds	r5, #1
10004d74:	f7fb fc26 	bl	100005c4 <_ZN3SPI7write16Et>
10004d78:	455d      	cmp	r5, fp
10004d7a:	d100      	bne.n	10004d7e <_ZN11ST7735_pico12drawFontCharEj+0x5e6>
10004d7c:	e280      	b.n	10005280 <_ZN11ST7735_pico12drawFontCharEj+0xae8>
10004d7e:	8ee3      	ldrh	r3, [r4, #54]	; 0x36
10004d80:	4698      	mov	r8, r3
10004d82:	7a63      	ldrb	r3, [r4, #9]
10004d84:	2b00      	cmp	r3, #0
10004d86:	d1eb      	bne.n	10004d60 <_ZN11ST7735_pico12drawFontCharEj+0x5c8>
10004d88:	6860      	ldr	r0, [r4, #4]
10004d8a:	6803      	ldr	r3, [r0, #0]
10004d8c:	691b      	ldr	r3, [r3, #16]
10004d8e:	4798      	blx	r3
10004d90:	2800      	cmp	r0, #0
10004d92:	d1f9      	bne.n	10004d88 <_ZN11ST7735_pico12drawFontCharEj+0x5f0>
10004d94:	2201      	movs	r2, #1
10004d96:	6860      	ldr	r0, [r4, #4]
10004d98:	2110      	movs	r1, #16
10004d9a:	6803      	ldr	r3, [r0, #0]
10004d9c:	9200      	str	r2, [sp, #0]
10004d9e:	695b      	ldr	r3, [r3, #20]
10004da0:	2200      	movs	r2, #0
10004da2:	001e      	movs	r6, r3
10004da4:	2300      	movs	r3, #0
10004da6:	47b0      	blx	r6
10004da8:	2301      	movs	r3, #1
10004daa:	7263      	strb	r3, [r4, #9]
10004dac:	e7d8      	b.n	10004d60 <_ZN11ST7735_pico12drawFontCharEj+0x5c8>
10004dae:	693b      	ldr	r3, [r7, #16]
10004db0:	469c      	mov	ip, r3
10004db2:	465b      	mov	r3, fp
10004db4:	4465      	add	r5, ip
10004db6:	815d      	strh	r5, [r3, #10]
10004db8:	46bd      	mov	sp, r7
10004dba:	b015      	add	sp, #84	; 0x54
10004dbc:	bcf0      	pop	{r4, r5, r6, r7}
10004dbe:	46bb      	mov	fp, r7
10004dc0:	46b2      	mov	sl, r6
10004dc2:	46a9      	mov	r9, r5
10004dc4:	46a0      	mov	r8, r4
10004dc6:	bdf0      	pop	{r4, r5, r6, r7, pc}
10004dc8:	2348      	movs	r3, #72	; 0x48
10004dca:	4659      	mov	r1, fp
10004dcc:	5ccb      	ldrb	r3, [r1, r3]
10004dce:	2b00      	cmp	r3, #0
10004dd0:	d001      	beq.n	10004dd6 <_ZN11ST7735_pico12drawFontCharEj+0x63e>
10004dd2:	f000 fc18 	bl	10005606 <_ZN11ST7735_pico12drawFontCharEj+0xe6e>
10004dd6:	2332      	movs	r3, #50	; 0x32
10004dd8:	5ccb      	ldrb	r3, [r1, r3]
10004dda:	2b00      	cmp	r3, #0
10004ddc:	d119      	bne.n	10004e12 <_ZN11ST7735_pico12drawFontCharEj+0x67a>
10004dde:	220c      	movs	r2, #12
10004de0:	5e8b      	ldrsh	r3, [r1, r2]
10004de2:	e670      	b.n	10004ac6 <_ZN11ST7735_pico12drawFontCharEj+0x32e>
10004de4:	64fe      	str	r6, [r7, #76]	; 0x4c
10004de6:	e55b      	b.n	100048a0 <_ZN11ST7735_pico12drawFontCharEj+0x108>
10004de8:	4653      	mov	r3, sl
10004dea:	46a2      	mov	sl, r4
10004dec:	465c      	mov	r4, fp
10004dee:	469b      	mov	fp, r3
10004df0:	e5f1      	b.n	100049d6 <_ZN11ST7735_pico12drawFontCharEj+0x23e>
10004df2:	465b      	mov	r3, fp
10004df4:	613c      	str	r4, [r7, #16]
10004df6:	220a      	movs	r2, #10
10004df8:	5e9b      	ldrsh	r3, [r3, r2]
10004dfa:	4664      	mov	r4, ip
10004dfc:	2b00      	cmp	r3, #0
10004dfe:	db00      	blt.n	10004e02 <_ZN11ST7735_pico12drawFontCharEj+0x66a>
10004e00:	e62d      	b.n	10004a5e <_ZN11ST7735_pico12drawFontCharEj+0x2c6>
10004e02:	465a      	mov	r2, fp
10004e04:	2300      	movs	r3, #0
10004e06:	643c      	str	r4, [r7, #64]	; 0x40
10004e08:	8153      	strh	r3, [r2, #10]
10004e0a:	0022      	movs	r2, r4
10004e0c:	e629      	b.n	10004a62 <_ZN11ST7735_pico12drawFontCharEj+0x2ca>
10004e0e:	63fe      	str	r6, [r7, #60]	; 0x3c
10004e10:	e573      	b.n	100048fa <_ZN11ST7735_pico12drawFontCharEj+0x162>
10004e12:	220c      	movs	r2, #12
10004e14:	5e8b      	ldrsh	r3, [r1, r2]
10004e16:	2233      	movs	r2, #51	; 0x33
10004e18:	5c8a      	ldrb	r2, [r1, r2]
10004e1a:	2a00      	cmp	r2, #0
10004e1c:	d100      	bne.n	10004e20 <_ZN11ST7735_pico12drawFontCharEj+0x688>
10004e1e:	e652      	b.n	10004ac6 <_ZN11ST7735_pico12drawFontCharEj+0x32e>
10004e20:	465a      	mov	r2, fp
10004e22:	212c      	movs	r1, #44	; 0x2c
10004e24:	5e51      	ldrsh	r1, [r2, r1]
10004e26:	465a      	mov	r2, fp
10004e28:	6c78      	ldr	r0, [r7, #68]	; 0x44
10004e2a:	2430      	movs	r4, #48	; 0x30
10004e2c:	5f14      	ldrsh	r4, [r2, r4]
10004e2e:	7e40      	ldrb	r0, [r0, #25]
10004e30:	190a      	adds	r2, r1, r4
10004e32:	468c      	mov	ip, r1
10004e34:	1a10      	subs	r0, r2, r0
10004e36:	4283      	cmp	r3, r0
10004e38:	dc00      	bgt.n	10004e3c <_ZN11ST7735_pico12drawFontCharEj+0x6a4>
10004e3a:	e644      	b.n	10004ac6 <_ZN11ST7735_pico12drawFontCharEj+0x32e>
10004e3c:	6c7b      	ldr	r3, [r7, #68]	; 0x44
10004e3e:	466e      	mov	r6, sp
10004e40:	7e1d      	ldrb	r5, [r3, #24]
10004e42:	465b      	mov	r3, fp
10004e44:	212e      	movs	r1, #46	; 0x2e
10004e46:	5e5b      	ldrsh	r3, [r3, r1]
10004e48:	0058      	lsls	r0, r3, #1
10004e4a:	3007      	adds	r0, #7
10004e4c:	08c0      	lsrs	r0, r0, #3
10004e4e:	00c0      	lsls	r0, r0, #3
10004e50:	1a30      	subs	r0, r6, r0
10004e52:	4685      	mov	sp, r0
10004e54:	a904      	add	r1, sp, #16
10004e56:	4688      	mov	r8, r1
10004e58:	4661      	mov	r1, ip
10004e5a:	1949      	adds	r1, r1, r5
10004e5c:	42ac      	cmp	r4, r5
10004e5e:	dc01      	bgt.n	10004e64 <_ZN11ST7735_pico12drawFontCharEj+0x6cc>
10004e60:	f000 fe6c 	bl	10005b3c <_ZN11ST7735_pico12drawFontCharEj+0x13a4>
10004e64:	1c4c      	adds	r4, r1, #1
10004e66:	b2aa      	uxth	r2, r5
10004e68:	1b49      	subs	r1, r1, r5
10004e6a:	647a      	str	r2, [r7, #68]	; 0x44
10004e6c:	1b0a      	subs	r2, r1, r4
10004e6e:	4691      	mov	r9, r2
10004e70:	465a      	mov	r2, fp
10004e72:	46ab      	mov	fp, r5
10004e74:	0025      	movs	r5, r4
10004e76:	0014      	movs	r4, r2
10004e78:	e002      	b.n	10004e80 <_ZN11ST7735_pico12drawFontCharEj+0x6e8>
10004e7a:	222e      	movs	r2, #46	; 0x2e
10004e7c:	5ea3      	ldrsh	r3, [r4, r2]
10004e7e:	3501      	adds	r5, #1
10004e80:	202a      	movs	r0, #42	; 0x2a
10004e82:	5e21      	ldrsh	r1, [r4, r0]
10004e84:	4640      	mov	r0, r8
10004e86:	464a      	mov	r2, r9
10004e88:	9001      	str	r0, [sp, #4]
10004e8a:	2001      	movs	r0, #1
10004e8c:	1952      	adds	r2, r2, r5
10004e8e:	b212      	sxth	r2, r2
10004e90:	9000      	str	r0, [sp, #0]
10004e92:	0020      	movs	r0, r4
10004e94:	f7fc fef4 	bl	10001c80 <_ZN11ST7735_pico9writeRectEssssPKt>
10004e98:	232c      	movs	r3, #44	; 0x2c
10004e9a:	5ee2      	ldrsh	r2, [r4, r3]
10004e9c:	2130      	movs	r1, #48	; 0x30
10004e9e:	5e63      	ldrsh	r3, [r4, r1]
10004ea0:	18d2      	adds	r2, r2, r3
10004ea2:	42aa      	cmp	r2, r5
10004ea4:	dce9      	bgt.n	10004e7a <_ZN11ST7735_pico12drawFontCharEj+0x6e2>
10004ea6:	465d      	mov	r5, fp
10004ea8:	46a3      	mov	fp, r4
10004eaa:	212e      	movs	r1, #46	; 0x2e
10004eac:	5e63      	ldrsh	r3, [r4, r1]
10004eae:	6c79      	ldr	r1, [r7, #68]	; 0x44
10004eb0:	b22d      	sxth	r5, r5
10004eb2:	1a52      	subs	r2, r2, r1
10004eb4:	4659      	mov	r1, fp
10004eb6:	202a      	movs	r0, #42	; 0x2a
10004eb8:	5e09      	ldrsh	r1, [r1, r0]
10004eba:	4658      	mov	r0, fp
10004ebc:	8f00      	ldrh	r0, [r0, #56]	; 0x38
10004ebe:	b212      	sxth	r2, r2
10004ec0:	9001      	str	r0, [sp, #4]
10004ec2:	9500      	str	r5, [sp, #0]
10004ec4:	4658      	mov	r0, fp
10004ec6:	f7fc fcfb 	bl	100018c0 <_ZN11ST7735_pico8fillRectEsssst>
10004eca:	465b      	mov	r3, fp
10004ecc:	6cdb      	ldr	r3, [r3, #76]	; 0x4c
10004ece:	4659      	mov	r1, fp
10004ed0:	647b      	str	r3, [r7, #68]	; 0x44
10004ed2:	7e1a      	ldrb	r2, [r3, #24]
10004ed4:	465b      	mov	r3, fp
10004ed6:	899b      	ldrh	r3, [r3, #12]
10004ed8:	46b5      	mov	sp, r6
10004eda:	1a9b      	subs	r3, r3, r2
10004edc:	465a      	mov	r2, fp
10004ede:	b21b      	sxth	r3, r3
10004ee0:	8193      	strh	r3, [r2, #12]
10004ee2:	8d52      	ldrh	r2, [r2, #42]	; 0x2a
10004ee4:	814a      	strh	r2, [r1, #10]
10004ee6:	e5ee      	b.n	10004ac6 <_ZN11ST7735_pico12drawFontCharEj+0x32e>
10004ee8:	2350      	movs	r3, #80	; 0x50
10004eea:	465a      	mov	r2, fp
10004eec:	5cd3      	ldrb	r3, [r2, r3]
10004eee:	2b01      	cmp	r3, #1
10004ef0:	d800      	bhi.n	10004ef4 <_ZN11ST7735_pico12drawFontCharEj+0x75c>
10004ef2:	e12f      	b.n	10005154 <_ZN11ST7735_pico12drawFontCharEj+0x9bc>
10004ef4:	2201      	movs	r2, #1
10004ef6:	3b01      	subs	r3, #1
10004ef8:	2107      	movs	r1, #7
10004efa:	409a      	lsls	r2, r3
10004efc:	6bbd      	ldr	r5, [r7, #56]	; 0x38
10004efe:	0013      	movs	r3, r2
10004f00:	3507      	adds	r5, #7
10004f02:	438d      	bics	r5, r1
10004f04:	2800      	cmp	r0, #0
10004f06:	d100      	bne.n	10004f0a <_ZN11ST7735_pico12drawFontCharEj+0x772>
10004f08:	e101      	b.n	1000510e <_ZN11ST7735_pico12drawFontCharEj+0x976>
10004f0a:	6cfa      	ldr	r2, [r7, #76]	; 0x4c
10004f0c:	2a00      	cmp	r2, #0
10004f0e:	d100      	bne.n	10004f12 <_ZN11ST7735_pico12drawFontCharEj+0x77a>
10004f10:	e0fd      	b.n	1000510e <_ZN11ST7735_pico12drawFontCharEj+0x976>
10004f12:	2200      	movs	r2, #0
10004f14:	63fa      	str	r2, [r7, #60]	; 0x3c
10004f16:	32ff      	adds	r2, #255	; 0xff
10004f18:	401a      	ands	r2, r3
10004f1a:	4684      	mov	ip, r0
10004f1c:	4643      	mov	r3, r8
10004f1e:	46aa      	mov	sl, r5
10004f20:	465c      	mov	r4, fp
10004f22:	4463      	add	r3, ip
10004f24:	63ba      	str	r2, [r7, #56]	; 0x38
10004f26:	62fb      	str	r3, [r7, #44]	; 0x2c
10004f28:	2350      	movs	r3, #80	; 0x50
10004f2a:	5ce3      	ldrb	r3, [r4, r3]
10004f2c:	6aba      	ldr	r2, [r7, #40]	; 0x28
10004f2e:	4698      	mov	r8, r3
10004f30:	2300      	movs	r3, #0
10004f32:	4699      	mov	r9, r3
10004f34:	3353      	adds	r3, #83	; 0x53
10004f36:	469b      	mov	fp, r3
10004f38:	6afb      	ldr	r3, [r7, #44]	; 0x2c
10004f3a:	464d      	mov	r5, r9
10004f3c:	1a9b      	subs	r3, r3, r2
10004f3e:	637b      	str	r3, [r7, #52]	; 0x34
10004f40:	4653      	mov	r3, sl
10004f42:	647b      	str	r3, [r7, #68]	; 0x44
10004f44:	465b      	mov	r3, fp
10004f46:	5ce1      	ldrb	r1, [r4, r3]
10004f48:	6c7b      	ldr	r3, [r7, #68]	; 0x44
10004f4a:	6cba      	ldr	r2, [r7, #72]	; 0x48
10004f4c:	08db      	lsrs	r3, r3, #3
10004f4e:	5cd3      	ldrb	r3, [r2, r3]
10004f50:	469a      	mov	sl, r3
10004f52:	1e4b      	subs	r3, r1, #1
10004f54:	4699      	mov	r9, r3
10004f56:	6bfb      	ldr	r3, [r7, #60]	; 0x3c
10004f58:	1958      	adds	r0, r3, r5
10004f5a:	f003 faf5 	bl	10008548 <__wrap___aeabi_uidiv>
10004f5e:	464b      	mov	r3, r9
10004f60:	4642      	mov	r2, r8
10004f62:	1a5b      	subs	r3, r3, r1
10004f64:	4353      	muls	r3, r2
10004f66:	4652      	mov	r2, sl
10004f68:	b2db      	uxtb	r3, r3
10004f6a:	411a      	asrs	r2, r3
10004f6c:	2352      	movs	r3, #82	; 0x52
10004f6e:	5ce3      	ldrb	r3, [r4, r3]
10004f70:	4013      	ands	r3, r2
10004f72:	6bba      	ldr	r2, [r7, #56]	; 0x38
10004f74:	4293      	cmp	r3, r2
10004f76:	d200      	bcs.n	10004f7a <_ZN11ST7735_pico12drawFontCharEj+0x7e2>
10004f78:	e0b3      	b.n	100050e2 <_ZN11ST7735_pico12drawFontCharEj+0x94a>
10004f7a:	6c3a      	ldr	r2, [r7, #64]	; 0x40
10004f7c:	8b23      	ldrh	r3, [r4, #24]
10004f7e:	4694      	mov	ip, r2
10004f80:	4463      	add	r3, ip
10004f82:	195b      	adds	r3, r3, r5
10004f84:	b29a      	uxth	r2, r3
10004f86:	4691      	mov	r9, r2
10004f88:	211c      	movs	r1, #28
10004f8a:	5e62      	ldrsh	r2, [r4, r1]
10004f8c:	b21b      	sxth	r3, r3
10004f8e:	429a      	cmp	r2, r3
10004f90:	dd00      	ble.n	10004f94 <_ZN11ST7735_pico12drawFontCharEj+0x7fc>
10004f92:	e0a6      	b.n	100050e2 <_ZN11ST7735_pico12drawFontCharEj+0x94a>
10004f94:	2120      	movs	r1, #32
10004f96:	5e62      	ldrsh	r2, [r4, r1]
10004f98:	429a      	cmp	r2, r3
10004f9a:	dc00      	bgt.n	10004f9e <_ZN11ST7735_pico12drawFontCharEj+0x806>
10004f9c:	e0a1      	b.n	100050e2 <_ZN11ST7735_pico12drawFontCharEj+0x94a>
10004f9e:	6b7a      	ldr	r2, [r7, #52]	; 0x34
10004fa0:	8b63      	ldrh	r3, [r4, #26]
10004fa2:	4694      	mov	ip, r2
10004fa4:	4463      	add	r3, ip
10004fa6:	b29a      	uxth	r2, r3
10004fa8:	4692      	mov	sl, r2
10004faa:	211e      	movs	r1, #30
10004fac:	5e62      	ldrsh	r2, [r4, r1]
10004fae:	b21b      	sxth	r3, r3
10004fb0:	429a      	cmp	r2, r3
10004fb2:	dd00      	ble.n	10004fb6 <_ZN11ST7735_pico12drawFontCharEj+0x81e>
10004fb4:	e095      	b.n	100050e2 <_ZN11ST7735_pico12drawFontCharEj+0x94a>
10004fb6:	2122      	movs	r1, #34	; 0x22
10004fb8:	5e62      	ldrsh	r2, [r4, r1]
10004fba:	429a      	cmp	r2, r3
10004fbc:	dc00      	bgt.n	10004fc0 <_ZN11ST7735_pico12drawFontCharEj+0x828>
10004fbe:	e090      	b.n	100050e2 <_ZN11ST7735_pico12drawFontCharEj+0x94a>
10004fc0:	8ea3      	ldrh	r3, [r4, #52]	; 0x34
10004fc2:	633b      	str	r3, [r7, #48]	; 0x30
10004fc4:	7a63      	ldrb	r3, [r4, #9]
10004fc6:	2b00      	cmp	r3, #0
10004fc8:	d000      	beq.n	10004fcc <_ZN11ST7735_pico12drawFontCharEj+0x834>
10004fca:	e2f5      	b.n	100055b8 <_ZN11ST7735_pico12drawFontCharEj+0xe20>
10004fcc:	2381      	movs	r3, #129	; 0x81
10004fce:	5ce2      	ldrb	r2, [r4, r3]
10004fd0:	3b80      	subs	r3, #128	; 0x80
10004fd2:	4093      	lsls	r3, r2
10004fd4:	22d0      	movs	r2, #208	; 0xd0
10004fd6:	0612      	lsls	r2, r2, #24
10004fd8:	6193      	str	r3, [r2, #24]
10004fda:	212a      	movs	r1, #42	; 0x2a
10004fdc:	6860      	ldr	r0, [r4, #4]
10004fde:	f7fb fae5 	bl	100005ac <_ZN3SPI5writeEh>
10004fe2:	2376      	movs	r3, #118	; 0x76
10004fe4:	5ae3      	ldrh	r3, [r4, r3]
10004fe6:	444b      	add	r3, r9
10004fe8:	b29b      	uxth	r3, r3
10004fea:	4698      	mov	r8, r3
10004fec:	7a63      	ldrb	r3, [r4, #9]
10004fee:	2b00      	cmp	r3, #0
10004ff0:	d100      	bne.n	10004ff4 <_ZN11ST7735_pico12drawFontCharEj+0x85c>
10004ff2:	e2cc      	b.n	1000558e <_ZN11ST7735_pico12drawFontCharEj+0xdf6>
10004ff4:	2381      	movs	r3, #129	; 0x81
10004ff6:	5ce2      	ldrb	r2, [r4, r3]
10004ff8:	3b80      	subs	r3, #128	; 0x80
10004ffa:	4093      	lsls	r3, r2
10004ffc:	22d0      	movs	r2, #208	; 0xd0
10004ffe:	0612      	lsls	r2, r2, #24
10005000:	6153      	str	r3, [r2, #20]
10005002:	4641      	mov	r1, r8
10005004:	6860      	ldr	r0, [r4, #4]
10005006:	f7fb fadd 	bl	100005c4 <_ZN3SPI7write16Et>
1000500a:	2376      	movs	r3, #118	; 0x76
1000500c:	5ae3      	ldrh	r3, [r4, r3]
1000500e:	444b      	add	r3, r9
10005010:	b29b      	uxth	r3, r3
10005012:	4699      	mov	r9, r3
10005014:	7a63      	ldrb	r3, [r4, #9]
10005016:	2b00      	cmp	r3, #0
10005018:	d100      	bne.n	1000501c <_ZN11ST7735_pico12drawFontCharEj+0x884>
1000501a:	e2a2      	b.n	10005562 <_ZN11ST7735_pico12drawFontCharEj+0xdca>
1000501c:	2381      	movs	r3, #129	; 0x81
1000501e:	5ce2      	ldrb	r2, [r4, r3]
10005020:	3b80      	subs	r3, #128	; 0x80
10005022:	4093      	lsls	r3, r2
10005024:	22d0      	movs	r2, #208	; 0xd0
10005026:	0612      	lsls	r2, r2, #24
10005028:	6153      	str	r3, [r2, #20]
1000502a:	4649      	mov	r1, r9
1000502c:	6860      	ldr	r0, [r4, #4]
1000502e:	f7fb fac9 	bl	100005c4 <_ZN3SPI7write16Et>
10005032:	7a63      	ldrb	r3, [r4, #9]
10005034:	2b00      	cmp	r3, #0
10005036:	d000      	beq.n	1000503a <_ZN11ST7735_pico12drawFontCharEj+0x8a2>
10005038:	e27d      	b.n	10005536 <_ZN11ST7735_pico12drawFontCharEj+0xd9e>
1000503a:	2381      	movs	r3, #129	; 0x81
1000503c:	5ce2      	ldrb	r2, [r4, r3]
1000503e:	3b80      	subs	r3, #128	; 0x80
10005040:	4093      	lsls	r3, r2
10005042:	22d0      	movs	r2, #208	; 0xd0
10005044:	0612      	lsls	r2, r2, #24
10005046:	6193      	str	r3, [r2, #24]
10005048:	212b      	movs	r1, #43	; 0x2b
1000504a:	6860      	ldr	r0, [r4, #4]
1000504c:	f7fb faae 	bl	100005ac <_ZN3SPI5writeEh>
10005050:	2378      	movs	r3, #120	; 0x78
10005052:	5ae3      	ldrh	r3, [r4, r3]
10005054:	4453      	add	r3, sl
10005056:	b29b      	uxth	r3, r3
10005058:	4698      	mov	r8, r3
1000505a:	7a63      	ldrb	r3, [r4, #9]
1000505c:	2b00      	cmp	r3, #0
1000505e:	d100      	bne.n	10005062 <_ZN11ST7735_pico12drawFontCharEj+0x8ca>
10005060:	e253      	b.n	1000550a <_ZN11ST7735_pico12drawFontCharEj+0xd72>
10005062:	2381      	movs	r3, #129	; 0x81
10005064:	5ce2      	ldrb	r2, [r4, r3]
10005066:	3b80      	subs	r3, #128	; 0x80
10005068:	4093      	lsls	r3, r2
1000506a:	22d0      	movs	r2, #208	; 0xd0
1000506c:	0612      	lsls	r2, r2, #24
1000506e:	4641      	mov	r1, r8
10005070:	6153      	str	r3, [r2, #20]
10005072:	6860      	ldr	r0, [r4, #4]
10005074:	f7fb faa6 	bl	100005c4 <_ZN3SPI7write16Et>
10005078:	2378      	movs	r3, #120	; 0x78
1000507a:	5ae3      	ldrh	r3, [r4, r3]
1000507c:	4453      	add	r3, sl
1000507e:	b29b      	uxth	r3, r3
10005080:	4698      	mov	r8, r3
10005082:	7a63      	ldrb	r3, [r4, #9]
10005084:	2b00      	cmp	r3, #0
10005086:	d100      	bne.n	1000508a <_ZN11ST7735_pico12drawFontCharEj+0x8f2>
10005088:	e229      	b.n	100054de <_ZN11ST7735_pico12drawFontCharEj+0xd46>
1000508a:	2381      	movs	r3, #129	; 0x81
1000508c:	5ce2      	ldrb	r2, [r4, r3]
1000508e:	3b80      	subs	r3, #128	; 0x80
10005090:	4093      	lsls	r3, r2
10005092:	22d0      	movs	r2, #208	; 0xd0
10005094:	0612      	lsls	r2, r2, #24
10005096:	6153      	str	r3, [r2, #20]
10005098:	4641      	mov	r1, r8
1000509a:	6860      	ldr	r0, [r4, #4]
1000509c:	f7fb fa92 	bl	100005c4 <_ZN3SPI7write16Et>
100050a0:	7a63      	ldrb	r3, [r4, #9]
100050a2:	2b00      	cmp	r3, #0
100050a4:	d000      	beq.n	100050a8 <_ZN11ST7735_pico12drawFontCharEj+0x910>
100050a6:	e204      	b.n	100054b2 <_ZN11ST7735_pico12drawFontCharEj+0xd1a>
100050a8:	2381      	movs	r3, #129	; 0x81
100050aa:	5ce2      	ldrb	r2, [r4, r3]
100050ac:	3b80      	subs	r3, #128	; 0x80
100050ae:	4093      	lsls	r3, r2
100050b0:	22d0      	movs	r2, #208	; 0xd0
100050b2:	0612      	lsls	r2, r2, #24
100050b4:	6193      	str	r3, [r2, #24]
100050b6:	212c      	movs	r1, #44	; 0x2c
100050b8:	6860      	ldr	r0, [r4, #4]
100050ba:	f7fb fa77 	bl	100005ac <_ZN3SPI5writeEh>
100050be:	7a63      	ldrb	r3, [r4, #9]
100050c0:	2b00      	cmp	r3, #0
100050c2:	d100      	bne.n	100050c6 <_ZN11ST7735_pico12drawFontCharEj+0x92e>
100050c4:	e1df      	b.n	10005486 <_ZN11ST7735_pico12drawFontCharEj+0xcee>
100050c6:	2381      	movs	r3, #129	; 0x81
100050c8:	5ce2      	ldrb	r2, [r4, r3]
100050ca:	3b80      	subs	r3, #128	; 0x80
100050cc:	4093      	lsls	r3, r2
100050ce:	22d0      	movs	r2, #208	; 0xd0
100050d0:	0612      	lsls	r2, r2, #24
100050d2:	6153      	str	r3, [r2, #20]
100050d4:	6b39      	ldr	r1, [r7, #48]	; 0x30
100050d6:	6860      	ldr	r0, [r4, #4]
100050d8:	f7fb fa74 	bl	100005c4 <_ZN3SPI7write16Et>
100050dc:	2350      	movs	r3, #80	; 0x50
100050de:	5ce3      	ldrb	r3, [r4, r3]
100050e0:	4698      	mov	r8, r3
100050e2:	6c7b      	ldr	r3, [r7, #68]	; 0x44
100050e4:	3501      	adds	r5, #1
100050e6:	4443      	add	r3, r8
100050e8:	647b      	str	r3, [r7, #68]	; 0x44
100050ea:	6cfb      	ldr	r3, [r7, #76]	; 0x4c
100050ec:	429d      	cmp	r5, r3
100050ee:	d000      	beq.n	100050f2 <_ZN11ST7735_pico12drawFontCharEj+0x95a>
100050f0:	e728      	b.n	10004f44 <_ZN11ST7735_pico12drawFontCharEj+0x7ac>
100050f2:	001a      	movs	r2, r3
100050f4:	4694      	mov	ip, r2
100050f6:	6c7b      	ldr	r3, [r7, #68]	; 0x44
100050f8:	469a      	mov	sl, r3
100050fa:	6bfb      	ldr	r3, [r7, #60]	; 0x3c
100050fc:	4463      	add	r3, ip
100050fe:	63fb      	str	r3, [r7, #60]	; 0x3c
10005100:	6abb      	ldr	r3, [r7, #40]	; 0x28
10005102:	3b01      	subs	r3, #1
10005104:	62bb      	str	r3, [r7, #40]	; 0x28
10005106:	2b00      	cmp	r3, #0
10005108:	d000      	beq.n	1000510c <_ZN11ST7735_pico12drawFontCharEj+0x974>
1000510a:	e70d      	b.n	10004f28 <_ZN11ST7735_pico12drawFontCharEj+0x790>
1000510c:	46a3      	mov	fp, r4
1000510e:	693a      	ldr	r2, [r7, #16]
10005110:	465b      	mov	r3, fp
10005112:	4694      	mov	ip, r2
10005114:	465a      	mov	r2, fp
10005116:	895b      	ldrh	r3, [r3, #10]
10005118:	4463      	add	r3, ip
1000511a:	8153      	strh	r3, [r2, #10]
1000511c:	e64c      	b.n	10004db8 <_ZN11ST7735_pico12drawFontCharEj+0x620>
1000511e:	6179      	str	r1, [r7, #20]
10005120:	e515      	b.n	10004b4e <_ZN11ST7735_pico12drawFontCharEj+0x3b6>
10005122:	4659      	mov	r1, fp
10005124:	202a      	movs	r0, #42	; 0x2a
10005126:	5e09      	ldrsh	r1, [r1, r0]
10005128:	4658      	mov	r0, fp
1000512a:	252e      	movs	r5, #46	; 0x2e
1000512c:	5f40      	ldrsh	r0, [r0, r5]
1000512e:	1840      	adds	r0, r0, r1
10005130:	4290      	cmp	r0, r2
10005132:	db00      	blt.n	10005136 <_ZN11ST7735_pico12drawFontCharEj+0x99e>
10005134:	e674      	b.n	10004e20 <_ZN11ST7735_pico12drawFontCharEj+0x688>
10005136:	2c00      	cmp	r4, #0
10005138:	da01      	bge.n	1000513e <_ZN11ST7735_pico12drawFontCharEj+0x9a6>
1000513a:	4261      	negs	r1, r4
1000513c:	b209      	sxth	r1, r1
1000513e:	465a      	mov	r2, fp
10005140:	8151      	strh	r1, [r2, #10]
10005142:	6c7a      	ldr	r2, [r7, #68]	; 0x44
10005144:	7e12      	ldrb	r2, [r2, #24]
10005146:	18d3      	adds	r3, r2, r3
10005148:	465a      	mov	r2, fp
1000514a:	b21b      	sxth	r3, r3
1000514c:	8193      	strh	r3, [r2, #12]
1000514e:	2200      	movs	r2, #0
10005150:	643a      	str	r2, [r7, #64]	; 0x40
10005152:	e665      	b.n	10004e20 <_ZN11ST7735_pico12drawFontCharEj+0x688>
10005154:	2800      	cmp	r0, #0
10005156:	ddda      	ble.n	1000510e <_ZN11ST7735_pico12drawFontCharEj+0x976>
10005158:	2308      	movs	r3, #8
1000515a:	2507      	movs	r5, #7
1000515c:	4698      	mov	r8, r3
1000515e:	63fa      	str	r2, [r7, #60]	; 0x3c
10005160:	002a      	movs	r2, r5
10005162:	6bb9      	ldr	r1, [r7, #56]	; 0x38
10005164:	6cbc      	ldr	r4, [r7, #72]	; 0x48
10005166:	08cb      	lsrs	r3, r1, #3
10005168:	5ce3      	ldrb	r3, [r4, r3]
1000516a:	438a      	bics	r2, r1
1000516c:	4113      	asrs	r3, r2
1000516e:	2201      	movs	r2, #1
10005170:	1c48      	adds	r0, r1, #1
10005172:	647a      	str	r2, [r7, #68]	; 0x44
10005174:	421a      	tst	r2, r3
10005176:	d02c      	beq.n	100051d2 <_ZN11ST7735_pico12drawFontCharEj+0xa3a>
10005178:	2300      	movs	r3, #0
1000517a:	2603      	movs	r6, #3
1000517c:	46a4      	mov	ip, r4
1000517e:	e011      	b.n	100051a4 <_ZN11ST7735_pico12drawFontCharEj+0xa0c>
10005180:	4093      	lsls	r3, r2
10005182:	469b      	mov	fp, r3
10005184:	2301      	movs	r3, #1
10005186:	4093      	lsls	r3, r2
10005188:	4699      	mov	r9, r3
1000518a:	2301      	movs	r3, #1
1000518c:	425b      	negs	r3, r3
1000518e:	469a      	mov	sl, r3
10005190:	44d1      	add	r9, sl
10005192:	464b      	mov	r3, r9
10005194:	401c      	ands	r4, r3
10005196:	465b      	mov	r3, fp
10005198:	3908      	subs	r1, #8
1000519a:	1876      	adds	r6, r6, r1
1000519c:	4323      	orrs	r3, r4
1000519e:	1880      	adds	r0, r0, r2
100051a0:	2e00      	cmp	r6, #0
100051a2:	d012      	beq.n	100051ca <_ZN11ST7735_pico12drawFontCharEj+0xa32>
100051a4:	4661      	mov	r1, ip
100051a6:	08c2      	lsrs	r2, r0, #3
100051a8:	5c8c      	ldrb	r4, [r1, r2]
100051aa:	0029      	movs	r1, r5
100051ac:	4642      	mov	r2, r8
100051ae:	4001      	ands	r1, r0
100051b0:	1a52      	subs	r2, r2, r1
100051b2:	42b2      	cmp	r2, r6
100051b4:	d9e4      	bls.n	10005180 <_ZN11ST7735_pico12drawFontCharEj+0x9e8>
100051b6:	0021      	movs	r1, r4
100051b8:	1b92      	subs	r2, r2, r6
100051ba:	4111      	asrs	r1, r2
100051bc:	000a      	movs	r2, r1
100051be:	2101      	movs	r1, #1
100051c0:	40b1      	lsls	r1, r6
100051c2:	40b3      	lsls	r3, r6
100051c4:	3901      	subs	r1, #1
100051c6:	400a      	ands	r2, r1
100051c8:	4313      	orrs	r3, r2
100051ca:	6bb8      	ldr	r0, [r7, #56]	; 0x38
100051cc:	3302      	adds	r3, #2
100051ce:	647b      	str	r3, [r7, #68]	; 0x44
100051d0:	3004      	adds	r0, #4
100051d2:	2300      	movs	r3, #0
100051d4:	4699      	mov	r9, r3
100051d6:	63b8      	str	r0, [r7, #56]	; 0x38
100051d8:	464a      	mov	r2, r9
100051da:	6cfb      	ldr	r3, [r7, #76]	; 0x4c
100051dc:	1a9b      	subs	r3, r3, r2
100051de:	469b      	mov	fp, r3
100051e0:	2b20      	cmp	r3, #32
100051e2:	dd01      	ble.n	100051e8 <_ZN11ST7735_pico12drawFontCharEj+0xa50>
100051e4:	2320      	movs	r3, #32
100051e6:	469b      	mov	fp, r3
100051e8:	6bbb      	ldr	r3, [r7, #56]	; 0x38
100051ea:	465e      	mov	r6, fp
100051ec:	469a      	mov	sl, r3
100051ee:	6cbb      	ldr	r3, [r7, #72]	; 0x48
100051f0:	2200      	movs	r2, #0
100051f2:	469c      	mov	ip, r3
100051f4:	4650      	mov	r0, sl
100051f6:	e00c      	b.n	10005212 <_ZN11ST7735_pico12drawFontCharEj+0xa7a>
100051f8:	408a      	lsls	r2, r1
100051fa:	4692      	mov	sl, r2
100051fc:	2201      	movs	r2, #1
100051fe:	408a      	lsls	r2, r1
10005200:	3a01      	subs	r2, #1
10005202:	4022      	ands	r2, r4
10005204:	4654      	mov	r4, sl
10005206:	3b08      	subs	r3, #8
10005208:	18f6      	adds	r6, r6, r3
1000520a:	4322      	orrs	r2, r4
1000520c:	1840      	adds	r0, r0, r1
1000520e:	2e00      	cmp	r6, #0
10005210:	d011      	beq.n	10005236 <_ZN11ST7735_pico12drawFontCharEj+0xa9e>
10005212:	4661      	mov	r1, ip
10005214:	08c3      	lsrs	r3, r0, #3
10005216:	5ccc      	ldrb	r4, [r1, r3]
10005218:	002b      	movs	r3, r5
1000521a:	4641      	mov	r1, r8
1000521c:	4003      	ands	r3, r0
1000521e:	1ac9      	subs	r1, r1, r3
10005220:	42b1      	cmp	r1, r6
10005222:	d9e9      	bls.n	100051f8 <_ZN11ST7735_pico12drawFontCharEj+0xa60>
10005224:	0023      	movs	r3, r4
10005226:	1b89      	subs	r1, r1, r6
10005228:	410b      	asrs	r3, r1
1000522a:	2101      	movs	r1, #1
1000522c:	40b1      	lsls	r1, r6
1000522e:	40b2      	lsls	r2, r6
10005230:	3901      	subs	r1, #1
10005232:	400b      	ands	r3, r1
10005234:	431a      	orrs	r2, r3
10005236:	6c7b      	ldr	r3, [r7, #68]	; 0x44
10005238:	2100      	movs	r1, #0
1000523a:	9302      	str	r3, [sp, #8]
1000523c:	6b7b      	ldr	r3, [r7, #52]	; 0x34
1000523e:	9301      	str	r3, [sp, #4]
10005240:	6c3b      	ldr	r3, [r7, #64]	; 0x40
10005242:	444b      	add	r3, r9
10005244:	9300      	str	r3, [sp, #0]
10005246:	6bf8      	ldr	r0, [r7, #60]	; 0x3c
10005248:	465b      	mov	r3, fp
1000524a:	f7ff f9f7 	bl	1000463c <_ZN11ST7735_pico12drawFontBitsEbmmllm>
1000524e:	6bbb      	ldr	r3, [r7, #56]	; 0x38
10005250:	44d9      	add	r9, fp
10005252:	445b      	add	r3, fp
10005254:	63bb      	str	r3, [r7, #56]	; 0x38
10005256:	6cfb      	ldr	r3, [r7, #76]	; 0x4c
10005258:	4599      	cmp	r9, r3
1000525a:	d3bd      	bcc.n	100051d8 <_ZN11ST7735_pico12drawFontCharEj+0xa40>
1000525c:	6c7a      	ldr	r2, [r7, #68]	; 0x44
1000525e:	6b7b      	ldr	r3, [r7, #52]	; 0x34
10005260:	4694      	mov	ip, r2
10005262:	4463      	add	r3, ip
10005264:	637b      	str	r3, [r7, #52]	; 0x34
10005266:	6abb      	ldr	r3, [r7, #40]	; 0x28
10005268:	1a9b      	subs	r3, r3, r2
1000526a:	62bb      	str	r3, [r7, #40]	; 0x28
1000526c:	2b00      	cmp	r3, #0
1000526e:	dd00      	ble.n	10005272 <_ZN11ST7735_pico12drawFontCharEj+0xada>
10005270:	e776      	b.n	10005160 <_ZN11ST7735_pico12drawFontCharEj+0x9c8>
10005272:	6bfb      	ldr	r3, [r7, #60]	; 0x3c
10005274:	469b      	mov	fp, r3
10005276:	e74a      	b.n	1000510e <_ZN11ST7735_pico12drawFontCharEj+0x976>
10005278:	6039      	str	r1, [r7, #0]
1000527a:	e488      	b.n	10004b8e <_ZN11ST7735_pico12drawFontCharEj+0x3f6>
1000527c:	0010      	movs	r0, r2
1000527e:	e482      	b.n	10004b86 <_ZN11ST7735_pico12drawFontCharEj+0x3ee>
10005280:	6c7b      	ldr	r3, [r7, #68]	; 0x44
10005282:	6c3a      	ldr	r2, [r7, #64]	; 0x40
10005284:	3301      	adds	r3, #1
10005286:	647b      	str	r3, [r7, #68]	; 0x44
10005288:	429a      	cmp	r2, r3
1000528a:	d000      	beq.n	1000528e <_ZN11ST7735_pico12drawFontCharEj+0xaf6>
1000528c:	e563      	b.n	10004d56 <_ZN11ST7735_pico12drawFontCharEj+0x5be>
1000528e:	46a3      	mov	fp, r4
10005290:	2350      	movs	r3, #80	; 0x50
10005292:	465a      	mov	r2, fp
10005294:	5cd3      	ldrb	r3, [r2, r3]
10005296:	2b01      	cmp	r3, #1
10005298:	d800      	bhi.n	1000529c <_ZN11ST7735_pico12drawFontCharEj+0xb04>
1000529a:	e1fd      	b.n	10005698 <_ZN11ST7735_pico12drawFontCharEj+0xf00>
1000529c:	2207      	movs	r2, #7
1000529e:	6bbb      	ldr	r3, [r7, #56]	; 0x38
100052a0:	3307      	adds	r3, #7
100052a2:	4393      	bics	r3, r2
100052a4:	647b      	str	r3, [r7, #68]	; 0x44
100052a6:	6bfb      	ldr	r3, [r7, #60]	; 0x3c
100052a8:	2b00      	cmp	r3, #0
100052aa:	d100      	bne.n	100052ae <_ZN11ST7735_pico12drawFontCharEj+0xb16>
100052ac:	e0b3      	b.n	10005416 <_ZN11ST7735_pico12drawFontCharEj+0xc7e>
100052ae:	6c3b      	ldr	r3, [r7, #64]	; 0x40
100052b0:	465d      	mov	r5, fp
100052b2:	469a      	mov	sl, r3
100052b4:	2300      	movs	r3, #0
100052b6:	63bb      	str	r3, [r7, #56]	; 0x38
100052b8:	3301      	adds	r3, #1
100052ba:	4699      	mov	r9, r3
100052bc:	687b      	ldr	r3, [r7, #4]
100052be:	4656      	mov	r6, sl
100052c0:	469b      	mov	fp, r3
100052c2:	697b      	ldr	r3, [r7, #20]
100052c4:	455b      	cmp	r3, fp
100052c6:	dd00      	ble.n	100052ca <_ZN11ST7735_pico12drawFontCharEj+0xb32>
100052c8:	e09a      	b.n	10005400 <_ZN11ST7735_pico12drawFontCharEj+0xc68>
100052ca:	6b7a      	ldr	r2, [r7, #52]	; 0x34
100052cc:	001c      	movs	r4, r3
100052ce:	4293      	cmp	r3, r2
100052d0:	da69      	bge.n	100053a6 <_ZN11ST7735_pico12drawFontCharEj+0xc0e>
100052d2:	0013      	movs	r3, r2
100052d4:	4692      	mov	sl, r2
100052d6:	68fa      	ldr	r2, [r7, #12]
100052d8:	4293      	cmp	r3, r2
100052da:	dd00      	ble.n	100052de <_ZN11ST7735_pico12drawFontCharEj+0xb46>
100052dc:	4692      	mov	sl, r2
100052de:	4653      	mov	r3, sl
100052e0:	46b0      	mov	r8, r6
100052e2:	697c      	ldr	r4, [r7, #20]
100052e4:	64fb      	str	r3, [r7, #76]	; 0x4c
100052e6:	221c      	movs	r2, #28
100052e8:	5eab      	ldrsh	r3, [r5, r2]
100052ea:	42a3      	cmp	r3, r4
100052ec:	dc54      	bgt.n	10005398 <_ZN11ST7735_pico12drawFontCharEj+0xc00>
100052ee:	2220      	movs	r2, #32
100052f0:	5eab      	ldrsh	r3, [r5, r2]
100052f2:	42a3      	cmp	r3, r4
100052f4:	dd50      	ble.n	10005398 <_ZN11ST7735_pico12drawFontCharEj+0xc00>
100052f6:	221e      	movs	r2, #30
100052f8:	5eab      	ldrsh	r3, [r5, r2]
100052fa:	4543      	cmp	r3, r8
100052fc:	dc4c      	bgt.n	10005398 <_ZN11ST7735_pico12drawFontCharEj+0xc00>
100052fe:	2222      	movs	r2, #34	; 0x22
10005300:	5eab      	ldrsh	r3, [r5, r2]
10005302:	4543      	cmp	r3, r8
10005304:	dd48      	ble.n	10005398 <_ZN11ST7735_pico12drawFontCharEj+0xc00>
10005306:	6a7b      	ldr	r3, [r7, #36]	; 0x24
10005308:	42a3      	cmp	r3, r4
1000530a:	dd00      	ble.n	1000530e <_ZN11ST7735_pico12drawFontCharEj+0xb76>
1000530c:	e16a      	b.n	100055e4 <_ZN11ST7735_pico12drawFontCharEj+0xe4c>
1000530e:	2353      	movs	r3, #83	; 0x53
10005310:	5ce9      	ldrb	r1, [r5, r3]
10005312:	6c2b      	ldr	r3, [r5, #64]	; 0x40
10005314:	6cba      	ldr	r2, [r7, #72]	; 0x48
10005316:	469a      	mov	sl, r3
10005318:	6c7b      	ldr	r3, [r7, #68]	; 0x44
1000531a:	6bb8      	ldr	r0, [r7, #56]	; 0x38
1000531c:	08db      	lsrs	r3, r3, #3
1000531e:	5cd3      	ldrb	r3, [r2, r3]
10005320:	1e4e      	subs	r6, r1, #1
10005322:	62fb      	str	r3, [r7, #44]	; 0x2c
10005324:	f003 f910 	bl	10008548 <__wrap___aeabi_uidiv>
10005328:	1a73      	subs	r3, r6, r1
1000532a:	2150      	movs	r1, #80	; 0x50
1000532c:	5c6a      	ldrb	r2, [r5, r1]
1000532e:	4353      	muls	r3, r2
10005330:	6afa      	ldr	r2, [r7, #44]	; 0x2c
10005332:	b2db      	uxtb	r3, r3
10005334:	411a      	asrs	r2, r3
10005336:	0013      	movs	r3, r2
10005338:	2252      	movs	r2, #82	; 0x52
1000533a:	5ca8      	ldrb	r0, [r5, r2]
1000533c:	4018      	ands	r0, r3
1000533e:	f003 f9c7 	bl	100086d0 <__wrap___aeabi_i2f>
10005342:	6da9      	ldr	r1, [r5, #88]	; 0x58
10005344:	f003 f9bd 	bl	100086c2 <__wrap___aeabi_fmul>
10005348:	f003 f9e4 	bl	10008714 <__wrap___aeabi_f2uiz>
1000534c:	4652      	mov	r2, sl
1000534e:	6beb      	ldr	r3, [r5, #60]	; 0x3c
10005350:	b2c0      	uxtb	r0, r0
10005352:	1a9b      	subs	r3, r3, r2
10005354:	4343      	muls	r3, r0
10005356:	4acf      	ldr	r2, [pc, #828]	; (10005694 <_ZN11ST7735_pico12drawFontCharEj+0xefc>)
10005358:	095b      	lsrs	r3, r3, #5
1000535a:	4453      	add	r3, sl
1000535c:	4013      	ands	r3, r2
1000535e:	0c1a      	lsrs	r2, r3, #16
10005360:	4313      	orrs	r3, r2
10005362:	b29b      	uxth	r3, r3
10005364:	469a      	mov	sl, r3
10005366:	7a6b      	ldrb	r3, [r5, #9]
10005368:	2b00      	cmp	r3, #0
1000536a:	d100      	bne.n	1000536e <_ZN11ST7735_pico12drawFontCharEj+0xbd6>
1000536c:	e33b      	b.n	100059e6 <_ZN11ST7735_pico12drawFontCharEj+0x124e>
1000536e:	2381      	movs	r3, #129	; 0x81
10005370:	464a      	mov	r2, r9
10005372:	5ceb      	ldrb	r3, [r5, r3]
10005374:	4651      	mov	r1, sl
10005376:	409a      	lsls	r2, r3
10005378:	23d0      	movs	r3, #208	; 0xd0
1000537a:	061b      	lsls	r3, r3, #24
1000537c:	615a      	str	r2, [r3, #20]
1000537e:	6868      	ldr	r0, [r5, #4]
10005380:	f7fb f920 	bl	100005c4 <_ZN3SPI7write16Et>
10005384:	6c7a      	ldr	r2, [r7, #68]	; 0x44
10005386:	2350      	movs	r3, #80	; 0x50
10005388:	4694      	mov	ip, r2
1000538a:	5ceb      	ldrb	r3, [r5, r3]
1000538c:	449c      	add	ip, r3
1000538e:	4663      	mov	r3, ip
10005390:	647b      	str	r3, [r7, #68]	; 0x44
10005392:	6bbb      	ldr	r3, [r7, #56]	; 0x38
10005394:	3301      	adds	r3, #1
10005396:	63bb      	str	r3, [r7, #56]	; 0x38
10005398:	6cfb      	ldr	r3, [r7, #76]	; 0x4c
1000539a:	3401      	adds	r4, #1
1000539c:	429c      	cmp	r4, r3
1000539e:	dba2      	blt.n	100052e6 <_ZN11ST7735_pico12drawFontCharEj+0xb4e>
100053a0:	4646      	mov	r6, r8
100053a2:	45a3      	cmp	fp, r4
100053a4:	db2c      	blt.n	10005400 <_ZN11ST7735_pico12drawFontCharEj+0xc68>
100053a6:	23d0      	movs	r3, #208	; 0xd0
100053a8:	061b      	lsls	r3, r3, #24
100053aa:	469a      	mov	sl, r3
100053ac:	465b      	mov	r3, fp
100053ae:	46b0      	mov	r8, r6
100053b0:	64fb      	str	r3, [r7, #76]	; 0x4c
100053b2:	221c      	movs	r2, #28
100053b4:	5eab      	ldrsh	r3, [r5, r2]
100053b6:	42a3      	cmp	r3, r4
100053b8:	dc1c      	bgt.n	100053f4 <_ZN11ST7735_pico12drawFontCharEj+0xc5c>
100053ba:	2220      	movs	r2, #32
100053bc:	5eab      	ldrsh	r3, [r5, r2]
100053be:	42a3      	cmp	r3, r4
100053c0:	dd18      	ble.n	100053f4 <_ZN11ST7735_pico12drawFontCharEj+0xc5c>
100053c2:	221e      	movs	r2, #30
100053c4:	5eab      	ldrsh	r3, [r5, r2]
100053c6:	4598      	cmp	r8, r3
100053c8:	db14      	blt.n	100053f4 <_ZN11ST7735_pico12drawFontCharEj+0xc5c>
100053ca:	2222      	movs	r2, #34	; 0x22
100053cc:	5eab      	ldrsh	r3, [r5, r2]
100053ce:	4598      	cmp	r8, r3
100053d0:	da10      	bge.n	100053f4 <_ZN11ST7735_pico12drawFontCharEj+0xc5c>
100053d2:	8eeb      	ldrh	r3, [r5, #54]	; 0x36
100053d4:	469b      	mov	fp, r3
100053d6:	7a6b      	ldrb	r3, [r5, #9]
100053d8:	2b00      	cmp	r3, #0
100053da:	d100      	bne.n	100053de <_ZN11ST7735_pico12drawFontCharEj+0xc46>
100053dc:	e12f      	b.n	1000563e <_ZN11ST7735_pico12drawFontCharEj+0xea6>
100053de:	2381      	movs	r3, #129	; 0x81
100053e0:	464a      	mov	r2, r9
100053e2:	5ceb      	ldrb	r3, [r5, r3]
100053e4:	4659      	mov	r1, fp
100053e6:	409a      	lsls	r2, r3
100053e8:	0013      	movs	r3, r2
100053ea:	4652      	mov	r2, sl
100053ec:	6868      	ldr	r0, [r5, #4]
100053ee:	6153      	str	r3, [r2, #20]
100053f0:	f7fb f8e8 	bl	100005c4 <_ZN3SPI7write16Et>
100053f4:	6cfb      	ldr	r3, [r7, #76]	; 0x4c
100053f6:	3401      	adds	r4, #1
100053f8:	42a3      	cmp	r3, r4
100053fa:	dada      	bge.n	100053b2 <_ZN11ST7735_pico12drawFontCharEj+0xc1a>
100053fc:	469b      	mov	fp, r3
100053fe:	4646      	mov	r6, r8
10005400:	6b3b      	ldr	r3, [r7, #48]	; 0x30
10005402:	3601      	adds	r6, #1
10005404:	429e      	cmp	r6, r3
10005406:	d000      	beq.n	1000540a <_ZN11ST7735_pico12drawFontCharEj+0xc72>
10005408:	e75b      	b.n	100052c2 <_ZN11ST7735_pico12drawFontCharEj+0xb2a>
1000540a:	6bfa      	ldr	r2, [r7, #60]	; 0x3c
1000540c:	46ab      	mov	fp, r5
1000540e:	4694      	mov	ip, r2
10005410:	6c3b      	ldr	r3, [r7, #64]	; 0x40
10005412:	4463      	add	r3, ip
10005414:	643b      	str	r3, [r7, #64]	; 0x40
10005416:	683b      	ldr	r3, [r7, #0]
10005418:	6c3a      	ldr	r2, [r7, #64]	; 0x40
1000541a:	68b9      	ldr	r1, [r7, #8]
1000541c:	1a9a      	subs	r2, r3, r2
1000541e:	68fb      	ldr	r3, [r7, #12]
10005420:	1a5b      	subs	r3, r3, r1
10005422:	4353      	muls	r3, r2
10005424:	1e5c      	subs	r4, r3, #1
10005426:	2b01      	cmp	r3, #1
10005428:	dc00      	bgt.n	1000542c <_ZN11ST7735_pico12drawFontCharEj+0xc94>
1000542a:	e0f2      	b.n	10005612 <_ZN11ST7735_pico12drawFontCharEj+0xe7a>
1000542c:	2381      	movs	r3, #129	; 0x81
1000542e:	4699      	mov	r9, r3
10005430:	23d0      	movs	r3, #208	; 0xd0
10005432:	061b      	lsls	r3, r3, #24
10005434:	2501      	movs	r5, #1
10005436:	4698      	mov	r8, r3
10005438:	465e      	mov	r6, fp
1000543a:	e00e      	b.n	1000545a <_ZN11ST7735_pico12drawFontCharEj+0xcc2>
1000543c:	464b      	mov	r3, r9
1000543e:	002a      	movs	r2, r5
10005440:	5cf3      	ldrb	r3, [r6, r3]
10005442:	4651      	mov	r1, sl
10005444:	409a      	lsls	r2, r3
10005446:	0013      	movs	r3, r2
10005448:	4642      	mov	r2, r8
1000544a:	6870      	ldr	r0, [r6, #4]
1000544c:	6153      	str	r3, [r2, #20]
1000544e:	3c01      	subs	r4, #1
10005450:	f7fb f8b8 	bl	100005c4 <_ZN3SPI7write16Et>
10005454:	2c00      	cmp	r4, #0
10005456:	d100      	bne.n	1000545a <_ZN11ST7735_pico12drawFontCharEj+0xcc2>
10005458:	e0da      	b.n	10005610 <_ZN11ST7735_pico12drawFontCharEj+0xe78>
1000545a:	8ef3      	ldrh	r3, [r6, #54]	; 0x36
1000545c:	469a      	mov	sl, r3
1000545e:	7a73      	ldrb	r3, [r6, #9]
10005460:	2b00      	cmp	r3, #0
10005462:	d1eb      	bne.n	1000543c <_ZN11ST7735_pico12drawFontCharEj+0xca4>
10005464:	6870      	ldr	r0, [r6, #4]
10005466:	6803      	ldr	r3, [r0, #0]
10005468:	691b      	ldr	r3, [r3, #16]
1000546a:	4798      	blx	r3
1000546c:	2800      	cmp	r0, #0
1000546e:	d1f9      	bne.n	10005464 <_ZN11ST7735_pico12drawFontCharEj+0xccc>
10005470:	6870      	ldr	r0, [r6, #4]
10005472:	2200      	movs	r2, #0
10005474:	6803      	ldr	r3, [r0, #0]
10005476:	9500      	str	r5, [sp, #0]
10005478:	695b      	ldr	r3, [r3, #20]
1000547a:	2110      	movs	r1, #16
1000547c:	469b      	mov	fp, r3
1000547e:	2300      	movs	r3, #0
10005480:	47d8      	blx	fp
10005482:	7275      	strb	r5, [r6, #9]
10005484:	e7da      	b.n	1000543c <_ZN11ST7735_pico12drawFontCharEj+0xca4>
10005486:	6c7e      	ldr	r6, [r7, #68]	; 0x44
10005488:	6860      	ldr	r0, [r4, #4]
1000548a:	6803      	ldr	r3, [r0, #0]
1000548c:	691b      	ldr	r3, [r3, #16]
1000548e:	4798      	blx	r3
10005490:	2800      	cmp	r0, #0
10005492:	d1f9      	bne.n	10005488 <_ZN11ST7735_pico12drawFontCharEj+0xcf0>
10005494:	2201      	movs	r2, #1
10005496:	4690      	mov	r8, r2
10005498:	6860      	ldr	r0, [r4, #4]
1000549a:	647e      	str	r6, [r7, #68]	; 0x44
1000549c:	6803      	ldr	r3, [r0, #0]
1000549e:	9200      	str	r2, [sp, #0]
100054a0:	695b      	ldr	r3, [r3, #20]
100054a2:	2200      	movs	r2, #0
100054a4:	4699      	mov	r9, r3
100054a6:	2110      	movs	r1, #16
100054a8:	2300      	movs	r3, #0
100054aa:	47c8      	blx	r9
100054ac:	4643      	mov	r3, r8
100054ae:	7263      	strb	r3, [r4, #9]
100054b0:	e609      	b.n	100050c6 <_ZN11ST7735_pico12drawFontCharEj+0x92e>
100054b2:	6c7e      	ldr	r6, [r7, #68]	; 0x44
100054b4:	6860      	ldr	r0, [r4, #4]
100054b6:	6803      	ldr	r3, [r0, #0]
100054b8:	691b      	ldr	r3, [r3, #16]
100054ba:	4798      	blx	r3
100054bc:	2800      	cmp	r0, #0
100054be:	d1f9      	bne.n	100054b4 <_ZN11ST7735_pico12drawFontCharEj+0xd1c>
100054c0:	2201      	movs	r2, #1
100054c2:	4680      	mov	r8, r0
100054c4:	6860      	ldr	r0, [r4, #4]
100054c6:	647e      	str	r6, [r7, #68]	; 0x44
100054c8:	6803      	ldr	r3, [r0, #0]
100054ca:	9200      	str	r2, [sp, #0]
100054cc:	695b      	ldr	r3, [r3, #20]
100054ce:	2200      	movs	r2, #0
100054d0:	4699      	mov	r9, r3
100054d2:	2108      	movs	r1, #8
100054d4:	2300      	movs	r3, #0
100054d6:	47c8      	blx	r9
100054d8:	4643      	mov	r3, r8
100054da:	7263      	strb	r3, [r4, #9]
100054dc:	e5e4      	b.n	100050a8 <_ZN11ST7735_pico12drawFontCharEj+0x910>
100054de:	6c7e      	ldr	r6, [r7, #68]	; 0x44
100054e0:	6860      	ldr	r0, [r4, #4]
100054e2:	6803      	ldr	r3, [r0, #0]
100054e4:	691b      	ldr	r3, [r3, #16]
100054e6:	4798      	blx	r3
100054e8:	2800      	cmp	r0, #0
100054ea:	d1f9      	bne.n	100054e0 <_ZN11ST7735_pico12drawFontCharEj+0xd48>
100054ec:	2201      	movs	r2, #1
100054ee:	4691      	mov	r9, r2
100054f0:	6860      	ldr	r0, [r4, #4]
100054f2:	647e      	str	r6, [r7, #68]	; 0x44
100054f4:	6803      	ldr	r3, [r0, #0]
100054f6:	9200      	str	r2, [sp, #0]
100054f8:	695b      	ldr	r3, [r3, #20]
100054fa:	2200      	movs	r2, #0
100054fc:	469a      	mov	sl, r3
100054fe:	2110      	movs	r1, #16
10005500:	2300      	movs	r3, #0
10005502:	47d0      	blx	sl
10005504:	464b      	mov	r3, r9
10005506:	7263      	strb	r3, [r4, #9]
10005508:	e5bf      	b.n	1000508a <_ZN11ST7735_pico12drawFontCharEj+0x8f2>
1000550a:	6c7e      	ldr	r6, [r7, #68]	; 0x44
1000550c:	6860      	ldr	r0, [r4, #4]
1000550e:	6803      	ldr	r3, [r0, #0]
10005510:	691b      	ldr	r3, [r3, #16]
10005512:	4798      	blx	r3
10005514:	2800      	cmp	r0, #0
10005516:	d1f9      	bne.n	1000550c <_ZN11ST7735_pico12drawFontCharEj+0xd74>
10005518:	2201      	movs	r2, #1
1000551a:	4691      	mov	r9, r2
1000551c:	6860      	ldr	r0, [r4, #4]
1000551e:	647e      	str	r6, [r7, #68]	; 0x44
10005520:	6803      	ldr	r3, [r0, #0]
10005522:	9200      	str	r2, [sp, #0]
10005524:	695b      	ldr	r3, [r3, #20]
10005526:	2200      	movs	r2, #0
10005528:	001e      	movs	r6, r3
1000552a:	2110      	movs	r1, #16
1000552c:	2300      	movs	r3, #0
1000552e:	47b0      	blx	r6
10005530:	464b      	mov	r3, r9
10005532:	7263      	strb	r3, [r4, #9]
10005534:	e595      	b.n	10005062 <_ZN11ST7735_pico12drawFontCharEj+0x8ca>
10005536:	6c7e      	ldr	r6, [r7, #68]	; 0x44
10005538:	6860      	ldr	r0, [r4, #4]
1000553a:	6803      	ldr	r3, [r0, #0]
1000553c:	691b      	ldr	r3, [r3, #16]
1000553e:	4798      	blx	r3
10005540:	2800      	cmp	r0, #0
10005542:	d1f9      	bne.n	10005538 <_ZN11ST7735_pico12drawFontCharEj+0xda0>
10005544:	2201      	movs	r2, #1
10005546:	4680      	mov	r8, r0
10005548:	6860      	ldr	r0, [r4, #4]
1000554a:	647e      	str	r6, [r7, #68]	; 0x44
1000554c:	6803      	ldr	r3, [r0, #0]
1000554e:	9200      	str	r2, [sp, #0]
10005550:	695b      	ldr	r3, [r3, #20]
10005552:	2200      	movs	r2, #0
10005554:	4699      	mov	r9, r3
10005556:	2108      	movs	r1, #8
10005558:	2300      	movs	r3, #0
1000555a:	47c8      	blx	r9
1000555c:	4643      	mov	r3, r8
1000555e:	7263      	strb	r3, [r4, #9]
10005560:	e56b      	b.n	1000503a <_ZN11ST7735_pico12drawFontCharEj+0x8a2>
10005562:	6c7e      	ldr	r6, [r7, #68]	; 0x44
10005564:	6860      	ldr	r0, [r4, #4]
10005566:	6803      	ldr	r3, [r0, #0]
10005568:	691b      	ldr	r3, [r3, #16]
1000556a:	4798      	blx	r3
1000556c:	2800      	cmp	r0, #0
1000556e:	d1f9      	bne.n	10005564 <_ZN11ST7735_pico12drawFontCharEj+0xdcc>
10005570:	2201      	movs	r2, #1
10005572:	4690      	mov	r8, r2
10005574:	6860      	ldr	r0, [r4, #4]
10005576:	647e      	str	r6, [r7, #68]	; 0x44
10005578:	6803      	ldr	r3, [r0, #0]
1000557a:	9200      	str	r2, [sp, #0]
1000557c:	695b      	ldr	r3, [r3, #20]
1000557e:	2200      	movs	r2, #0
10005580:	001e      	movs	r6, r3
10005582:	2110      	movs	r1, #16
10005584:	2300      	movs	r3, #0
10005586:	47b0      	blx	r6
10005588:	4643      	mov	r3, r8
1000558a:	7263      	strb	r3, [r4, #9]
1000558c:	e546      	b.n	1000501c <_ZN11ST7735_pico12drawFontCharEj+0x884>
1000558e:	6c7e      	ldr	r6, [r7, #68]	; 0x44
10005590:	6860      	ldr	r0, [r4, #4]
10005592:	6803      	ldr	r3, [r0, #0]
10005594:	691b      	ldr	r3, [r3, #16]
10005596:	4798      	blx	r3
10005598:	2800      	cmp	r0, #0
1000559a:	d1f9      	bne.n	10005590 <_ZN11ST7735_pico12drawFontCharEj+0xdf8>
1000559c:	2201      	movs	r2, #1
1000559e:	6860      	ldr	r0, [r4, #4]
100055a0:	647e      	str	r6, [r7, #68]	; 0x44
100055a2:	6803      	ldr	r3, [r0, #0]
100055a4:	9200      	str	r2, [sp, #0]
100055a6:	695b      	ldr	r3, [r3, #20]
100055a8:	2200      	movs	r2, #0
100055aa:	001e      	movs	r6, r3
100055ac:	2110      	movs	r1, #16
100055ae:	2300      	movs	r3, #0
100055b0:	47b0      	blx	r6
100055b2:	2201      	movs	r2, #1
100055b4:	7262      	strb	r2, [r4, #9]
100055b6:	e51d      	b.n	10004ff4 <_ZN11ST7735_pico12drawFontCharEj+0x85c>
100055b8:	6c7e      	ldr	r6, [r7, #68]	; 0x44
100055ba:	6860      	ldr	r0, [r4, #4]
100055bc:	6803      	ldr	r3, [r0, #0]
100055be:	691b      	ldr	r3, [r3, #16]
100055c0:	4798      	blx	r3
100055c2:	2800      	cmp	r0, #0
100055c4:	d1f9      	bne.n	100055ba <_ZN11ST7735_pico12drawFontCharEj+0xe22>
100055c6:	2201      	movs	r2, #1
100055c8:	4680      	mov	r8, r0
100055ca:	6860      	ldr	r0, [r4, #4]
100055cc:	647e      	str	r6, [r7, #68]	; 0x44
100055ce:	6803      	ldr	r3, [r0, #0]
100055d0:	9200      	str	r2, [sp, #0]
100055d2:	695b      	ldr	r3, [r3, #20]
100055d4:	2200      	movs	r2, #0
100055d6:	001e      	movs	r6, r3
100055d8:	2108      	movs	r1, #8
100055da:	2300      	movs	r3, #0
100055dc:	47b0      	blx	r6
100055de:	4643      	mov	r3, r8
100055e0:	7263      	strb	r3, [r4, #9]
100055e2:	e4f3      	b.n	10004fcc <_ZN11ST7735_pico12drawFontCharEj+0x834>
100055e4:	8eeb      	ldrh	r3, [r5, #54]	; 0x36
100055e6:	469a      	mov	sl, r3
100055e8:	7a6b      	ldrb	r3, [r5, #9]
100055ea:	2b00      	cmp	r3, #0
100055ec:	d03c      	beq.n	10005668 <_ZN11ST7735_pico12drawFontCharEj+0xed0>
100055ee:	2381      	movs	r3, #129	; 0x81
100055f0:	464a      	mov	r2, r9
100055f2:	5ceb      	ldrb	r3, [r5, r3]
100055f4:	4651      	mov	r1, sl
100055f6:	409a      	lsls	r2, r3
100055f8:	23d0      	movs	r3, #208	; 0xd0
100055fa:	061b      	lsls	r3, r3, #24
100055fc:	6868      	ldr	r0, [r5, #4]
100055fe:	615a      	str	r2, [r3, #20]
10005600:	f7fa ffe0 	bl	100005c4 <_ZN3SPI7write16Et>
10005604:	e6c8      	b.n	10005398 <_ZN11ST7735_pico12drawFontCharEj+0xc00>
10005606:	465b      	mov	r3, fp
10005608:	210c      	movs	r1, #12
1000560a:	5e5b      	ldrsh	r3, [r3, r1]
1000560c:	f7ff fa51 	bl	10004ab2 <_ZN11ST7735_pico12drawFontCharEj+0x31a>
10005610:	46b3      	mov	fp, r6
10005612:	465b      	mov	r3, fp
10005614:	4658      	mov	r0, fp
10005616:	8ed9      	ldrh	r1, [r3, #54]	; 0x36
10005618:	f7fb fade 	bl	10000bd8 <_ZN11ST7735_pico16writedata16_lastEt>
1000561c:	465b      	mov	r3, fp
1000561e:	6858      	ldr	r0, [r3, #4]
10005620:	6803      	ldr	r3, [r0, #0]
10005622:	68db      	ldr	r3, [r3, #12]
10005624:	4798      	blx	r3
10005626:	2800      	cmp	r0, #0
10005628:	d000      	beq.n	1000562c <_ZN11ST7735_pico12drawFontCharEj+0xe94>
1000562a:	e570      	b.n	1000510e <_ZN11ST7735_pico12drawFontCharEj+0x976>
1000562c:	2380      	movs	r3, #128	; 0x80
1000562e:	465a      	mov	r2, fp
10005630:	5cd2      	ldrb	r2, [r2, r3]
10005632:	3b7f      	subs	r3, #127	; 0x7f
10005634:	4093      	lsls	r3, r2
10005636:	22d0      	movs	r2, #208	; 0xd0
10005638:	0612      	lsls	r2, r2, #24
1000563a:	6153      	str	r3, [r2, #20]
1000563c:	e567      	b.n	1000510e <_ZN11ST7735_pico12drawFontCharEj+0x976>
1000563e:	6cfe      	ldr	r6, [r7, #76]	; 0x4c
10005640:	6868      	ldr	r0, [r5, #4]
10005642:	6803      	ldr	r3, [r0, #0]
10005644:	691b      	ldr	r3, [r3, #16]
10005646:	4798      	blx	r3
10005648:	2800      	cmp	r0, #0
1000564a:	d1f9      	bne.n	10005640 <_ZN11ST7735_pico12drawFontCharEj+0xea8>
1000564c:	464a      	mov	r2, r9
1000564e:	6868      	ldr	r0, [r5, #4]
10005650:	64fe      	str	r6, [r7, #76]	; 0x4c
10005652:	6803      	ldr	r3, [r0, #0]
10005654:	9200      	str	r2, [sp, #0]
10005656:	695b      	ldr	r3, [r3, #20]
10005658:	2200      	movs	r2, #0
1000565a:	001e      	movs	r6, r3
1000565c:	2110      	movs	r1, #16
1000565e:	2300      	movs	r3, #0
10005660:	47b0      	blx	r6
10005662:	464b      	mov	r3, r9
10005664:	726b      	strb	r3, [r5, #9]
10005666:	e6ba      	b.n	100053de <_ZN11ST7735_pico12drawFontCharEj+0xc46>
10005668:	6cfe      	ldr	r6, [r7, #76]	; 0x4c
1000566a:	6868      	ldr	r0, [r5, #4]
1000566c:	6803      	ldr	r3, [r0, #0]
1000566e:	691b      	ldr	r3, [r3, #16]
10005670:	4798      	blx	r3
10005672:	2800      	cmp	r0, #0
10005674:	d1f9      	bne.n	1000566a <_ZN11ST7735_pico12drawFontCharEj+0xed2>
10005676:	464a      	mov	r2, r9
10005678:	6868      	ldr	r0, [r5, #4]
1000567a:	64fe      	str	r6, [r7, #76]	; 0x4c
1000567c:	6803      	ldr	r3, [r0, #0]
1000567e:	9200      	str	r2, [sp, #0]
10005680:	695b      	ldr	r3, [r3, #20]
10005682:	2200      	movs	r2, #0
10005684:	001e      	movs	r6, r3
10005686:	2110      	movs	r1, #16
10005688:	2300      	movs	r3, #0
1000568a:	47b0      	blx	r6
1000568c:	464b      	mov	r3, r9
1000568e:	726b      	strb	r3, [r5, #9]
10005690:	e7ad      	b.n	100055ee <_ZN11ST7735_pico12drawFontCharEj+0xe56>
10005692:	46c0      	nop			; (mov r8, r8)
10005694:	07e0f81f 	.word	0x07e0f81f
10005698:	6bfb      	ldr	r3, [r7, #60]	; 0x3c
1000569a:	2b00      	cmp	r3, #0
1000569c:	dc00      	bgt.n	100056a0 <_ZN11ST7735_pico12drawFontCharEj+0xf08>
1000569e:	e6ba      	b.n	10005416 <_ZN11ST7735_pico12drawFontCharEj+0xc7e>
100056a0:	2601      	movs	r6, #1
100056a2:	46da      	mov	sl, fp
100056a4:	6bb8      	ldr	r0, [r7, #56]	; 0x38
100056a6:	6cba      	ldr	r2, [r7, #72]	; 0x48
100056a8:	08c3      	lsrs	r3, r0, #3
100056aa:	5cd3      	ldrb	r3, [r2, r3]
100056ac:	2207      	movs	r2, #7
100056ae:	4382      	bics	r2, r0
100056b0:	4113      	asrs	r3, r2
100056b2:	2200      	movs	r2, #0
100056b4:	1c41      	adds	r1, r0, #1
100056b6:	61f9      	str	r1, [r7, #28]
100056b8:	623a      	str	r2, [r7, #32]
100056ba:	421e      	tst	r6, r3
100056bc:	d032      	beq.n	10005724 <_ZN11ST7735_pico12drawFontCharEj+0xf8c>
100056be:	2307      	movs	r3, #7
100056c0:	2003      	movs	r0, #3
100056c2:	469c      	mov	ip, r3
100056c4:	3301      	adds	r3, #1
100056c6:	2500      	movs	r5, #0
100056c8:	4698      	mov	r8, r3
100056ca:	0004      	movs	r4, r0
100056cc:	e00c      	b.n	100056e8 <_ZN11ST7735_pico12drawFontCharEj+0xf50>
100056ce:	4095      	lsls	r5, r2
100056d0:	46ab      	mov	fp, r5
100056d2:	0035      	movs	r5, r6
100056d4:	4095      	lsls	r5, r2
100056d6:	3d01      	subs	r5, #1
100056d8:	4005      	ands	r5, r0
100056da:	4658      	mov	r0, fp
100056dc:	3b08      	subs	r3, #8
100056de:	18e4      	adds	r4, r4, r3
100056e0:	4305      	orrs	r5, r0
100056e2:	1889      	adds	r1, r1, r2
100056e4:	2c00      	cmp	r4, #0
100056e6:	d015      	beq.n	10005714 <_ZN11ST7735_pico12drawFontCharEj+0xf7c>
100056e8:	6cba      	ldr	r2, [r7, #72]	; 0x48
100056ea:	08cb      	lsrs	r3, r1, #3
100056ec:	5cd0      	ldrb	r0, [r2, r3]
100056ee:	4663      	mov	r3, ip
100056f0:	4642      	mov	r2, r8
100056f2:	400b      	ands	r3, r1
100056f4:	1ad2      	subs	r2, r2, r3
100056f6:	42a2      	cmp	r2, r4
100056f8:	d9e9      	bls.n	100056ce <_ZN11ST7735_pico12drawFontCharEj+0xf36>
100056fa:	0023      	movs	r3, r4
100056fc:	0029      	movs	r1, r5
100056fe:	0004      	movs	r4, r0
10005700:	4099      	lsls	r1, r3
10005702:	0018      	movs	r0, r3
10005704:	1ad2      	subs	r2, r2, r3
10005706:	0033      	movs	r3, r6
10005708:	4083      	lsls	r3, r0
1000570a:	4114      	asrs	r4, r2
1000570c:	3b01      	subs	r3, #1
1000570e:	401c      	ands	r4, r3
10005710:	430c      	orrs	r4, r1
10005712:	0025      	movs	r5, r4
10005714:	6bbb      	ldr	r3, [r7, #56]	; 0x38
10005716:	3304      	adds	r3, #4
10005718:	61fb      	str	r3, [r7, #28]
1000571a:	1cab      	adds	r3, r5, #2
1000571c:	d100      	bne.n	10005720 <_ZN11ST7735_pico12drawFontCharEj+0xf88>
1000571e:	e15f      	b.n	100059e0 <_ZN11ST7735_pico12drawFontCharEj+0x1248>
10005720:	1c6b      	adds	r3, r5, #1
10005722:	623b      	str	r3, [r7, #32]
10005724:	6c3b      	ldr	r3, [r7, #64]	; 0x40
10005726:	637b      	str	r3, [r7, #52]	; 0x34
10005728:	3301      	adds	r3, #1
1000572a:	61bb      	str	r3, [r7, #24]
1000572c:	4653      	mov	r3, sl
1000572e:	633b      	str	r3, [r7, #48]	; 0x30
10005730:	6b3b      	ldr	r3, [r7, #48]	; 0x30
10005732:	211e      	movs	r1, #30
10005734:	5e5a      	ldrsh	r2, [r3, r1]
10005736:	4694      	mov	ip, r2
10005738:	6b7a      	ldr	r2, [r7, #52]	; 0x34
1000573a:	4594      	cmp	ip, r2
1000573c:	dc04      	bgt.n	10005748 <_ZN11ST7735_pico12drawFontCharEj+0xfb0>
1000573e:	2122      	movs	r1, #34	; 0x22
10005740:	5e5b      	ldrsh	r3, [r3, r1]
10005742:	4293      	cmp	r3, r2
10005744:	dd00      	ble.n	10005748 <_ZN11ST7735_pico12drawFontCharEj+0xfb0>
10005746:	e104      	b.n	10005952 <_ZN11ST7735_pico12drawFontCharEj+0x11ba>
10005748:	6a7b      	ldr	r3, [r7, #36]	; 0x24
1000574a:	643b      	str	r3, [r7, #64]	; 0x40
1000574c:	69fb      	ldr	r3, [r7, #28]
1000574e:	63bb      	str	r3, [r7, #56]	; 0x38
10005750:	2300      	movs	r3, #0
10005752:	63fb      	str	r3, [r7, #60]	; 0x3c
10005754:	6cfb      	ldr	r3, [r7, #76]	; 0x4c
10005756:	6bfa      	ldr	r2, [r7, #60]	; 0x3c
10005758:	1a9b      	subs	r3, r3, r2
1000575a:	647b      	str	r3, [r7, #68]	; 0x44
1000575c:	2b20      	cmp	r3, #32
1000575e:	d901      	bls.n	10005764 <_ZN11ST7735_pico12drawFontCharEj+0xfcc>
10005760:	2320      	movs	r3, #32
10005762:	647b      	str	r3, [r7, #68]	; 0x44
10005764:	6bbb      	ldr	r3, [r7, #56]	; 0x38
10005766:	2400      	movs	r4, #0
10005768:	4699      	mov	r9, r3
1000576a:	2307      	movs	r3, #7
1000576c:	469b      	mov	fp, r3
1000576e:	3301      	adds	r3, #1
10005770:	469a      	mov	sl, r3
10005772:	6cbb      	ldr	r3, [r7, #72]	; 0x48
10005774:	4648      	mov	r0, r9
10005776:	4698      	mov	r8, r3
10005778:	6c7d      	ldr	r5, [r7, #68]	; 0x44
1000577a:	e00c      	b.n	10005796 <_ZN11ST7735_pico12drawFontCharEj+0xffe>
1000577c:	408c      	lsls	r4, r1
1000577e:	46a1      	mov	r9, r4
10005780:	0034      	movs	r4, r6
10005782:	408c      	lsls	r4, r1
10005784:	3c01      	subs	r4, #1
10005786:	401c      	ands	r4, r3
10005788:	464b      	mov	r3, r9
1000578a:	3a08      	subs	r2, #8
1000578c:	18ad      	adds	r5, r5, r2
1000578e:	431c      	orrs	r4, r3
10005790:	1840      	adds	r0, r0, r1
10005792:	2d00      	cmp	r5, #0
10005794:	d010      	beq.n	100057b8 <_ZN11ST7735_pico12drawFontCharEj+0x1020>
10005796:	4642      	mov	r2, r8
10005798:	08c3      	lsrs	r3, r0, #3
1000579a:	5cd3      	ldrb	r3, [r2, r3]
1000579c:	465a      	mov	r2, fp
1000579e:	4651      	mov	r1, sl
100057a0:	4002      	ands	r2, r0
100057a2:	1a89      	subs	r1, r1, r2
100057a4:	42a9      	cmp	r1, r5
100057a6:	d9e9      	bls.n	1000577c <_ZN11ST7735_pico12drawFontCharEj+0xfe4>
100057a8:	0032      	movs	r2, r6
100057aa:	1b49      	subs	r1, r1, r5
100057ac:	40aa      	lsls	r2, r5
100057ae:	410b      	asrs	r3, r1
100057b0:	40ac      	lsls	r4, r5
100057b2:	3a01      	subs	r2, #1
100057b4:	4013      	ands	r3, r2
100057b6:	431c      	orrs	r4, r3
100057b8:	6b7a      	ldr	r2, [r7, #52]	; 0x34
100057ba:	4594      	cmp	ip, r2
100057bc:	dc04      	bgt.n	100057c8 <_ZN11ST7735_pico12drawFontCharEj+0x1030>
100057be:	6b3b      	ldr	r3, [r7, #48]	; 0x30
100057c0:	2122      	movs	r1, #34	; 0x22
100057c2:	5e5b      	ldrsh	r3, [r3, r1]
100057c4:	4293      	cmp	r3, r2
100057c6:	dc31      	bgt.n	1000582c <_ZN11ST7735_pico12drawFontCharEj+0x1094>
100057c8:	6c7a      	ldr	r2, [r7, #68]	; 0x44
100057ca:	6bfb      	ldr	r3, [r7, #60]	; 0x3c
100057cc:	4690      	mov	r8, r2
100057ce:	6cfa      	ldr	r2, [r7, #76]	; 0x4c
100057d0:	4443      	add	r3, r8
100057d2:	63fb      	str	r3, [r7, #60]	; 0x3c
100057d4:	4293      	cmp	r3, r2
100057d6:	d20b      	bcs.n	100057f0 <_ZN11ST7735_pico12drawFontCharEj+0x1058>
100057d8:	6b7a      	ldr	r2, [r7, #52]	; 0x34
100057da:	4594      	cmp	ip, r2
100057dc:	ddba      	ble.n	10005754 <_ZN11ST7735_pico12drawFontCharEj+0xfbc>
100057de:	6cfa      	ldr	r2, [r7, #76]	; 0x4c
100057e0:	1ad2      	subs	r2, r2, r3
100057e2:	2a20      	cmp	r2, #32
100057e4:	d900      	bls.n	100057e8 <_ZN11ST7735_pico12drawFontCharEj+0x1050>
100057e6:	2220      	movs	r2, #32
100057e8:	189b      	adds	r3, r3, r2
100057ea:	6cfa      	ldr	r2, [r7, #76]	; 0x4c
100057ec:	429a      	cmp	r2, r3
100057ee:	d8f6      	bhi.n	100057de <_ZN11ST7735_pico12drawFontCharEj+0x1046>
100057f0:	6b7b      	ldr	r3, [r7, #52]	; 0x34
100057f2:	4563      	cmp	r3, ip
100057f4:	db05      	blt.n	10005802 <_ZN11ST7735_pico12drawFontCharEj+0x106a>
100057f6:	6b3b      	ldr	r3, [r7, #48]	; 0x30
100057f8:	2222      	movs	r2, #34	; 0x22
100057fa:	5e9b      	ldrsh	r3, [r3, r2]
100057fc:	6b7a      	ldr	r2, [r7, #52]	; 0x34
100057fe:	4293      	cmp	r3, r2
10005800:	dc72      	bgt.n	100058e8 <_ZN11ST7735_pico12drawFontCharEj+0x1150>
10005802:	6a39      	ldr	r1, [r7, #32]
10005804:	6b7a      	ldr	r2, [r7, #52]	; 0x34
10005806:	468c      	mov	ip, r1
10005808:	69bb      	ldr	r3, [r7, #24]
1000580a:	3201      	adds	r2, #1
1000580c:	4463      	add	r3, ip
1000580e:	637a      	str	r2, [r7, #52]	; 0x34
10005810:	4293      	cmp	r3, r2
10005812:	d18d      	bne.n	10005730 <_ZN11ST7735_pico12drawFontCharEj+0xf98>
10005814:	6b3b      	ldr	r3, [r7, #48]	; 0x30
10005816:	643a      	str	r2, [r7, #64]	; 0x40
10005818:	469a      	mov	sl, r3
1000581a:	6abb      	ldr	r3, [r7, #40]	; 0x28
1000581c:	3b01      	subs	r3, #1
1000581e:	1a5b      	subs	r3, r3, r1
10005820:	62bb      	str	r3, [r7, #40]	; 0x28
10005822:	2b00      	cmp	r3, #0
10005824:	dd00      	ble.n	10005828 <_ZN11ST7735_pico12drawFontCharEj+0x1090>
10005826:	e73d      	b.n	100056a4 <_ZN11ST7735_pico12drawFontCharEj+0xf0c>
10005828:	46d3      	mov	fp, sl
1000582a:	e5f4      	b.n	10005416 <_ZN11ST7735_pico12drawFontCharEj+0xc7e>
1000582c:	0032      	movs	r2, r6
1000582e:	6c7b      	ldr	r3, [r7, #68]	; 0x44
10005830:	3b01      	subs	r3, #1
10005832:	409a      	lsls	r2, r3
10005834:	4690      	mov	r8, r2
10005836:	d04a      	beq.n	100058ce <_ZN11ST7735_pico12drawFontCharEj+0x1136>
10005838:	2381      	movs	r3, #129	; 0x81
1000583a:	469a      	mov	sl, r3
1000583c:	23d0      	movs	r3, #208	; 0xd0
1000583e:	061b      	lsls	r3, r3, #24
10005840:	469b      	mov	fp, r3
10005842:	6b3d      	ldr	r5, [r7, #48]	; 0x30
10005844:	62fc      	str	r4, [r7, #44]	; 0x2c
10005846:	e018      	b.n	1000587a <_ZN11ST7735_pico12drawFontCharEj+0x10e2>
10005848:	8eab      	ldrh	r3, [r5, #52]	; 0x34
1000584a:	4699      	mov	r9, r3
1000584c:	7a6b      	ldrb	r3, [r5, #9]
1000584e:	2b00      	cmp	r3, #0
10005850:	d025      	beq.n	1000589e <_ZN11ST7735_pico12drawFontCharEj+0x1106>
10005852:	4653      	mov	r3, sl
10005854:	0032      	movs	r2, r6
10005856:	5ceb      	ldrb	r3, [r5, r3]
10005858:	4649      	mov	r1, r9
1000585a:	409a      	lsls	r2, r3
1000585c:	0013      	movs	r3, r2
1000585e:	465a      	mov	r2, fp
10005860:	6868      	ldr	r0, [r5, #4]
10005862:	6153      	str	r3, [r2, #20]
10005864:	f7fa feae 	bl	100005c4 <_ZN3SPI7write16Et>
10005868:	4643      	mov	r3, r8
1000586a:	085b      	lsrs	r3, r3, #1
1000586c:	4698      	mov	r8, r3
1000586e:	6c3b      	ldr	r3, [r7, #64]	; 0x40
10005870:	3301      	adds	r3, #1
10005872:	643b      	str	r3, [r7, #64]	; 0x40
10005874:	4643      	mov	r3, r8
10005876:	2b00      	cmp	r3, #0
10005878:	d025      	beq.n	100058c6 <_ZN11ST7735_pico12drawFontCharEj+0x112e>
1000587a:	221c      	movs	r2, #28
1000587c:	5eab      	ldrsh	r3, [r5, r2]
1000587e:	6c39      	ldr	r1, [r7, #64]	; 0x40
10005880:	428b      	cmp	r3, r1
10005882:	dcf1      	bgt.n	10005868 <_ZN11ST7735_pico12drawFontCharEj+0x10d0>
10005884:	2220      	movs	r2, #32
10005886:	5eab      	ldrsh	r3, [r5, r2]
10005888:	428b      	cmp	r3, r1
1000588a:	dded      	ble.n	10005868 <_ZN11ST7735_pico12drawFontCharEj+0x10d0>
1000588c:	4643      	mov	r3, r8
1000588e:	6afa      	ldr	r2, [r7, #44]	; 0x2c
10005890:	4213      	tst	r3, r2
10005892:	d1d9      	bne.n	10005848 <_ZN11ST7735_pico12drawFontCharEj+0x10b0>
10005894:	8eeb      	ldrh	r3, [r5, #54]	; 0x36
10005896:	4699      	mov	r9, r3
10005898:	7a6b      	ldrb	r3, [r5, #9]
1000589a:	2b00      	cmp	r3, #0
1000589c:	d1d9      	bne.n	10005852 <_ZN11ST7735_pico12drawFontCharEj+0x10ba>
1000589e:	6c3c      	ldr	r4, [r7, #64]	; 0x40
100058a0:	6868      	ldr	r0, [r5, #4]
100058a2:	6803      	ldr	r3, [r0, #0]
100058a4:	691b      	ldr	r3, [r3, #16]
100058a6:	4798      	blx	r3
100058a8:	2800      	cmp	r0, #0
100058aa:	d1f9      	bne.n	100058a0 <_ZN11ST7735_pico12drawFontCharEj+0x1108>
100058ac:	2201      	movs	r2, #1
100058ae:	6868      	ldr	r0, [r5, #4]
100058b0:	643c      	str	r4, [r7, #64]	; 0x40
100058b2:	6803      	ldr	r3, [r0, #0]
100058b4:	9200      	str	r2, [sp, #0]
100058b6:	695b      	ldr	r3, [r3, #20]
100058b8:	2200      	movs	r2, #0
100058ba:	001c      	movs	r4, r3
100058bc:	2110      	movs	r1, #16
100058be:	2300      	movs	r3, #0
100058c0:	47a0      	blx	r4
100058c2:	726e      	strb	r6, [r5, #9]
100058c4:	e7c5      	b.n	10005852 <_ZN11ST7735_pico12drawFontCharEj+0x10ba>
100058c6:	6b3b      	ldr	r3, [r7, #48]	; 0x30
100058c8:	221e      	movs	r2, #30
100058ca:	5e9b      	ldrsh	r3, [r3, r2]
100058cc:	469c      	mov	ip, r3
100058ce:	6c7a      	ldr	r2, [r7, #68]	; 0x44
100058d0:	6bbb      	ldr	r3, [r7, #56]	; 0x38
100058d2:	4690      	mov	r8, r2
100058d4:	4443      	add	r3, r8
100058d6:	63bb      	str	r3, [r7, #56]	; 0x38
100058d8:	6bfb      	ldr	r3, [r7, #60]	; 0x3c
100058da:	6cfa      	ldr	r2, [r7, #76]	; 0x4c
100058dc:	4443      	add	r3, r8
100058de:	63fb      	str	r3, [r7, #60]	; 0x3c
100058e0:	429a      	cmp	r2, r3
100058e2:	d900      	bls.n	100058e6 <_ZN11ST7735_pico12drawFontCharEj+0x114e>
100058e4:	e736      	b.n	10005754 <_ZN11ST7735_pico12drawFontCharEj+0xfbc>
100058e6:	e783      	b.n	100057f0 <_ZN11ST7735_pico12drawFontCharEj+0x1058>
100058e8:	6c3b      	ldr	r3, [r7, #64]	; 0x40
100058ea:	1c5a      	adds	r2, r3, #1
100058ec:	4690      	mov	r8, r2
100058ee:	687a      	ldr	r2, [r7, #4]
100058f0:	429a      	cmp	r2, r3
100058f2:	db86      	blt.n	10005802 <_ZN11ST7735_pico12drawFontCharEj+0x106a>
100058f4:	68fb      	ldr	r3, [r7, #12]
100058f6:	4645      	mov	r5, r8
100058f8:	3301      	adds	r3, #1
100058fa:	469a      	mov	sl, r3
100058fc:	23d0      	movs	r3, #208	; 0xd0
100058fe:	061b      	lsls	r3, r3, #24
10005900:	4699      	mov	r9, r3
10005902:	6b3c      	ldr	r4, [r7, #48]	; 0x30
10005904:	e00e      	b.n	10005924 <_ZN11ST7735_pico12drawFontCharEj+0x118c>
10005906:	2381      	movs	r3, #129	; 0x81
10005908:	0032      	movs	r2, r6
1000590a:	5ce3      	ldrb	r3, [r4, r3]
1000590c:	4641      	mov	r1, r8
1000590e:	409a      	lsls	r2, r3
10005910:	0013      	movs	r3, r2
10005912:	464a      	mov	r2, r9
10005914:	6860      	ldr	r0, [r4, #4]
10005916:	6153      	str	r3, [r2, #20]
10005918:	3501      	adds	r5, #1
1000591a:	f7fa fe53 	bl	100005c4 <_ZN3SPI7write16Et>
1000591e:	4555      	cmp	r5, sl
10005920:	d100      	bne.n	10005924 <_ZN11ST7735_pico12drawFontCharEj+0x118c>
10005922:	e76e      	b.n	10005802 <_ZN11ST7735_pico12drawFontCharEj+0x106a>
10005924:	8ee3      	ldrh	r3, [r4, #54]	; 0x36
10005926:	4698      	mov	r8, r3
10005928:	7a63      	ldrb	r3, [r4, #9]
1000592a:	2b00      	cmp	r3, #0
1000592c:	d1eb      	bne.n	10005906 <_ZN11ST7735_pico12drawFontCharEj+0x116e>
1000592e:	6860      	ldr	r0, [r4, #4]
10005930:	6803      	ldr	r3, [r0, #0]
10005932:	691b      	ldr	r3, [r3, #16]
10005934:	4798      	blx	r3
10005936:	2800      	cmp	r0, #0
10005938:	d1f9      	bne.n	1000592e <_ZN11ST7735_pico12drawFontCharEj+0x1196>
1000593a:	2201      	movs	r2, #1
1000593c:	6860      	ldr	r0, [r4, #4]
1000593e:	2110      	movs	r1, #16
10005940:	6803      	ldr	r3, [r0, #0]
10005942:	9200      	str	r2, [sp, #0]
10005944:	695b      	ldr	r3, [r3, #20]
10005946:	2200      	movs	r2, #0
10005948:	469b      	mov	fp, r3
1000594a:	2300      	movs	r3, #0
1000594c:	47d8      	blx	fp
1000594e:	7266      	strb	r6, [r4, #9]
10005950:	e7d9      	b.n	10005906 <_ZN11ST7735_pico12drawFontCharEj+0x116e>
10005952:	697b      	ldr	r3, [r7, #20]
10005954:	6a7a      	ldr	r2, [r7, #36]	; 0x24
10005956:	4293      	cmp	r3, r2
10005958:	db00      	blt.n	1000595c <_ZN11ST7735_pico12drawFontCharEj+0x11c4>
1000595a:	e6f5      	b.n	10005748 <_ZN11ST7735_pico12drawFontCharEj+0xfb0>
1000595c:	001c      	movs	r4, r3
1000595e:	2381      	movs	r3, #129	; 0x81
10005960:	469a      	mov	sl, r3
10005962:	23d0      	movs	r3, #208	; 0xd0
10005964:	061b      	lsls	r3, r3, #24
10005966:	4699      	mov	r9, r3
10005968:	6b3b      	ldr	r3, [r7, #48]	; 0x30
1000596a:	4693      	mov	fp, r2
1000596c:	647b      	str	r3, [r7, #68]	; 0x44
1000596e:	e002      	b.n	10005976 <_ZN11ST7735_pico12drawFontCharEj+0x11de>
10005970:	3401      	adds	r4, #1
10005972:	45a3      	cmp	fp, r4
10005974:	d01a      	beq.n	100059ac <_ZN11ST7735_pico12drawFontCharEj+0x1214>
10005976:	6c79      	ldr	r1, [r7, #68]	; 0x44
10005978:	221c      	movs	r2, #28
1000597a:	5e8b      	ldrsh	r3, [r1, r2]
1000597c:	42a3      	cmp	r3, r4
1000597e:	dcf7      	bgt.n	10005970 <_ZN11ST7735_pico12drawFontCharEj+0x11d8>
10005980:	2220      	movs	r2, #32
10005982:	5e8b      	ldrsh	r3, [r1, r2]
10005984:	42a3      	cmp	r3, r4
10005986:	ddf3      	ble.n	10005970 <_ZN11ST7735_pico12drawFontCharEj+0x11d8>
10005988:	8ecb      	ldrh	r3, [r1, #54]	; 0x36
1000598a:	4698      	mov	r8, r3
1000598c:	7a4b      	ldrb	r3, [r1, #9]
1000598e:	2b00      	cmp	r3, #0
10005990:	d011      	beq.n	100059b6 <_ZN11ST7735_pico12drawFontCharEj+0x121e>
10005992:	4653      	mov	r3, sl
10005994:	0032      	movs	r2, r6
10005996:	6c78      	ldr	r0, [r7, #68]	; 0x44
10005998:	4641      	mov	r1, r8
1000599a:	5cc3      	ldrb	r3, [r0, r3]
1000599c:	6840      	ldr	r0, [r0, #4]
1000599e:	409a      	lsls	r2, r3
100059a0:	0013      	movs	r3, r2
100059a2:	464a      	mov	r2, r9
100059a4:	6153      	str	r3, [r2, #20]
100059a6:	f7fa fe0d 	bl	100005c4 <_ZN3SPI7write16Et>
100059aa:	e7e1      	b.n	10005970 <_ZN11ST7735_pico12drawFontCharEj+0x11d8>
100059ac:	6b3b      	ldr	r3, [r7, #48]	; 0x30
100059ae:	221e      	movs	r2, #30
100059b0:	5e9b      	ldrsh	r3, [r3, r2]
100059b2:	469c      	mov	ip, r3
100059b4:	e6c8      	b.n	10005748 <_ZN11ST7735_pico12drawFontCharEj+0xfb0>
100059b6:	000d      	movs	r5, r1
100059b8:	6868      	ldr	r0, [r5, #4]
100059ba:	6803      	ldr	r3, [r0, #0]
100059bc:	691b      	ldr	r3, [r3, #16]
100059be:	4798      	blx	r3
100059c0:	2800      	cmp	r0, #0
100059c2:	d1f9      	bne.n	100059b8 <_ZN11ST7735_pico12drawFontCharEj+0x1220>
100059c4:	2201      	movs	r2, #1
100059c6:	6868      	ldr	r0, [r5, #4]
100059c8:	647d      	str	r5, [r7, #68]	; 0x44
100059ca:	6803      	ldr	r3, [r0, #0]
100059cc:	9200      	str	r2, [sp, #0]
100059ce:	695b      	ldr	r3, [r3, #20]
100059d0:	2200      	movs	r2, #0
100059d2:	001d      	movs	r5, r3
100059d4:	2110      	movs	r1, #16
100059d6:	2300      	movs	r3, #0
100059d8:	47a8      	blx	r5
100059da:	6c7b      	ldr	r3, [r7, #68]	; 0x44
100059dc:	725e      	strb	r6, [r3, #9]
100059de:	e7d8      	b.n	10005992 <_ZN11ST7735_pico12drawFontCharEj+0x11fa>
100059e0:	69fb      	ldr	r3, [r7, #28]
100059e2:	63bb      	str	r3, [r7, #56]	; 0x38
100059e4:	e65e      	b.n	100056a4 <_ZN11ST7735_pico12drawFontCharEj+0xf0c>
100059e6:	6cfe      	ldr	r6, [r7, #76]	; 0x4c
100059e8:	6868      	ldr	r0, [r5, #4]
100059ea:	6803      	ldr	r3, [r0, #0]
100059ec:	691b      	ldr	r3, [r3, #16]
100059ee:	4798      	blx	r3
100059f0:	2800      	cmp	r0, #0
100059f2:	d1f9      	bne.n	100059e8 <_ZN11ST7735_pico12drawFontCharEj+0x1250>
100059f4:	464a      	mov	r2, r9
100059f6:	6868      	ldr	r0, [r5, #4]
100059f8:	64fe      	str	r6, [r7, #76]	; 0x4c
100059fa:	6803      	ldr	r3, [r0, #0]
100059fc:	9200      	str	r2, [sp, #0]
100059fe:	695b      	ldr	r3, [r3, #20]
10005a00:	2200      	movs	r2, #0
10005a02:	001e      	movs	r6, r3
10005a04:	2110      	movs	r1, #16
10005a06:	2300      	movs	r3, #0
10005a08:	47b0      	blx	r6
10005a0a:	464b      	mov	r3, r9
10005a0c:	726b      	strb	r3, [r5, #9]
10005a0e:	e4ae      	b.n	1000536e <_ZN11ST7735_pico12drawFontCharEj+0xbd6>
10005a10:	465c      	mov	r4, fp
10005a12:	6860      	ldr	r0, [r4, #4]
10005a14:	6803      	ldr	r3, [r0, #0]
10005a16:	691b      	ldr	r3, [r3, #16]
10005a18:	4798      	blx	r3
10005a1a:	2800      	cmp	r0, #0
10005a1c:	d1f9      	bne.n	10005a12 <_ZN11ST7735_pico12drawFontCharEj+0x127a>
10005a1e:	2201      	movs	r2, #1
10005a20:	46a3      	mov	fp, r4
10005a22:	0005      	movs	r5, r0
10005a24:	6860      	ldr	r0, [r4, #4]
10005a26:	2108      	movs	r1, #8
10005a28:	6803      	ldr	r3, [r0, #0]
10005a2a:	9200      	str	r2, [sp, #0]
10005a2c:	695c      	ldr	r4, [r3, #20]
10005a2e:	2200      	movs	r2, #0
10005a30:	2300      	movs	r3, #0
10005a32:	47a0      	blx	r4
10005a34:	465b      	mov	r3, fp
10005a36:	725d      	strb	r5, [r3, #9]
10005a38:	f7ff f8e3 	bl	10004c02 <_ZN11ST7735_pico12drawFontCharEj+0x46a>
10005a3c:	465c      	mov	r4, fp
10005a3e:	6860      	ldr	r0, [r4, #4]
10005a40:	6803      	ldr	r3, [r0, #0]
10005a42:	691b      	ldr	r3, [r3, #16]
10005a44:	4798      	blx	r3
10005a46:	2800      	cmp	r0, #0
10005a48:	d1f9      	bne.n	10005a3e <_ZN11ST7735_pico12drawFontCharEj+0x12a6>
10005a4a:	6860      	ldr	r0, [r4, #4]
10005a4c:	46a3      	mov	fp, r4
10005a4e:	2401      	movs	r4, #1
10005a50:	6803      	ldr	r3, [r0, #0]
10005a52:	9400      	str	r4, [sp, #0]
10005a54:	695d      	ldr	r5, [r3, #20]
10005a56:	2200      	movs	r2, #0
10005a58:	2300      	movs	r3, #0
10005a5a:	2110      	movs	r1, #16
10005a5c:	47a8      	blx	r5
10005a5e:	465b      	mov	r3, fp
10005a60:	725c      	strb	r4, [r3, #9]
10005a62:	f7ff f8fe 	bl	10004c62 <_ZN11ST7735_pico12drawFontCharEj+0x4ca>
10005a66:	465c      	mov	r4, fp
10005a68:	6860      	ldr	r0, [r4, #4]
10005a6a:	6803      	ldr	r3, [r0, #0]
10005a6c:	691b      	ldr	r3, [r3, #16]
10005a6e:	4798      	blx	r3
10005a70:	2800      	cmp	r0, #0
10005a72:	d1f9      	bne.n	10005a68 <_ZN11ST7735_pico12drawFontCharEj+0x12d0>
10005a74:	6860      	ldr	r0, [r4, #4]
10005a76:	46a3      	mov	fp, r4
10005a78:	2401      	movs	r4, #1
10005a7a:	6803      	ldr	r3, [r0, #0]
10005a7c:	9400      	str	r4, [sp, #0]
10005a7e:	695d      	ldr	r5, [r3, #20]
10005a80:	2200      	movs	r2, #0
10005a82:	2300      	movs	r3, #0
10005a84:	2110      	movs	r1, #16
10005a86:	47a8      	blx	r5
10005a88:	465b      	mov	r3, fp
10005a8a:	725c      	strb	r4, [r3, #9]
10005a8c:	f7ff f8d1 	bl	10004c32 <_ZN11ST7735_pico12drawFontCharEj+0x49a>
10005a90:	465c      	mov	r4, fp
10005a92:	6860      	ldr	r0, [r4, #4]
10005a94:	6803      	ldr	r3, [r0, #0]
10005a96:	691b      	ldr	r3, [r3, #16]
10005a98:	4798      	blx	r3
10005a9a:	2800      	cmp	r0, #0
10005a9c:	d1f9      	bne.n	10005a92 <_ZN11ST7735_pico12drawFontCharEj+0x12fa>
10005a9e:	2201      	movs	r2, #1
10005aa0:	46a3      	mov	fp, r4
10005aa2:	0005      	movs	r5, r0
10005aa4:	6860      	ldr	r0, [r4, #4]
10005aa6:	2108      	movs	r1, #8
10005aa8:	6803      	ldr	r3, [r0, #0]
10005aaa:	9200      	str	r2, [sp, #0]
10005aac:	695c      	ldr	r4, [r3, #20]
10005aae:	2200      	movs	r2, #0
10005ab0:	2300      	movs	r3, #0
10005ab2:	47a0      	blx	r4
10005ab4:	465b      	mov	r3, fp
10005ab6:	725d      	strb	r5, [r3, #9]
10005ab8:	f7ff f92c 	bl	10004d14 <_ZN11ST7735_pico12drawFontCharEj+0x57c>
10005abc:	465c      	mov	r4, fp
10005abe:	6860      	ldr	r0, [r4, #4]
10005ac0:	6803      	ldr	r3, [r0, #0]
10005ac2:	691b      	ldr	r3, [r3, #16]
10005ac4:	4798      	blx	r3
10005ac6:	2800      	cmp	r0, #0
10005ac8:	d1f9      	bne.n	10005abe <_ZN11ST7735_pico12drawFontCharEj+0x1326>
10005aca:	6860      	ldr	r0, [r4, #4]
10005acc:	46a3      	mov	fp, r4
10005ace:	2401      	movs	r4, #1
10005ad0:	6803      	ldr	r3, [r0, #0]
10005ad2:	9400      	str	r4, [sp, #0]
10005ad4:	695d      	ldr	r5, [r3, #20]
10005ad6:	2200      	movs	r2, #0
10005ad8:	2300      	movs	r3, #0
10005ada:	2110      	movs	r1, #16
10005adc:	47a8      	blx	r5
10005ade:	465b      	mov	r3, fp
10005ae0:	725c      	strb	r4, [r3, #9]
10005ae2:	f7ff f904 	bl	10004cee <_ZN11ST7735_pico12drawFontCharEj+0x556>
10005ae6:	465c      	mov	r4, fp
10005ae8:	6860      	ldr	r0, [r4, #4]
10005aea:	6803      	ldr	r3, [r0, #0]
10005aec:	691b      	ldr	r3, [r3, #16]
10005aee:	4798      	blx	r3
10005af0:	2800      	cmp	r0, #0
10005af2:	d1f9      	bne.n	10005ae8 <_ZN11ST7735_pico12drawFontCharEj+0x1350>
10005af4:	6860      	ldr	r0, [r4, #4]
10005af6:	46a3      	mov	fp, r4
10005af8:	2401      	movs	r4, #1
10005afa:	6803      	ldr	r3, [r0, #0]
10005afc:	9400      	str	r4, [sp, #0]
10005afe:	695d      	ldr	r5, [r3, #20]
10005b00:	2200      	movs	r2, #0
10005b02:	2300      	movs	r3, #0
10005b04:	2110      	movs	r1, #16
10005b06:	47a8      	blx	r5
10005b08:	465b      	mov	r3, fp
10005b0a:	725c      	strb	r4, [r3, #9]
10005b0c:	f7ff f8d7 	bl	10004cbe <_ZN11ST7735_pico12drawFontCharEj+0x526>
10005b10:	465c      	mov	r4, fp
10005b12:	6860      	ldr	r0, [r4, #4]
10005b14:	6803      	ldr	r3, [r0, #0]
10005b16:	691b      	ldr	r3, [r3, #16]
10005b18:	4798      	blx	r3
10005b1a:	2800      	cmp	r0, #0
10005b1c:	d1f9      	bne.n	10005b12 <_ZN11ST7735_pico12drawFontCharEj+0x137a>
10005b1e:	2201      	movs	r2, #1
10005b20:	46a3      	mov	fp, r4
10005b22:	0005      	movs	r5, r0
10005b24:	6860      	ldr	r0, [r4, #4]
10005b26:	2108      	movs	r1, #8
10005b28:	6803      	ldr	r3, [r0, #0]
10005b2a:	9200      	str	r2, [sp, #0]
10005b2c:	695c      	ldr	r4, [r3, #20]
10005b2e:	2200      	movs	r2, #0
10005b30:	2300      	movs	r3, #0
10005b32:	47a0      	blx	r4
10005b34:	465b      	mov	r3, fp
10005b36:	725d      	strb	r5, [r3, #9]
10005b38:	f7ff f8a6 	bl	10004c88 <_ZN11ST7735_pico12drawFontCharEj+0x4f0>
10005b3c:	b2a9      	uxth	r1, r5
10005b3e:	6479      	str	r1, [r7, #68]	; 0x44
10005b40:	f7ff f9b5 	bl	10004eae <_ZN11ST7735_pico12drawFontCharEj+0x716>

10005b44 <_ZN11ST7735_pico11drawString1EPKcsii>:
10005b44:	b5f0      	push	{r4, r5, r6, r7, lr}
10005b46:	4657      	mov	r7, sl
10005b48:	464e      	mov	r6, r9
10005b4a:	4645      	mov	r5, r8
10005b4c:	46de      	mov	lr, fp
10005b4e:	b5e0      	push	{r5, r6, r7, lr}
10005b50:	b087      	sub	sp, #28
10005b52:	0004      	movs	r4, r0
10005b54:	4688      	mov	r8, r1
10005b56:	0017      	movs	r7, r2
10005b58:	001e      	movs	r6, r3
10005b5a:	9d10      	ldr	r5, [sp, #64]	; 0x40
10005b5c:	f7fe fc62 	bl	10004424 <_ZN11ST7735_pico11strPixelLenEPKc>
10005b60:	b283      	uxth	r3, r0
10005b62:	4699      	mov	r9, r3
10005b64:	2345      	movs	r3, #69	; 0x45
10005b66:	2101      	movs	r1, #1
10005b68:	5ce2      	ldrb	r2, [r4, r3]
10005b6a:	3302      	adds	r3, #2
10005b6c:	5ce3      	ldrb	r3, [r4, r3]
10005b6e:	468a      	mov	sl, r1
10005b70:	2b00      	cmp	r3, #0
10005b72:	d018      	beq.n	10005ba6 <_ZN11ST7735_pico11drawString1EPKcsii+0x62>
10005b74:	00d1      	lsls	r1, r2, #3
10005b76:	2b08      	cmp	r3, #8
10005b78:	d805      	bhi.n	10005b86 <_ZN11ST7735_pico11drawString1EPKcsii+0x42>
10005b7a:	486c      	ldr	r0, [pc, #432]	; (10005d2c <_ZN11ST7735_pico11drawString1EPKcsii+0x1e8>)
10005b7c:	009b      	lsls	r3, r3, #2
10005b7e:	58c3      	ldr	r3, [r0, r3]
10005b80:	469f      	mov	pc, r3
10005b82:	0849      	lsrs	r1, r1, #1
10005b84:	1a6d      	subs	r5, r5, r1
10005b86:	2301      	movs	r3, #1
10005b88:	469a      	mov	sl, r3
10005b8a:	43f3      	mvns	r3, r6
10005b8c:	17db      	asrs	r3, r3, #31
10005b8e:	401e      	ands	r6, r3
10005b90:	2126      	movs	r1, #38	; 0x26
10005b92:	5e63      	ldrsh	r3, [r4, r1]
10005b94:	4649      	mov	r1, r9
10005b96:	1871      	adds	r1, r6, r1
10005b98:	4299      	cmp	r1, r3
10005b9a:	dd01      	ble.n	10005ba0 <_ZN11ST7735_pico11drawString1EPKcsii+0x5c>
10005b9c:	4649      	mov	r1, r9
10005b9e:	1a5e      	subs	r6, r3, r1
10005ba0:	43eb      	mvns	r3, r5
10005ba2:	17db      	asrs	r3, r3, #31
10005ba4:	401d      	ands	r5, r3
10005ba6:	6ce3      	ldr	r3, [r4, #76]	; 0x4c
10005ba8:	2b00      	cmp	r3, #0
10005baa:	d06d      	beq.n	10005c88 <_ZN11ST7735_pico11drawString1EPKcsii+0x144>
10005bac:	2300      	movs	r3, #0
10005bae:	0020      	movs	r0, r4
10005bb0:	b22a      	sxth	r2, r5
10005bb2:	b231      	sxth	r1, r6
10005bb4:	f7fd fc42 	bl	1000343c <_ZN11ST7735_pico9setCursorEssb>
10005bb8:	2f00      	cmp	r7, #0
10005bba:	dd5b      	ble.n	10005c74 <_ZN11ST7735_pico11drawString1EPKcsii+0x130>
10005bbc:	2300      	movs	r3, #0
10005bbe:	4699      	mov	r9, r3
10005bc0:	4b5b      	ldr	r3, [pc, #364]	; (10005d30 <_ZN11ST7735_pico11drawString1EPKcsii+0x1ec>)
10005bc2:	4642      	mov	r2, r8
10005bc4:	469b      	mov	fp, r3
10005bc6:	2301      	movs	r3, #1
10005bc8:	2500      	movs	r5, #0
10005bca:	469a      	mov	sl, r3
10005bcc:	46b8      	mov	r8, r7
10005bce:	9205      	str	r2, [sp, #20]
10005bd0:	e026      	b.n	10005c20 <_ZN11ST7735_pico11drawString1EPKcsii+0xdc>
10005bd2:	2028      	movs	r0, #40	; 0x28
10005bd4:	5e21      	ldrsh	r1, [r4, r0]
10005bd6:	428a      	cmp	r2, r1
10005bd8:	db01      	blt.n	10005bde <_ZN11ST7735_pico11drawString1EPKcsii+0x9a>
10005bda:	3901      	subs	r1, #1
10005bdc:	b20a      	sxth	r2, r1
10005bde:	212a      	movs	r1, #42	; 0x2a
10005be0:	5e60      	ldrsh	r0, [r4, r1]
10005be2:	81a2      	strh	r2, [r4, #12]
10005be4:	2100      	movs	r1, #0
10005be6:	4283      	cmp	r3, r0
10005be8:	db11      	blt.n	10005c0e <_ZN11ST7735_pico11drawString1EPKcsii+0xca>
10005bea:	262e      	movs	r6, #46	; 0x2e
10005bec:	5fa7      	ldrsh	r7, [r4, r6]
10005bee:	46bc      	mov	ip, r7
10005bf0:	4460      	add	r0, ip
10005bf2:	4283      	cmp	r3, r0
10005bf4:	dc0b      	bgt.n	10005c0e <_ZN11ST7735_pico11drawString1EPKcsii+0xca>
10005bf6:	232c      	movs	r3, #44	; 0x2c
10005bf8:	5ee0      	ldrsh	r0, [r4, r3]
10005bfa:	4282      	cmp	r2, r0
10005bfc:	db07      	blt.n	10005c0e <_ZN11ST7735_pico11drawString1EPKcsii+0xca>
10005bfe:	2130      	movs	r1, #48	; 0x30
10005c00:	5e63      	ldrsh	r3, [r4, r1]
10005c02:	0fd1      	lsrs	r1, r2, #31
10005c04:	181b      	adds	r3, r3, r0
10005c06:	17d8      	asrs	r0, r3, #31
10005c08:	4293      	cmp	r3, r2
10005c0a:	4141      	adcs	r1, r0
10005c0c:	b2c9      	uxtb	r1, r1
10005c0e:	2333      	movs	r3, #51	; 0x33
10005c10:	464a      	mov	r2, r9
10005c12:	3501      	adds	r5, #1
10005c14:	54e1      	strb	r1, [r4, r3]
10005c16:	b2ed      	uxtb	r5, r5
10005c18:	3339      	adds	r3, #57	; 0x39
10005c1a:	52e2      	strh	r2, [r4, r3]
10005c1c:	4545      	cmp	r5, r8
10005c1e:	da29      	bge.n	10005c74 <_ZN11ST7735_pico11drawString1EPKcsii+0x130>
10005c20:	9b05      	ldr	r3, [sp, #20]
10005c22:	0020      	movs	r0, r4
10005c24:	5d59      	ldrb	r1, [r3, r5]
10005c26:	f7fe fdb7 	bl	10004798 <_ZN11ST7735_pico12drawFontCharEj>
10005c2a:	220a      	movs	r2, #10
10005c2c:	5ea3      	ldrsh	r3, [r4, r2]
10005c2e:	210c      	movs	r1, #12
10005c30:	5e62      	ldrsh	r2, [r4, r1]
10005c32:	4649      	mov	r1, r9
10005c34:	81e1      	strh	r1, [r4, #14]
10005c36:	455b      	cmp	r3, fp
10005c38:	d106      	bne.n	10005c48 <_ZN11ST7735_pico11drawString1EPKcsii+0x104>
10005c3a:	4653      	mov	r3, sl
10005c3c:	73a3      	strb	r3, [r4, #14]
10005c3e:	2326      	movs	r3, #38	; 0x26
10005c40:	5ee1      	ldrsh	r1, [r4, r3]
10005c42:	0fcb      	lsrs	r3, r1, #31
10005c44:	185b      	adds	r3, r3, r1
10005c46:	105b      	asrs	r3, r3, #1
10005c48:	455a      	cmp	r2, fp
10005c4a:	d106      	bne.n	10005c5a <_ZN11ST7735_pico11drawString1EPKcsii+0x116>
10005c4c:	4652      	mov	r2, sl
10005c4e:	73e2      	strb	r2, [r4, #15]
10005c50:	2228      	movs	r2, #40	; 0x28
10005c52:	5ea1      	ldrsh	r1, [r4, r2]
10005c54:	0fca      	lsrs	r2, r1, #31
10005c56:	1852      	adds	r2, r2, r1
10005c58:	1052      	asrs	r2, r2, #1
10005c5a:	2b00      	cmp	r3, #0
10005c5c:	db12      	blt.n	10005c84 <_ZN11ST7735_pico11drawString1EPKcsii+0x140>
10005c5e:	2026      	movs	r0, #38	; 0x26
10005c60:	5e21      	ldrsh	r1, [r4, r0]
10005c62:	428b      	cmp	r3, r1
10005c64:	db01      	blt.n	10005c6a <_ZN11ST7735_pico11drawString1EPKcsii+0x126>
10005c66:	3901      	subs	r1, #1
10005c68:	b20b      	sxth	r3, r1
10005c6a:	8163      	strh	r3, [r4, #10]
10005c6c:	2a00      	cmp	r2, #0
10005c6e:	dab0      	bge.n	10005bd2 <_ZN11ST7735_pico11drawString1EPKcsii+0x8e>
10005c70:	2200      	movs	r2, #0
10005c72:	e7b4      	b.n	10005bde <_ZN11ST7735_pico11drawString1EPKcsii+0x9a>
10005c74:	2000      	movs	r0, #0
10005c76:	b007      	add	sp, #28
10005c78:	bcf0      	pop	{r4, r5, r6, r7}
10005c7a:	46bb      	mov	fp, r7
10005c7c:	46b2      	mov	sl, r6
10005c7e:	46a9      	mov	r9, r5
10005c80:	46a0      	mov	r8, r4
10005c82:	bdf0      	pop	{r4, r5, r6, r7, pc}
10005c84:	2300      	movs	r3, #0
10005c86:	e7f0      	b.n	10005c6a <_ZN11ST7735_pico11drawString1EPKcsii+0x126>
10005c88:	2f00      	cmp	r7, #0
10005c8a:	ddf3      	ble.n	10005c74 <_ZN11ST7735_pico11drawString1EPKcsii+0x130>
10005c8c:	2000      	movs	r0, #0
10005c8e:	b2b3      	uxth	r3, r6
10005c90:	9305      	str	r3, [sp, #20]
10005c92:	b22b      	sxth	r3, r5
10005c94:	469b      	mov	fp, r3
10005c96:	2600      	movs	r6, #0
10005c98:	0005      	movs	r5, r0
10005c9a:	e001      	b.n	10005ca0 <_ZN11ST7735_pico11drawString1EPKcsii+0x15c>
10005c9c:	2345      	movs	r3, #69	; 0x45
10005c9e:	5ce2      	ldrb	r2, [r4, r3]
10005ca0:	4643      	mov	r3, r8
10005ca2:	5d9b      	ldrb	r3, [r3, r6]
10005ca4:	9203      	str	r2, [sp, #12]
10005ca6:	2244      	movs	r2, #68	; 0x44
10005ca8:	5ca2      	ldrb	r2, [r4, r2]
10005caa:	9905      	ldr	r1, [sp, #20]
10005cac:	9202      	str	r2, [sp, #8]
10005cae:	8ee2      	ldrh	r2, [r4, #54]	; 0x36
10005cb0:	b2ad      	uxth	r5, r5
10005cb2:	9201      	str	r2, [sp, #4]
10005cb4:	8ea2      	ldrh	r2, [r4, #52]	; 0x34
10005cb6:	1869      	adds	r1, r5, r1
10005cb8:	0020      	movs	r0, r4
10005cba:	b209      	sxth	r1, r1
10005cbc:	9200      	str	r2, [sp, #0]
10005cbe:	465a      	mov	r2, fp
10005cc0:	f7fd fc10 	bl	100034e4 <_ZN11ST7735_pico8drawCharEsshtthh>
10005cc4:	0039      	movs	r1, r7
10005cc6:	4648      	mov	r0, r9
10005cc8:	f002 fc16 	bl	100084f8 <__wrap___aeabi_idiv>
10005ccc:	3601      	adds	r6, #1
10005cce:	182d      	adds	r5, r5, r0
10005cd0:	4455      	add	r5, sl
10005cd2:	b2f6      	uxtb	r6, r6
10005cd4:	b22d      	sxth	r5, r5
10005cd6:	42be      	cmp	r6, r7
10005cd8:	dbe0      	blt.n	10005c9c <_ZN11ST7735_pico11drawString1EPKcsii+0x158>
10005cda:	0028      	movs	r0, r5
10005cdc:	e7cb      	b.n	10005c76 <_ZN11ST7735_pico11drawString1EPKcsii+0x132>
10005cde:	464b      	mov	r3, r9
10005ce0:	085b      	lsrs	r3, r3, #1
10005ce2:	1af6      	subs	r6, r6, r3
10005ce4:	2302      	movs	r3, #2
10005ce6:	469a      	mov	sl, r3
10005ce8:	e74f      	b.n	10005b8a <_ZN11ST7735_pico11drawString1EPKcsii+0x46>
10005cea:	464b      	mov	r3, r9
10005cec:	1af6      	subs	r6, r6, r3
10005cee:	2303      	movs	r3, #3
10005cf0:	469a      	mov	sl, r3
10005cf2:	e74a      	b.n	10005b8a <_ZN11ST7735_pico11drawString1EPKcsii+0x46>
10005cf4:	464b      	mov	r3, r9
10005cf6:	085b      	lsrs	r3, r3, #1
10005cf8:	1af6      	subs	r6, r6, r3
10005cfa:	2302      	movs	r3, #2
10005cfc:	0849      	lsrs	r1, r1, #1
10005cfe:	469a      	mov	sl, r3
10005d00:	1a6d      	subs	r5, r5, r1
10005d02:	e742      	b.n	10005b8a <_ZN11ST7735_pico11drawString1EPKcsii+0x46>
10005d04:	464b      	mov	r3, r9
10005d06:	1af6      	subs	r6, r6, r3
10005d08:	2303      	movs	r3, #3
10005d0a:	0849      	lsrs	r1, r1, #1
10005d0c:	469a      	mov	sl, r3
10005d0e:	1a6d      	subs	r5, r5, r1
10005d10:	e73b      	b.n	10005b8a <_ZN11ST7735_pico11drawString1EPKcsii+0x46>
10005d12:	464b      	mov	r3, r9
10005d14:	085b      	lsrs	r3, r3, #1
10005d16:	1af6      	subs	r6, r6, r3
10005d18:	2302      	movs	r3, #2
10005d1a:	1a6d      	subs	r5, r5, r1
10005d1c:	469a      	mov	sl, r3
10005d1e:	e734      	b.n	10005b8a <_ZN11ST7735_pico11drawString1EPKcsii+0x46>
10005d20:	464b      	mov	r3, r9
10005d22:	1af6      	subs	r6, r6, r3
10005d24:	2303      	movs	r3, #3
10005d26:	1a6d      	subs	r5, r5, r1
10005d28:	469a      	mov	sl, r3
10005d2a:	e72e      	b.n	10005b8a <_ZN11ST7735_pico11drawString1EPKcsii+0x46>
10005d2c:	100095e0 	.word	0x100095e0
10005d30:	0000270e 	.word	0x0000270e

10005d34 <_ZN11ST7735_pico10drawStringEPKcii>:
10005d34:	b5f0      	push	{r4, r5, r6, r7, lr}
10005d36:	0005      	movs	r5, r0
10005d38:	b083      	sub	sp, #12
10005d3a:	0008      	movs	r0, r1
10005d3c:	0016      	movs	r6, r2
10005d3e:	001f      	movs	r7, r3
10005d40:	000c      	movs	r4, r1
10005d42:	f003 fa6d 	bl	10009220 <strlen>
10005d46:	0033      	movs	r3, r6
10005d48:	b202      	sxth	r2, r0
10005d4a:	0021      	movs	r1, r4
10005d4c:	0028      	movs	r0, r5
10005d4e:	9700      	str	r7, [sp, #0]
10005d50:	f7ff fef8 	bl	10005b44 <_ZN11ST7735_pico11drawString1EPKcsii>
10005d54:	b003      	add	sp, #12
10005d56:	bdf0      	pop	{r4, r5, r6, r7, pc}

10005d58 <_ZN11ST7735_pico20gfxFontLastCharPosFGEss>:
10005d58:	b5f8      	push	{r3, r4, r5, r6, r7, lr}
10005d5a:	46ce      	mov	lr, r9
10005d5c:	4647      	mov	r7, r8
10005d5e:	0014      	movs	r4, r2
10005d60:	226c      	movs	r2, #108	; 0x6c
10005d62:	b580      	push	{r7, lr}
10005d64:	5e82      	ldrsh	r2, [r0, r2]
10005d66:	4689      	mov	r9, r1
10005d68:	428a      	cmp	r2, r1
10005d6a:	dd45      	ble.n	10005df8 <_ZN11ST7735_pico20gfxFontLastCharPosFGEss+0xa0>
10005d6c:	6dc6      	ldr	r6, [r0, #92]	; 0x5c
10005d6e:	6e43      	ldr	r3, [r0, #100]	; 0x64
10005d70:	7a35      	ldrb	r5, [r6, #8]
10005d72:	2706      	movs	r7, #6
10005d74:	1b5d      	subs	r5, r3, r5
10005d76:	6873      	ldr	r3, [r6, #4]
10005d78:	00ed      	lsls	r5, r5, #3
10005d7a:	469c      	mov	ip, r3
10005d7c:	7ab1      	ldrb	r1, [r6, #10]
10005d7e:	4465      	add	r5, ip
10005d80:	57ef      	ldrsb	r7, [r5, r7]
10005d82:	0849      	lsrs	r1, r1, #1
10005d84:	19c9      	adds	r1, r1, r7
10005d86:	2745      	movs	r7, #69	; 0x45
10005d88:	226a      	movs	r2, #106	; 0x6a
10005d8a:	5dc7      	ldrb	r7, [r0, r7]
10005d8c:	5e82      	ldrsh	r2, [r0, r2]
10005d8e:	003b      	movs	r3, r7
10005d90:	434b      	muls	r3, r1
10005d92:	4698      	mov	r8, r3
10005d94:	4490      	add	r8, r2
10005d96:	4544      	cmp	r4, r8
10005d98:	db2e      	blt.n	10005df8 <_ZN11ST7735_pico20gfxFontLastCharPosFGEss+0xa0>
10005d9a:	78eb      	ldrb	r3, [r5, #3]
10005d9c:	469c      	mov	ip, r3
10005d9e:	4461      	add	r1, ip
10005da0:	4379      	muls	r1, r7
10005da2:	1889      	adds	r1, r1, r2
10005da4:	428c      	cmp	r4, r1
10005da6:	da27      	bge.n	10005df8 <_ZN11ST7735_pico20gfxFontLastCharPosFGEss+0xa0>
10005da8:	2244      	movs	r2, #68	; 0x44
10005daa:	2368      	movs	r3, #104	; 0x68
10005dac:	5c81      	ldrb	r1, [r0, r2]
10005dae:	2205      	movs	r2, #5
10005db0:	5ec0      	ldrsh	r0, [r0, r3]
10005db2:	464b      	mov	r3, r9
10005db4:	56aa      	ldrsb	r2, [r5, r2]
10005db6:	434a      	muls	r2, r1
10005db8:	1810      	adds	r0, r2, r0
10005dba:	1a18      	subs	r0, r3, r0
10005dbc:	1840      	adds	r0, r0, r1
10005dbe:	3801      	subs	r0, #1
10005dc0:	f002 fb9a 	bl	100084f8 <__wrap___aeabi_idiv>
10005dc4:	4643      	mov	r3, r8
10005dc6:	4681      	mov	r9, r0
10005dc8:	1ae0      	subs	r0, r4, r3
10005dca:	19c0      	adds	r0, r0, r7
10005dcc:	0039      	movs	r1, r7
10005dce:	3801      	subs	r0, #1
10005dd0:	f002 fb92 	bl	100084f8 <__wrap___aeabi_idiv>
10005dd4:	78ab      	ldrb	r3, [r5, #2]
10005dd6:	6832      	ldr	r2, [r6, #0]
10005dd8:	4343      	muls	r3, r0
10005dda:	8828      	ldrh	r0, [r5, #0]
10005ddc:	444b      	add	r3, r9
10005dde:	b29b      	uxth	r3, r3
10005de0:	1812      	adds	r2, r2, r0
10005de2:	08d9      	lsrs	r1, r3, #3
10005de4:	5c51      	ldrb	r1, [r2, r1]
10005de6:	2207      	movs	r2, #7
10005de8:	2080      	movs	r0, #128	; 0x80
10005dea:	4013      	ands	r3, r2
10005dec:	4118      	asrs	r0, r3
10005dee:	4008      	ands	r0, r1
10005df0:	1e43      	subs	r3, r0, #1
10005df2:	4198      	sbcs	r0, r3
10005df4:	b2c0      	uxtb	r0, r0
10005df6:	e000      	b.n	10005dfa <_ZN11ST7735_pico20gfxFontLastCharPosFGEss+0xa2>
10005df8:	2000      	movs	r0, #0
10005dfa:	bcc0      	pop	{r6, r7}
10005dfc:	46b9      	mov	r9, r7
10005dfe:	46b0      	mov	r8, r6
10005e00:	bdf8      	pop	{r3, r4, r5, r6, r7, pc}
10005e02:	46c0      	nop			; (mov r8, r8)

10005e04 <_ZN11ST7735_pico15drawGFXFontCharEj>:
10005e04:	b5f0      	push	{r4, r5, r6, r7, lr}
10005e06:	4657      	mov	r7, sl
10005e08:	46de      	mov	lr, fp
10005e0a:	464e      	mov	r6, r9
10005e0c:	4645      	mov	r5, r8
10005e0e:	b5e0      	push	{r5, r6, r7, lr}
10005e10:	b099      	sub	sp, #100	; 0x64
10005e12:	0007      	movs	r7, r0
10005e14:	9111      	str	r1, [sp, #68]	; 0x44
10005e16:	290d      	cmp	r1, #13
10005e18:	d015      	beq.n	10005e46 <_ZN11ST7735_pico15drawGFXFontCharEj+0x42>
10005e1a:	6dc0      	ldr	r0, [r0, #92]	; 0x5c
10005e1c:	7a03      	ldrb	r3, [r0, #8]
10005e1e:	428b      	cmp	r3, r1
10005e20:	d811      	bhi.n	10005e46 <_ZN11ST7735_pico15drawGFXFontCharEj+0x42>
10005e22:	7a42      	ldrb	r2, [r0, #9]
10005e24:	428a      	cmp	r2, r1
10005e26:	d30e      	bcc.n	10005e46 <_ZN11ST7735_pico15drawGFXFontCharEj+0x42>
10005e28:	6842      	ldr	r2, [r0, #4]
10005e2a:	1acb      	subs	r3, r1, r3
10005e2c:	4694      	mov	ip, r2
10005e2e:	00db      	lsls	r3, r3, #3
10005e30:	4463      	add	r3, ip
10005e32:	9313      	str	r3, [sp, #76]	; 0x4c
10005e34:	789a      	ldrb	r2, [r3, #2]
10005e36:	920f      	str	r2, [sp, #60]	; 0x3c
10005e38:	78db      	ldrb	r3, [r3, #3]
10005e3a:	9310      	str	r3, [sp, #64]	; 0x40
10005e3c:	2a00      	cmp	r2, #0
10005e3e:	d109      	bne.n	10005e54 <_ZN11ST7735_pico15drawGFXFontCharEj+0x50>
10005e40:	9b11      	ldr	r3, [sp, #68]	; 0x44
10005e42:	2b20      	cmp	r3, #32
10005e44:	d008      	beq.n	10005e58 <_ZN11ST7735_pico15drawGFXFontCharEj+0x54>
10005e46:	b019      	add	sp, #100	; 0x64
10005e48:	bcf0      	pop	{r4, r5, r6, r7}
10005e4a:	46bb      	mov	fp, r7
10005e4c:	46b2      	mov	sl, r6
10005e4e:	46a9      	mov	r9, r5
10005e50:	46a0      	mov	r8, r4
10005e52:	bdf0      	pop	{r4, r5, r6, r7, pc}
10005e54:	2b00      	cmp	r3, #0
10005e56:	d0f3      	beq.n	10005e40 <_ZN11ST7735_pico15drawGFXFontCharEj+0x3c>
10005e58:	2305      	movs	r3, #5
10005e5a:	9a13      	ldr	r2, [sp, #76]	; 0x4c
10005e5c:	56d3      	ldrsb	r3, [r2, r3]
10005e5e:	9304      	str	r3, [sp, #16]
10005e60:	7a83      	ldrb	r3, [r0, #10]
10005e62:	0859      	lsrs	r1, r3, #1
10005e64:	468c      	mov	ip, r1
10005e66:	9102      	str	r1, [sp, #8]
10005e68:	7992      	ldrb	r2, [r2, #6]
10005e6a:	b252      	sxtb	r2, r2
10005e6c:	4462      	add	r2, ip
10005e6e:	9208      	str	r2, [sp, #32]
10005e70:	2248      	movs	r2, #72	; 0x48
10005e72:	5cba      	ldrb	r2, [r7, r2]
10005e74:	2a00      	cmp	r2, #0
10005e76:	d000      	beq.n	10005e7a <_ZN11ST7735_pico15drawGFXFontCharEj+0x76>
10005e78:	e186      	b.n	10006188 <_ZN11ST7735_pico15drawGFXFontCharEj+0x384>
10005e7a:	220a      	movs	r2, #10
10005e7c:	5eb9      	ldrsh	r1, [r7, r2]
10005e7e:	897a      	ldrh	r2, [r7, #10]
10005e80:	6800      	ldr	r0, [r0, #0]
10005e82:	9007      	str	r0, [sp, #28]
10005e84:	9813      	ldr	r0, [sp, #76]	; 0x4c
10005e86:	8800      	ldrh	r0, [r0, #0]
10005e88:	900c      	str	r0, [sp, #48]	; 0x30
10005e8a:	8ebc      	ldrh	r4, [r7, #52]	; 0x34
10005e8c:	8ef8      	ldrh	r0, [r7, #54]	; 0x36
10005e8e:	4284      	cmp	r4, r0
10005e90:	d100      	bne.n	10005e94 <_ZN11ST7735_pico15drawGFXFontCharEj+0x90>
10005e92:	e18d      	b.n	100061b0 <_ZN11ST7735_pico15drawGFXFontCharEj+0x3ac>
10005e94:	8b39      	ldrh	r1, [r7, #24]
10005e96:	9e0f      	ldr	r6, [sp, #60]	; 0x3c
10005e98:	1851      	adds	r1, r2, r1
10005e9a:	b288      	uxth	r0, r1
10005e9c:	b209      	sxth	r1, r1
10005e9e:	910b      	str	r1, [sp, #44]	; 0x2c
10005ea0:	9913      	ldr	r1, [sp, #76]	; 0x4c
10005ea2:	46b0      	mov	r8, r6
10005ea4:	790d      	ldrb	r5, [r1, #4]
10005ea6:	2144      	movs	r1, #68	; 0x44
10005ea8:	002c      	movs	r4, r5
10005eaa:	5c79      	ldrb	r1, [r7, r1]
10005eac:	434c      	muls	r4, r1
10005eae:	46a4      	mov	ip, r4
10005eb0:	9c04      	ldr	r4, [sp, #16]
10005eb2:	4444      	add	r4, r8
10005eb4:	42a5      	cmp	r5, r4
10005eb6:	da00      	bge.n	10005eba <_ZN11ST7735_pico15drawGFXFontCharEj+0xb6>
10005eb8:	e2c8      	b.n	1000644c <_ZN11ST7735_pico15drawGFXFontCharEj+0x648>
10005eba:	4664      	mov	r4, ip
10005ebc:	1904      	adds	r4, r0, r4
10005ebe:	b2a4      	uxth	r4, r4
10005ec0:	46a2      	mov	sl, r4
10005ec2:	9c04      	ldr	r4, [sp, #16]
10005ec4:	4361      	muls	r1, r4
10005ec6:	1841      	adds	r1, r0, r1
10005ec8:	980b      	ldr	r0, [sp, #44]	; 0x2c
10005eca:	b209      	sxth	r1, r1
10005ecc:	9114      	str	r1, [sp, #80]	; 0x50
10005ece:	9012      	str	r0, [sp, #72]	; 0x48
10005ed0:	2c00      	cmp	r4, #0
10005ed2:	da02      	bge.n	10005eda <_ZN11ST7735_pico15drawGFXFontCharEj+0xd6>
10005ed4:	9112      	str	r1, [sp, #72]	; 0x48
10005ed6:	2100      	movs	r1, #0
10005ed8:	9114      	str	r1, [sp, #80]	; 0x50
10005eda:	2120      	movs	r1, #32
10005edc:	5e7d      	ldrsh	r5, [r7, r1]
10005ede:	9912      	ldr	r1, [sp, #72]	; 0x48
10005ee0:	428d      	cmp	r5, r1
10005ee2:	dc00      	bgt.n	10005ee6 <_ZN11ST7735_pico15drawGFXFontCharEj+0xe2>
10005ee4:	e161      	b.n	100061aa <_ZN11ST7735_pico15drawGFXFontCharEj+0x3a6>
10005ee6:	210c      	movs	r1, #12
10005ee8:	5e78      	ldrsh	r0, [r7, r1]
10005eea:	241a      	movs	r4, #26
10005eec:	5f39      	ldrsh	r1, [r7, r4]
10005eee:	2460      	movs	r4, #96	; 0x60
10005ef0:	573c      	ldrsb	r4, [r7, r4]
10005ef2:	1840      	adds	r0, r0, r1
10005ef4:	46a0      	mov	r8, r4
10005ef6:	2445      	movs	r4, #69	; 0x45
10005ef8:	5d3e      	ldrb	r6, [r7, r4]
10005efa:	4683      	mov	fp, r0
10005efc:	9006      	str	r0, [sp, #24]
10005efe:	4641      	mov	r1, r8
10005f00:	0030      	movs	r0, r6
10005f02:	4371      	muls	r1, r6
10005f04:	4358      	muls	r0, r3
10005f06:	4459      	add	r1, fp
10005f08:	1040      	asrs	r0, r0, #1
10005f0a:	1809      	adds	r1, r1, r0
10005f0c:	9604      	str	r6, [sp, #16]
10005f0e:	46b1      	mov	r9, r6
10005f10:	b28e      	uxth	r6, r1
10005f12:	b209      	sxth	r1, r1
10005f14:	468b      	mov	fp, r1
10005f16:	9603      	str	r6, [sp, #12]
10005f18:	2022      	movs	r0, #34	; 0x22
10005f1a:	5e39      	ldrsh	r1, [r7, r0]
10005f1c:	4559      	cmp	r1, fp
10005f1e:	dc00      	bgt.n	10005f22 <_ZN11ST7735_pico15drawGFXFontCharEj+0x11e>
10005f20:	e143      	b.n	100061aa <_ZN11ST7735_pico15drawGFXFontCharEj+0x3a6>
10005f22:	4650      	mov	r0, sl
10005f24:	b200      	sxth	r0, r0
10005f26:	9005      	str	r0, [sp, #20]
10005f28:	241c      	movs	r4, #28
10005f2a:	5f38      	ldrsh	r0, [r7, r4]
10005f2c:	9c05      	ldr	r4, [sp, #20]
10005f2e:	42a0      	cmp	r0, r4
10005f30:	dd00      	ble.n	10005f34 <_ZN11ST7735_pico15drawGFXFontCharEj+0x130>
10005f32:	e13a      	b.n	100061aa <_ZN11ST7735_pico15drawGFXFontCharEj+0x3a6>
10005f34:	464c      	mov	r4, r9
10005f36:	46b2      	mov	sl, r6
10005f38:	4363      	muls	r3, r4
10005f3a:	241e      	movs	r4, #30
10005f3c:	5f38      	ldrsh	r0, [r7, r4]
10005f3e:	4453      	add	r3, sl
10005f40:	b21b      	sxth	r3, r3
10005f42:	4298      	cmp	r0, r3
10005f44:	dd00      	ble.n	10005f48 <_ZN11ST7735_pico15drawGFXFontCharEj+0x144>
10005f46:	e130      	b.n	100061aa <_ZN11ST7735_pico15drawGFXFontCharEj+0x3a6>
10005f48:	1c0a      	adds	r2, r1, #0
10005f4a:	4299      	cmp	r1, r3
10005f4c:	dd00      	ble.n	10005f50 <_ZN11ST7735_pico15drawGFXFontCharEj+0x14c>
10005f4e:	1c1a      	adds	r2, r3, #0
10005f50:	b213      	sxth	r3, r2
10005f52:	9a05      	ldr	r2, [sp, #20]
10005f54:	9317      	str	r3, [sp, #92]	; 0x5c
10005f56:	1c2b      	adds	r3, r5, #0
10005f58:	4295      	cmp	r5, r2
10005f5a:	dd00      	ble.n	10005f5e <_ZN11ST7735_pico15drawGFXFontCharEj+0x15a>
10005f5c:	1c13      	adds	r3, r2, #0
10005f5e:	b21b      	sxth	r3, r3
10005f60:	9309      	str	r3, [sp, #36]	; 0x24
10005f62:	236a      	movs	r3, #106	; 0x6a
10005f64:	5efb      	ldrsh	r3, [r7, r3]
10005f66:	9a06      	ldr	r2, [sp, #24]
10005f68:	4293      	cmp	r3, r2
10005f6a:	d002      	beq.n	10005f72 <_ZN11ST7735_pico15drawGFXFontCharEj+0x16e>
10005f6c:	236c      	movs	r3, #108	; 0x6c
10005f6e:	2200      	movs	r2, #0
10005f70:	52fa      	strh	r2, [r7, r3]
10005f72:	6878      	ldr	r0, [r7, #4]
10005f74:	6803      	ldr	r3, [r0, #0]
10005f76:	68db      	ldr	r3, [r3, #12]
10005f78:	4798      	blx	r3
10005f7a:	2800      	cmp	r0, #0
10005f7c:	d106      	bne.n	10005f8c <_ZN11ST7735_pico15drawGFXFontCharEj+0x188>
10005f7e:	2380      	movs	r3, #128	; 0x80
10005f80:	5cfa      	ldrb	r2, [r7, r3]
10005f82:	3b7f      	subs	r3, #127	; 0x7f
10005f84:	4093      	lsls	r3, r2
10005f86:	22d0      	movs	r2, #208	; 0xd0
10005f88:	0612      	lsls	r2, r2, #24
10005f8a:	6193      	str	r3, [r2, #24]
10005f8c:	221c      	movs	r2, #28
10005f8e:	5ebb      	ldrsh	r3, [r7, r2]
10005f90:	9a12      	ldr	r2, [sp, #72]	; 0x48
10005f92:	4293      	cmp	r3, r2
10005f94:	dc01      	bgt.n	10005f9a <_ZN11ST7735_pico15drawGFXFontCharEj+0x196>
10005f96:	f000 fd7e 	bl	10006a96 <_ZN11ST7735_pico15drawGFXFontCharEj+0xc92>
10005f9a:	b29d      	uxth	r5, r3
10005f9c:	221e      	movs	r2, #30
10005f9e:	5ebb      	ldrsh	r3, [r7, r2]
10005fa0:	9a03      	ldr	r2, [sp, #12]
10005fa2:	4692      	mov	sl, r2
10005fa4:	455b      	cmp	r3, fp
10005fa6:	dd01      	ble.n	10005fac <_ZN11ST7735_pico15drawGFXFontCharEj+0x1a8>
10005fa8:	b29b      	uxth	r3, r3
10005faa:	469a      	mov	sl, r3
10005fac:	466b      	mov	r3, sp
10005fae:	8c9b      	ldrh	r3, [r3, #36]	; 0x24
10005fb0:	225c      	movs	r2, #92	; 0x5c
10005fb2:	9304      	str	r3, [sp, #16]
10005fb4:	466b      	mov	r3, sp
10005fb6:	189b      	adds	r3, r3, r2
10005fb8:	881b      	ldrh	r3, [r3, #0]
10005fba:	9305      	str	r3, [sp, #20]
10005fbc:	7a7b      	ldrb	r3, [r7, #9]
10005fbe:	2b00      	cmp	r3, #0
10005fc0:	d001      	beq.n	10005fc6 <_ZN11ST7735_pico15drawGFXFontCharEj+0x1c2>
10005fc2:	f000 fd6e 	bl	10006aa2 <_ZN11ST7735_pico15drawGFXFontCharEj+0xc9e>
10005fc6:	2381      	movs	r3, #129	; 0x81
10005fc8:	5cfa      	ldrb	r2, [r7, r3]
10005fca:	3b80      	subs	r3, #128	; 0x80
10005fcc:	4093      	lsls	r3, r2
10005fce:	22d0      	movs	r2, #208	; 0xd0
10005fd0:	0612      	lsls	r2, r2, #24
10005fd2:	6193      	str	r3, [r2, #24]
10005fd4:	212a      	movs	r1, #42	; 0x2a
10005fd6:	6878      	ldr	r0, [r7, #4]
10005fd8:	f7fa fae8 	bl	100005ac <_ZN3SPI5writeEh>
10005fdc:	2376      	movs	r3, #118	; 0x76
10005fde:	5afb      	ldrh	r3, [r7, r3]
10005fe0:	18eb      	adds	r3, r5, r3
10005fe2:	b29d      	uxth	r5, r3
10005fe4:	7a7b      	ldrb	r3, [r7, #9]
10005fe6:	2b00      	cmp	r3, #0
10005fe8:	d101      	bne.n	10005fee <_ZN11ST7735_pico15drawGFXFontCharEj+0x1ea>
10005fea:	f000 fdd7 	bl	10006b9c <_ZN11ST7735_pico15drawGFXFontCharEj+0xd98>
10005fee:	2381      	movs	r3, #129	; 0x81
10005ff0:	5cfa      	ldrb	r2, [r7, r3]
10005ff2:	3b80      	subs	r3, #128	; 0x80
10005ff4:	4093      	lsls	r3, r2
10005ff6:	22d0      	movs	r2, #208	; 0xd0
10005ff8:	0612      	lsls	r2, r2, #24
10005ffa:	6153      	str	r3, [r2, #20]
10005ffc:	0029      	movs	r1, r5
10005ffe:	6878      	ldr	r0, [r7, #4]
10006000:	f7fa fae0 	bl	100005c4 <_ZN3SPI7write16Et>
10006004:	2376      	movs	r3, #118	; 0x76
10006006:	9a04      	ldr	r2, [sp, #16]
10006008:	5afb      	ldrh	r3, [r7, r3]
1000600a:	4694      	mov	ip, r2
1000600c:	3b01      	subs	r3, #1
1000600e:	4463      	add	r3, ip
10006010:	b29d      	uxth	r5, r3
10006012:	7a7b      	ldrb	r3, [r7, #9]
10006014:	2b00      	cmp	r3, #0
10006016:	d101      	bne.n	1000601c <_ZN11ST7735_pico15drawGFXFontCharEj+0x218>
10006018:	f000 fdab 	bl	10006b72 <_ZN11ST7735_pico15drawGFXFontCharEj+0xd6e>
1000601c:	2381      	movs	r3, #129	; 0x81
1000601e:	5cfa      	ldrb	r2, [r7, r3]
10006020:	3b80      	subs	r3, #128	; 0x80
10006022:	4093      	lsls	r3, r2
10006024:	22d0      	movs	r2, #208	; 0xd0
10006026:	0612      	lsls	r2, r2, #24
10006028:	6153      	str	r3, [r2, #20]
1000602a:	0029      	movs	r1, r5
1000602c:	6878      	ldr	r0, [r7, #4]
1000602e:	f7fa fac9 	bl	100005c4 <_ZN3SPI7write16Et>
10006032:	7a7b      	ldrb	r3, [r7, #9]
10006034:	2b00      	cmp	r3, #0
10006036:	d001      	beq.n	1000603c <_ZN11ST7735_pico15drawGFXFontCharEj+0x238>
10006038:	f000 fd86 	bl	10006b48 <_ZN11ST7735_pico15drawGFXFontCharEj+0xd44>
1000603c:	2381      	movs	r3, #129	; 0x81
1000603e:	5cfa      	ldrb	r2, [r7, r3]
10006040:	3b80      	subs	r3, #128	; 0x80
10006042:	4093      	lsls	r3, r2
10006044:	22d0      	movs	r2, #208	; 0xd0
10006046:	0612      	lsls	r2, r2, #24
10006048:	6193      	str	r3, [r2, #24]
1000604a:	212b      	movs	r1, #43	; 0x2b
1000604c:	6878      	ldr	r0, [r7, #4]
1000604e:	f7fa faad 	bl	100005ac <_ZN3SPI5writeEh>
10006052:	2378      	movs	r3, #120	; 0x78
10006054:	5afb      	ldrh	r3, [r7, r3]
10006056:	4453      	add	r3, sl
10006058:	b29b      	uxth	r3, r3
1000605a:	469a      	mov	sl, r3
1000605c:	7a7b      	ldrb	r3, [r7, #9]
1000605e:	2b00      	cmp	r3, #0
10006060:	d101      	bne.n	10006066 <_ZN11ST7735_pico15drawGFXFontCharEj+0x262>
10006062:	f000 fd5d 	bl	10006b20 <_ZN11ST7735_pico15drawGFXFontCharEj+0xd1c>
10006066:	2381      	movs	r3, #129	; 0x81
10006068:	5cfa      	ldrb	r2, [r7, r3]
1000606a:	3b80      	subs	r3, #128	; 0x80
1000606c:	4093      	lsls	r3, r2
1000606e:	22d0      	movs	r2, #208	; 0xd0
10006070:	0612      	lsls	r2, r2, #24
10006072:	6153      	str	r3, [r2, #20]
10006074:	4651      	mov	r1, sl
10006076:	6878      	ldr	r0, [r7, #4]
10006078:	f7fa faa4 	bl	100005c4 <_ZN3SPI7write16Et>
1000607c:	2378      	movs	r3, #120	; 0x78
1000607e:	9a05      	ldr	r2, [sp, #20]
10006080:	5afb      	ldrh	r3, [r7, r3]
10006082:	4694      	mov	ip, r2
10006084:	3b01      	subs	r3, #1
10006086:	4463      	add	r3, ip
10006088:	b29b      	uxth	r3, r3
1000608a:	469a      	mov	sl, r3
1000608c:	7a7b      	ldrb	r3, [r7, #9]
1000608e:	2b00      	cmp	r3, #0
10006090:	d101      	bne.n	10006096 <_ZN11ST7735_pico15drawGFXFontCharEj+0x292>
10006092:	f000 fd31 	bl	10006af8 <_ZN11ST7735_pico15drawGFXFontCharEj+0xcf4>
10006096:	2381      	movs	r3, #129	; 0x81
10006098:	5cfa      	ldrb	r2, [r7, r3]
1000609a:	3b80      	subs	r3, #128	; 0x80
1000609c:	4093      	lsls	r3, r2
1000609e:	22d0      	movs	r2, #208	; 0xd0
100060a0:	0612      	lsls	r2, r2, #24
100060a2:	6153      	str	r3, [r2, #20]
100060a4:	4651      	mov	r1, sl
100060a6:	6878      	ldr	r0, [r7, #4]
100060a8:	f7fa fa8c 	bl	100005c4 <_ZN3SPI7write16Et>
100060ac:	7a7b      	ldrb	r3, [r7, #9]
100060ae:	2b00      	cmp	r3, #0
100060b0:	d001      	beq.n	100060b6 <_ZN11ST7735_pico15drawGFXFontCharEj+0x2b2>
100060b2:	f000 fd0c 	bl	10006ace <_ZN11ST7735_pico15drawGFXFontCharEj+0xcca>
100060b6:	9b08      	ldr	r3, [sp, #32]
100060b8:	9a02      	ldr	r2, [sp, #8]
100060ba:	212c      	movs	r1, #44	; 0x2c
100060bc:	1a9c      	subs	r4, r3, r2
100060be:	4643      	mov	r3, r8
100060c0:	1ae4      	subs	r4, r4, r3
100060c2:	464b      	mov	r3, r9
100060c4:	435c      	muls	r4, r3
100060c6:	2381      	movs	r3, #129	; 0x81
100060c8:	5cfa      	ldrb	r2, [r7, r3]
100060ca:	3b80      	subs	r3, #128	; 0x80
100060cc:	4093      	lsls	r3, r2
100060ce:	22d0      	movs	r2, #208	; 0xd0
100060d0:	0612      	lsls	r2, r2, #24
100060d2:	b2e4      	uxtb	r4, r4
100060d4:	6193      	str	r3, [r2, #24]
100060d6:	6878      	ldr	r0, [r7, #4]
100060d8:	f7fa fa68 	bl	100005ac <_ZN3SPI5writeEh>
100060dc:	1e63      	subs	r3, r4, #1
100060de:	b2db      	uxtb	r3, r3
100060e0:	9304      	str	r3, [sp, #16]
100060e2:	9b03      	ldr	r3, [sp, #12]
100060e4:	465d      	mov	r5, fp
100060e6:	4699      	mov	r9, r3
100060e8:	2381      	movs	r3, #129	; 0x81
100060ea:	44a1      	add	r9, r4
100060ec:	469a      	mov	sl, r3
100060ee:	2c00      	cmp	r4, #0
100060f0:	d108      	bne.n	10006104 <_ZN11ST7735_pico15drawGFXFontCharEj+0x300>
100060f2:	e21b      	b.n	1000652c <_ZN11ST7735_pico15drawGFXFontCharEj+0x728>
100060f4:	464a      	mov	r2, r9
100060f6:	1c6b      	adds	r3, r5, #1
100060f8:	b21d      	sxth	r5, r3
100060fa:	b2d2      	uxtb	r2, r2
100060fc:	b2db      	uxtb	r3, r3
100060fe:	4293      	cmp	r3, r2
10006100:	d100      	bne.n	10006104 <_ZN11ST7735_pico15drawGFXFontCharEj+0x300>
10006102:	e20c      	b.n	1000651e <_ZN11ST7735_pico15drawGFXFontCharEj+0x71a>
10006104:	221e      	movs	r2, #30
10006106:	5ebb      	ldrsh	r3, [r7, r2]
10006108:	42ab      	cmp	r3, r5
1000610a:	dcf3      	bgt.n	100060f4 <_ZN11ST7735_pico15drawGFXFontCharEj+0x2f0>
1000610c:	2222      	movs	r2, #34	; 0x22
1000610e:	5ebb      	ldrsh	r3, [r7, r2]
10006110:	42ab      	cmp	r3, r5
10006112:	ddef      	ble.n	100060f4 <_ZN11ST7735_pico15drawGFXFontCharEj+0x2f0>
10006114:	9b12      	ldr	r3, [sp, #72]	; 0x48
10006116:	9a09      	ldr	r2, [sp, #36]	; 0x24
10006118:	4293      	cmp	r3, r2
1000611a:	daeb      	bge.n	100060f4 <_ZN11ST7735_pico15drawGFXFontCharEj+0x2f0>
1000611c:	001c      	movs	r4, r3
1000611e:	9b0b      	ldr	r3, [sp, #44]	; 0x2c
10006120:	429c      	cmp	r4, r3
10006122:	db00      	blt.n	10006126 <_ZN11ST7735_pico15drawGFXFontCharEj+0x322>
10006124:	e1bc      	b.n	100064a0 <_ZN11ST7735_pico15drawGFXFontCharEj+0x69c>
10006126:	1c16      	adds	r6, r2, #0
10006128:	429a      	cmp	r2, r3
1000612a:	dd00      	ble.n	1000612e <_ZN11ST7735_pico15drawGFXFontCharEj+0x32a>
1000612c:	1c1e      	adds	r6, r3, #0
1000612e:	23d0      	movs	r3, #208	; 0xd0
10006130:	061b      	lsls	r3, r3, #24
10006132:	469b      	mov	fp, r3
10006134:	46a8      	mov	r8, r5
10006136:	9c12      	ldr	r4, [sp, #72]	; 0x48
10006138:	b236      	sxth	r6, r6
1000613a:	e016      	b.n	1000616a <_ZN11ST7735_pico15drawGFXFontCharEj+0x366>
1000613c:	2370      	movs	r3, #112	; 0x70
1000613e:	5afb      	ldrh	r3, [r7, r3]
10006140:	9302      	str	r3, [sp, #8]
10006142:	7a7b      	ldrb	r3, [r7, #9]
10006144:	2b00      	cmp	r3, #0
10006146:	d100      	bne.n	1000614a <_ZN11ST7735_pico15drawGFXFontCharEj+0x346>
10006148:	e190      	b.n	1000646c <_ZN11ST7735_pico15drawGFXFontCharEj+0x668>
1000614a:	4653      	mov	r3, sl
1000614c:	2201      	movs	r2, #1
1000614e:	5cfb      	ldrb	r3, [r7, r3]
10006150:	9902      	ldr	r1, [sp, #8]
10006152:	409a      	lsls	r2, r3
10006154:	0013      	movs	r3, r2
10006156:	465a      	mov	r2, fp
10006158:	6878      	ldr	r0, [r7, #4]
1000615a:	6153      	str	r3, [r2, #20]
1000615c:	f7fa fa32 	bl	100005c4 <_ZN3SPI7write16Et>
10006160:	3401      	adds	r4, #1
10006162:	b224      	sxth	r4, r4
10006164:	42a6      	cmp	r6, r4
10006166:	dc00      	bgt.n	1000616a <_ZN11ST7735_pico15drawGFXFontCharEj+0x366>
10006168:	e195      	b.n	10006496 <_ZN11ST7735_pico15drawGFXFontCharEj+0x692>
1000616a:	221c      	movs	r2, #28
1000616c:	5ebb      	ldrsh	r3, [r7, r2]
1000616e:	42a3      	cmp	r3, r4
10006170:	dcf6      	bgt.n	10006160 <_ZN11ST7735_pico15drawGFXFontCharEj+0x35c>
10006172:	4642      	mov	r2, r8
10006174:	0021      	movs	r1, r4
10006176:	0038      	movs	r0, r7
10006178:	f7ff fdee 	bl	10005d58 <_ZN11ST7735_pico20gfxFontLastCharPosFGEss>
1000617c:	2800      	cmp	r0, #0
1000617e:	d0dd      	beq.n	1000613c <_ZN11ST7735_pico15drawGFXFontCharEj+0x338>
10006180:	236e      	movs	r3, #110	; 0x6e
10006182:	5afb      	ldrh	r3, [r7, r3]
10006184:	9302      	str	r3, [sp, #8]
10006186:	e7dc      	b.n	10006142 <_ZN11ST7735_pico15drawGFXFontCharEj+0x33e>
10006188:	220a      	movs	r2, #10
1000618a:	5eb9      	ldrsh	r1, [r7, r2]
1000618c:	9d0f      	ldr	r5, [sp, #60]	; 0x3c
1000618e:	2244      	movs	r2, #68	; 0x44
10006190:	46ac      	mov	ip, r5
10006192:	5cbc      	ldrb	r4, [r7, r2]
10006194:	9a04      	ldr	r2, [sp, #16]
10006196:	4462      	add	r2, ip
10006198:	4362      	muls	r2, r4
1000619a:	2526      	movs	r5, #38	; 0x26
1000619c:	5f7c      	ldrsh	r4, [r7, r5]
1000619e:	1852      	adds	r2, r2, r1
100061a0:	42a2      	cmp	r2, r4
100061a2:	dd00      	ble.n	100061a6 <_ZN11ST7735_pico15drawGFXFontCharEj+0x3a2>
100061a4:	e157      	b.n	10006456 <_ZN11ST7735_pico15drawGFXFontCharEj+0x652>
100061a6:	b28a      	uxth	r2, r1
100061a8:	e66a      	b.n	10005e80 <_ZN11ST7735_pico15drawGFXFontCharEj+0x7c>
100061aa:	4462      	add	r2, ip
100061ac:	817a      	strh	r2, [r7, #10]
100061ae:	e64a      	b.n	10005e46 <_ZN11ST7735_pico15drawGFXFontCharEj+0x42>
100061b0:	9b10      	ldr	r3, [sp, #64]	; 0x40
100061b2:	2b00      	cmp	r3, #0
100061b4:	d100      	bne.n	100061b8 <_ZN11ST7735_pico15drawGFXFontCharEj+0x3b4>
100061b6:	e0a1      	b.n	100062fc <_ZN11ST7735_pico15drawGFXFontCharEj+0x4f8>
100061b8:	466b      	mov	r3, sp
100061ba:	8c1b      	ldrh	r3, [r3, #32]
100061bc:	2400      	movs	r4, #0
100061be:	9303      	str	r3, [sp, #12]
100061c0:	2300      	movs	r3, #0
100061c2:	9305      	str	r3, [sp, #20]
100061c4:	3344      	adds	r3, #68	; 0x44
100061c6:	9302      	str	r3, [sp, #8]
100061c8:	9b0c      	ldr	r3, [sp, #48]	; 0x30
100061ca:	2500      	movs	r5, #0
100061cc:	4699      	mov	r9, r3
100061ce:	46b8      	mov	r8, r7
100061d0:	9e0f      	ldr	r6, [sp, #60]	; 0x3c
100061d2:	2e00      	cmp	r6, #0
100061d4:	d100      	bne.n	100061d8 <_ZN11ST7735_pico15drawGFXFontCharEj+0x3d4>
100061d6:	e083      	b.n	100062e0 <_ZN11ST7735_pico15drawGFXFontCharEj+0x4dc>
100061d8:	4643      	mov	r3, r8
100061da:	2700      	movs	r7, #0
100061dc:	46a0      	mov	r8, r4
100061de:	46bb      	mov	fp, r7
100061e0:	001c      	movs	r4, r3
100061e2:	2307      	movs	r3, #7
100061e4:	4642      	mov	r2, r8
100061e6:	4213      	tst	r3, r2
100061e8:	d106      	bne.n	100061f8 <_ZN11ST7735_pico15drawGFXFontCharEj+0x3f4>
100061ea:	464b      	mov	r3, r9
100061ec:	4648      	mov	r0, r9
100061ee:	3301      	adds	r3, #1
100061f0:	b29b      	uxth	r3, r3
100061f2:	4699      	mov	r9, r3
100061f4:	9a07      	ldr	r2, [sp, #28]
100061f6:	5c15      	ldrb	r5, [r2, r0]
100061f8:	2e07      	cmp	r6, #7
100061fa:	d929      	bls.n	10006250 <_ZN11ST7735_pico15drawGFXFontCharEj+0x44c>
100061fc:	2dff      	cmp	r5, #255	; 0xff
100061fe:	d100      	bne.n	10006202 <_ZN11ST7735_pico15drawGFXFontCharEj+0x3fe>
10006200:	e087      	b.n	10006312 <_ZN11ST7735_pico15drawGFXFontCharEj+0x50e>
10006202:	230f      	movs	r3, #15
10006204:	002a      	movs	r2, r5
10006206:	439a      	bics	r2, r3
10006208:	2af0      	cmp	r2, #240	; 0xf0
1000620a:	d100      	bne.n	1000620e <_ZN11ST7735_pico15drawGFXFontCharEj+0x40a>
1000620c:	e0c5      	b.n	1000639a <_ZN11ST7735_pico15drawGFXFontCharEj+0x596>
1000620e:	231f      	movs	r3, #31
10006210:	002a      	movs	r2, r5
10006212:	439a      	bics	r2, r3
10006214:	2ae0      	cmp	r2, #224	; 0xe0
10006216:	d100      	bne.n	1000621a <_ZN11ST7735_pico15drawGFXFontCharEj+0x416>
10006218:	e0f5      	b.n	10006406 <_ZN11ST7735_pico15drawGFXFontCharEj+0x602>
1000621a:	233f      	movs	r3, #63	; 0x3f
1000621c:	002a      	movs	r2, r5
1000621e:	439a      	bics	r2, r3
10006220:	2ac0      	cmp	r2, #192	; 0xc0
10006222:	d100      	bne.n	10006226 <_ZN11ST7735_pico15drawGFXFontCharEj+0x422>
10006224:	e097      	b.n	10006356 <_ZN11ST7735_pico15drawGFXFontCharEj+0x552>
10006226:	b26b      	sxtb	r3, r5
10006228:	2b00      	cmp	r3, #0
1000622a:	db19      	blt.n	10006260 <_ZN11ST7735_pico15drawGFXFontCharEj+0x45c>
1000622c:	465f      	mov	r7, fp
1000622e:	3701      	adds	r7, #1
10006230:	b2fb      	uxtb	r3, r7
10006232:	469b      	mov	fp, r3
10006234:	4643      	mov	r3, r8
10006236:	3301      	adds	r3, #1
10006238:	b2db      	uxtb	r3, r3
1000623a:	4698      	mov	r8, r3
1000623c:	2307      	movs	r3, #7
1000623e:	4642      	mov	r2, r8
10006240:	3e01      	subs	r6, #1
10006242:	006d      	lsls	r5, r5, #1
10006244:	b2f6      	uxtb	r6, r6
10006246:	b2ed      	uxtb	r5, r5
10006248:	4213      	tst	r3, r2
1000624a:	d0ce      	beq.n	100061ea <_ZN11ST7735_pico15drawGFXFontCharEj+0x3e6>
1000624c:	2e07      	cmp	r6, #7
1000624e:	d8d5      	bhi.n	100061fc <_ZN11ST7735_pico15drawGFXFontCharEj+0x3f8>
10006250:	2e03      	cmp	r6, #3
10006252:	d8d6      	bhi.n	10006202 <_ZN11ST7735_pico15drawGFXFontCharEj+0x3fe>
10006254:	d0db      	beq.n	1000620e <_ZN11ST7735_pico15drawGFXFontCharEj+0x40a>
10006256:	2e01      	cmp	r6, #1
10006258:	d1df      	bne.n	1000621a <_ZN11ST7735_pico15drawGFXFontCharEj+0x416>
1000625a:	b26b      	sxtb	r3, r5
1000625c:	2b00      	cmp	r3, #0
1000625e:	da38      	bge.n	100062d2 <_ZN11ST7735_pico15drawGFXFontCharEj+0x4ce>
10006260:	2202      	movs	r2, #2
10006262:	9b02      	ldr	r3, [sp, #8]
10006264:	32ff      	adds	r2, #255	; 0xff
10006266:	5ae3      	ldrh	r3, [r4, r3]
10006268:	4293      	cmp	r3, r2
1000626a:	d100      	bne.n	1000626e <_ZN11ST7735_pico15drawGFXFontCharEj+0x46a>
1000626c:	e0b7      	b.n	100063de <_ZN11ST7735_pico15drawGFXFontCharEj+0x5da>
1000626e:	9b02      	ldr	r3, [sp, #8]
10006270:	9a03      	ldr	r2, [sp, #12]
10006272:	5ce3      	ldrb	r3, [r4, r3]
10006274:	9f04      	ldr	r7, [sp, #16]
10006276:	469a      	mov	sl, r3
10006278:	2345      	movs	r3, #69	; 0x45
1000627a:	5ce0      	ldrb	r0, [r4, r3]
1000627c:	4653      	mov	r3, sl
1000627e:	4342      	muls	r2, r0
10006280:	4694      	mov	ip, r2
10006282:	9306      	str	r3, [sp, #24]
10006284:	89a2      	ldrh	r2, [r4, #12]
10006286:	b200      	sxth	r0, r0
10006288:	4462      	add	r2, ip
1000628a:	46bc      	mov	ip, r7
1000628c:	44dc      	add	ip, fp
1000628e:	4663      	mov	r3, ip
10006290:	4657      	mov	r7, sl
10006292:	435f      	muls	r7, r3
10006294:	46bc      	mov	ip, r7
10006296:	8ea3      	ldrh	r3, [r4, #52]	; 0x34
10006298:	4461      	add	r1, ip
1000629a:	b212      	sxth	r2, r2
1000629c:	9301      	str	r3, [sp, #4]
1000629e:	9000      	str	r0, [sp, #0]
100062a0:	4653      	mov	r3, sl
100062a2:	0020      	movs	r0, r4
100062a4:	b209      	sxth	r1, r1
100062a6:	f7fb fb0b 	bl	100018c0 <_ZN11ST7735_pico8fillRectEsssst>
100062aa:	2201      	movs	r2, #1
100062ac:	2301      	movs	r3, #1
100062ae:	4659      	mov	r1, fp
100062b0:	4095      	lsls	r5, r2
100062b2:	185f      	adds	r7, r3, r1
100062b4:	1af6      	subs	r6, r6, r3
100062b6:	4443      	add	r3, r8
100062b8:	b2f9      	uxtb	r1, r7
100062ba:	b2db      	uxtb	r3, r3
100062bc:	b2f6      	uxtb	r6, r6
100062be:	468b      	mov	fp, r1
100062c0:	4698      	mov	r8, r3
100062c2:	b2ed      	uxtb	r5, r5
100062c4:	2e00      	cmp	r6, #0
100062c6:	d101      	bne.n	100062cc <_ZN11ST7735_pico15drawGFXFontCharEj+0x4c8>
100062c8:	f000 fc7d 	bl	10006bc6 <_ZN11ST7735_pico15drawGFXFontCharEj+0xdc2>
100062cc:	230a      	movs	r3, #10
100062ce:	5ee1      	ldrsh	r1, [r4, r3]
100062d0:	e787      	b.n	100061e2 <_ZN11ST7735_pico15drawGFXFontCharEj+0x3de>
100062d2:	0023      	movs	r3, r4
100062d4:	4644      	mov	r4, r8
100062d6:	4698      	mov	r8, r3
100062d8:	3401      	adds	r4, #1
100062da:	006d      	lsls	r5, r5, #1
100062dc:	b2e4      	uxtb	r4, r4
100062de:	b2ed      	uxtb	r5, r5
100062e0:	9b03      	ldr	r3, [sp, #12]
100062e2:	9a05      	ldr	r2, [sp, #20]
100062e4:	3301      	adds	r3, #1
100062e6:	3201      	adds	r2, #1
100062e8:	b29b      	uxth	r3, r3
100062ea:	9205      	str	r2, [sp, #20]
100062ec:	9303      	str	r3, [sp, #12]
100062ee:	b2d3      	uxtb	r3, r2
100062f0:	9a10      	ldr	r2, [sp, #64]	; 0x40
100062f2:	429a      	cmp	r2, r3
100062f4:	d900      	bls.n	100062f8 <_ZN11ST7735_pico15drawGFXFontCharEj+0x4f4>
100062f6:	e76b      	b.n	100061d0 <_ZN11ST7735_pico15drawGFXFontCharEj+0x3cc>
100062f8:	4647      	mov	r7, r8
100062fa:	b28a      	uxth	r2, r1
100062fc:	236c      	movs	r3, #108	; 0x6c
100062fe:	2100      	movs	r1, #0
10006300:	52f9      	strh	r1, [r7, r3]
10006302:	2144      	movs	r1, #68	; 0x44
10006304:	9b13      	ldr	r3, [sp, #76]	; 0x4c
10006306:	5c79      	ldrb	r1, [r7, r1]
10006308:	791b      	ldrb	r3, [r3, #4]
1000630a:	434b      	muls	r3, r1
1000630c:	18d2      	adds	r2, r2, r3
1000630e:	817a      	strh	r2, [r7, #10]
10006310:	e599      	b.n	10005e46 <_ZN11ST7735_pico15drawGFXFontCharEj+0x42>
10006312:	9b02      	ldr	r3, [sp, #8]
10006314:	9a03      	ldr	r2, [sp, #12]
10006316:	5ce3      	ldrb	r3, [r4, r3]
10006318:	9f04      	ldr	r7, [sp, #16]
1000631a:	469a      	mov	sl, r3
1000631c:	2345      	movs	r3, #69	; 0x45
1000631e:	5ce0      	ldrb	r0, [r4, r3]
10006320:	4653      	mov	r3, sl
10006322:	4342      	muls	r2, r0
10006324:	4694      	mov	ip, r2
10006326:	00db      	lsls	r3, r3, #3
10006328:	9306      	str	r3, [sp, #24]
1000632a:	89a2      	ldrh	r2, [r4, #12]
1000632c:	b200      	sxth	r0, r0
1000632e:	4462      	add	r2, ip
10006330:	46bc      	mov	ip, r7
10006332:	44dc      	add	ip, fp
10006334:	4663      	mov	r3, ip
10006336:	4657      	mov	r7, sl
10006338:	435f      	muls	r7, r3
1000633a:	46bc      	mov	ip, r7
1000633c:	8ea3      	ldrh	r3, [r4, #52]	; 0x34
1000633e:	4461      	add	r1, ip
10006340:	b212      	sxth	r2, r2
10006342:	9301      	str	r3, [sp, #4]
10006344:	9000      	str	r0, [sp, #0]
10006346:	9b06      	ldr	r3, [sp, #24]
10006348:	0020      	movs	r0, r4
1000634a:	b209      	sxth	r1, r1
1000634c:	f7fb fab8 	bl	100018c0 <_ZN11ST7735_pico8fillRectEsssst>
10006350:	2208      	movs	r2, #8
10006352:	2308      	movs	r3, #8
10006354:	e7ab      	b.n	100062ae <_ZN11ST7735_pico15drawGFXFontCharEj+0x4aa>
10006356:	9b02      	ldr	r3, [sp, #8]
10006358:	9a03      	ldr	r2, [sp, #12]
1000635a:	5ce3      	ldrb	r3, [r4, r3]
1000635c:	9f04      	ldr	r7, [sp, #16]
1000635e:	469a      	mov	sl, r3
10006360:	2345      	movs	r3, #69	; 0x45
10006362:	5ce0      	ldrb	r0, [r4, r3]
10006364:	4653      	mov	r3, sl
10006366:	4342      	muls	r2, r0
10006368:	4694      	mov	ip, r2
1000636a:	005b      	lsls	r3, r3, #1
1000636c:	9306      	str	r3, [sp, #24]
1000636e:	89a2      	ldrh	r2, [r4, #12]
10006370:	b200      	sxth	r0, r0
10006372:	4462      	add	r2, ip
10006374:	46bc      	mov	ip, r7
10006376:	44dc      	add	ip, fp
10006378:	4663      	mov	r3, ip
1000637a:	4657      	mov	r7, sl
1000637c:	435f      	muls	r7, r3
1000637e:	46bc      	mov	ip, r7
10006380:	8ea3      	ldrh	r3, [r4, #52]	; 0x34
10006382:	4461      	add	r1, ip
10006384:	b212      	sxth	r2, r2
10006386:	9301      	str	r3, [sp, #4]
10006388:	9000      	str	r0, [sp, #0]
1000638a:	9b06      	ldr	r3, [sp, #24]
1000638c:	0020      	movs	r0, r4
1000638e:	b209      	sxth	r1, r1
10006390:	f7fb fa96 	bl	100018c0 <_ZN11ST7735_pico8fillRectEsssst>
10006394:	2202      	movs	r2, #2
10006396:	2302      	movs	r3, #2
10006398:	e789      	b.n	100062ae <_ZN11ST7735_pico15drawGFXFontCharEj+0x4aa>
1000639a:	9b02      	ldr	r3, [sp, #8]
1000639c:	9a03      	ldr	r2, [sp, #12]
1000639e:	5ce3      	ldrb	r3, [r4, r3]
100063a0:	9f04      	ldr	r7, [sp, #16]
100063a2:	469a      	mov	sl, r3
100063a4:	2345      	movs	r3, #69	; 0x45
100063a6:	5ce0      	ldrb	r0, [r4, r3]
100063a8:	4653      	mov	r3, sl
100063aa:	4342      	muls	r2, r0
100063ac:	4694      	mov	ip, r2
100063ae:	009b      	lsls	r3, r3, #2
100063b0:	9306      	str	r3, [sp, #24]
100063b2:	89a2      	ldrh	r2, [r4, #12]
100063b4:	b200      	sxth	r0, r0
100063b6:	4462      	add	r2, ip
100063b8:	46bc      	mov	ip, r7
100063ba:	44dc      	add	ip, fp
100063bc:	4663      	mov	r3, ip
100063be:	4657      	mov	r7, sl
100063c0:	435f      	muls	r7, r3
100063c2:	46bc      	mov	ip, r7
100063c4:	8ea3      	ldrh	r3, [r4, #52]	; 0x34
100063c6:	4461      	add	r1, ip
100063c8:	b212      	sxth	r2, r2
100063ca:	9301      	str	r3, [sp, #4]
100063cc:	9000      	str	r0, [sp, #0]
100063ce:	9b06      	ldr	r3, [sp, #24]
100063d0:	0020      	movs	r0, r4
100063d2:	b209      	sxth	r1, r1
100063d4:	f7fb fa74 	bl	100018c0 <_ZN11ST7735_pico8fillRectEsssst>
100063d8:	2204      	movs	r2, #4
100063da:	2304      	movs	r3, #4
100063dc:	e767      	b.n	100062ae <_ZN11ST7735_pico15drawGFXFontCharEj+0x4aa>
100063de:	9808      	ldr	r0, [sp, #32]
100063e0:	89a2      	ldrh	r2, [r4, #12]
100063e2:	4684      	mov	ip, r0
100063e4:	9805      	ldr	r0, [sp, #20]
100063e6:	4462      	add	r2, ip
100063e8:	4684      	mov	ip, r0
100063ea:	9804      	ldr	r0, [sp, #16]
100063ec:	4462      	add	r2, ip
100063ee:	4684      	mov	ip, r0
100063f0:	4459      	add	r1, fp
100063f2:	4461      	add	r1, ip
100063f4:	8ea3      	ldrh	r3, [r4, #52]	; 0x34
100063f6:	b212      	sxth	r2, r2
100063f8:	0020      	movs	r0, r4
100063fa:	b209      	sxth	r1, r1
100063fc:	f7fa fdd0 	bl	10000fa0 <_ZN11ST7735_pico9drawPixelEsst>
10006400:	2201      	movs	r2, #1
10006402:	2301      	movs	r3, #1
10006404:	e753      	b.n	100062ae <_ZN11ST7735_pico15drawGFXFontCharEj+0x4aa>
10006406:	9b02      	ldr	r3, [sp, #8]
10006408:	9a03      	ldr	r2, [sp, #12]
1000640a:	5ce3      	ldrb	r3, [r4, r3]
1000640c:	9f04      	ldr	r7, [sp, #16]
1000640e:	469a      	mov	sl, r3
10006410:	2345      	movs	r3, #69	; 0x45
10006412:	5ce0      	ldrb	r0, [r4, r3]
10006414:	4653      	mov	r3, sl
10006416:	4342      	muls	r2, r0
10006418:	4694      	mov	ip, r2
1000641a:	005b      	lsls	r3, r3, #1
1000641c:	4453      	add	r3, sl
1000641e:	9306      	str	r3, [sp, #24]
10006420:	89a2      	ldrh	r2, [r4, #12]
10006422:	b200      	sxth	r0, r0
10006424:	4462      	add	r2, ip
10006426:	46bc      	mov	ip, r7
10006428:	44dc      	add	ip, fp
1000642a:	4663      	mov	r3, ip
1000642c:	4657      	mov	r7, sl
1000642e:	435f      	muls	r7, r3
10006430:	46bc      	mov	ip, r7
10006432:	8ea3      	ldrh	r3, [r4, #52]	; 0x34
10006434:	4461      	add	r1, ip
10006436:	b212      	sxth	r2, r2
10006438:	9301      	str	r3, [sp, #4]
1000643a:	9000      	str	r0, [sp, #0]
1000643c:	9b06      	ldr	r3, [sp, #24]
1000643e:	0020      	movs	r0, r4
10006440:	b209      	sxth	r1, r1
10006442:	f7fb fa3d 	bl	100018c0 <_ZN11ST7735_pico8fillRectEsssst>
10006446:	2203      	movs	r2, #3
10006448:	2303      	movs	r3, #3
1000644a:	e730      	b.n	100062ae <_ZN11ST7735_pico15drawGFXFontCharEj+0x4aa>
1000644c:	434c      	muls	r4, r1
1000644e:	1904      	adds	r4, r0, r4
10006450:	b2a4      	uxth	r4, r4
10006452:	46a2      	mov	sl, r4
10006454:	e535      	b.n	10005ec2 <_ZN11ST7735_pico15drawGFXFontCharEj+0xbe>
10006456:	2200      	movs	r2, #0
10006458:	817a      	strh	r2, [r7, #10]
1000645a:	3245      	adds	r2, #69	; 0x45
1000645c:	5cba      	ldrb	r2, [r7, r2]
1000645e:	89b9      	ldrh	r1, [r7, #12]
10006460:	435a      	muls	r2, r3
10006462:	1852      	adds	r2, r2, r1
10006464:	81ba      	strh	r2, [r7, #12]
10006466:	2100      	movs	r1, #0
10006468:	2200      	movs	r2, #0
1000646a:	e509      	b.n	10005e80 <_ZN11ST7735_pico15drawGFXFontCharEj+0x7c>
1000646c:	9d02      	ldr	r5, [sp, #8]
1000646e:	6878      	ldr	r0, [r7, #4]
10006470:	6803      	ldr	r3, [r0, #0]
10006472:	691b      	ldr	r3, [r3, #16]
10006474:	4798      	blx	r3
10006476:	2800      	cmp	r0, #0
10006478:	d1f9      	bne.n	1000646e <_ZN11ST7735_pico15drawGFXFontCharEj+0x66a>
1000647a:	2201      	movs	r2, #1
1000647c:	6878      	ldr	r0, [r7, #4]
1000647e:	9502      	str	r5, [sp, #8]
10006480:	6803      	ldr	r3, [r0, #0]
10006482:	9200      	str	r2, [sp, #0]
10006484:	695b      	ldr	r3, [r3, #20]
10006486:	2200      	movs	r2, #0
10006488:	001d      	movs	r5, r3
1000648a:	2110      	movs	r1, #16
1000648c:	2300      	movs	r3, #0
1000648e:	47a8      	blx	r5
10006490:	2201      	movs	r2, #1
10006492:	727a      	strb	r2, [r7, #9]
10006494:	e659      	b.n	1000614a <_ZN11ST7735_pico15drawGFXFontCharEj+0x346>
10006496:	9b09      	ldr	r3, [sp, #36]	; 0x24
10006498:	4645      	mov	r5, r8
1000649a:	42a3      	cmp	r3, r4
1000649c:	dc00      	bgt.n	100064a0 <_ZN11ST7735_pico15drawGFXFontCharEj+0x69c>
1000649e:	e629      	b.n	100060f4 <_ZN11ST7735_pico15drawGFXFontCharEj+0x2f0>
100064a0:	2301      	movs	r3, #1
100064a2:	469b      	mov	fp, r3
100064a4:	23d0      	movs	r3, #208	; 0xd0
100064a6:	061b      	lsls	r3, r3, #24
100064a8:	4698      	mov	r8, r3
100064aa:	9502      	str	r5, [sp, #8]
100064ac:	e014      	b.n	100064d8 <_ZN11ST7735_pico15drawGFXFontCharEj+0x6d4>
100064ae:	8efe      	ldrh	r6, [r7, #54]	; 0x36
100064b0:	7a7b      	ldrb	r3, [r7, #9]
100064b2:	2b00      	cmp	r3, #0
100064b4:	d01e      	beq.n	100064f4 <_ZN11ST7735_pico15drawGFXFontCharEj+0x6f0>
100064b6:	4653      	mov	r3, sl
100064b8:	465a      	mov	r2, fp
100064ba:	5cfb      	ldrb	r3, [r7, r3]
100064bc:	0031      	movs	r1, r6
100064be:	409a      	lsls	r2, r3
100064c0:	0013      	movs	r3, r2
100064c2:	4642      	mov	r2, r8
100064c4:	6878      	ldr	r0, [r7, #4]
100064c6:	6153      	str	r3, [r2, #20]
100064c8:	f7fa f87c 	bl	100005c4 <_ZN3SPI7write16Et>
100064cc:	3401      	adds	r4, #1
100064ce:	9b09      	ldr	r3, [sp, #36]	; 0x24
100064d0:	b224      	sxth	r4, r4
100064d2:	42a3      	cmp	r3, r4
100064d4:	dc00      	bgt.n	100064d8 <_ZN11ST7735_pico15drawGFXFontCharEj+0x6d4>
100064d6:	e2db      	b.n	10006a90 <_ZN11ST7735_pico15drawGFXFontCharEj+0xc8c>
100064d8:	221c      	movs	r2, #28
100064da:	5ebb      	ldrsh	r3, [r7, r2]
100064dc:	42a3      	cmp	r3, r4
100064de:	dcf5      	bgt.n	100064cc <_ZN11ST7735_pico15drawGFXFontCharEj+0x6c8>
100064e0:	0021      	movs	r1, r4
100064e2:	0038      	movs	r0, r7
100064e4:	9a02      	ldr	r2, [sp, #8]
100064e6:	f7ff fc37 	bl	10005d58 <_ZN11ST7735_pico20gfxFontLastCharPosFGEss>
100064ea:	2800      	cmp	r0, #0
100064ec:	d0df      	beq.n	100064ae <_ZN11ST7735_pico15drawGFXFontCharEj+0x6aa>
100064ee:	236e      	movs	r3, #110	; 0x6e
100064f0:	5afe      	ldrh	r6, [r7, r3]
100064f2:	e7dd      	b.n	100064b0 <_ZN11ST7735_pico15drawGFXFontCharEj+0x6ac>
100064f4:	9d02      	ldr	r5, [sp, #8]
100064f6:	6878      	ldr	r0, [r7, #4]
100064f8:	6803      	ldr	r3, [r0, #0]
100064fa:	691b      	ldr	r3, [r3, #16]
100064fc:	4798      	blx	r3
100064fe:	2800      	cmp	r0, #0
10006500:	d1f9      	bne.n	100064f6 <_ZN11ST7735_pico15drawGFXFontCharEj+0x6f2>
10006502:	465a      	mov	r2, fp
10006504:	6878      	ldr	r0, [r7, #4]
10006506:	9502      	str	r5, [sp, #8]
10006508:	6803      	ldr	r3, [r0, #0]
1000650a:	9200      	str	r2, [sp, #0]
1000650c:	695b      	ldr	r3, [r3, #20]
1000650e:	2200      	movs	r2, #0
10006510:	001d      	movs	r5, r3
10006512:	2110      	movs	r1, #16
10006514:	2300      	movs	r3, #0
10006516:	47a8      	blx	r5
10006518:	465b      	mov	r3, fp
1000651a:	727b      	strb	r3, [r7, #9]
1000651c:	e7cb      	b.n	100064b6 <_ZN11ST7735_pico15drawGFXFontCharEj+0x6b2>
1000651e:	9a04      	ldr	r2, [sp, #16]
10006520:	9b03      	ldr	r3, [sp, #12]
10006522:	4694      	mov	ip, r2
10006524:	4463      	add	r3, ip
10006526:	3301      	adds	r3, #1
10006528:	b21b      	sxth	r3, r3
1000652a:	469b      	mov	fp, r3
1000652c:	9b10      	ldr	r3, [sp, #64]	; 0x40
1000652e:	2b00      	cmp	r3, #0
10006530:	d100      	bne.n	10006534 <_ZN11ST7735_pico15drawGFXFontCharEj+0x730>
10006532:	e1e0      	b.n	100068f6 <_ZN11ST7735_pico15drawGFXFontCharEj+0xaf2>
10006534:	9912      	ldr	r1, [sp, #72]	; 0x48
10006536:	9a14      	ldr	r2, [sp, #80]	; 0x50
10006538:	1c0b      	adds	r3, r1, #0
1000653a:	4291      	cmp	r1, r2
1000653c:	da00      	bge.n	10006540 <_ZN11ST7735_pico15drawGFXFontCharEj+0x73c>
1000653e:	1c13      	adds	r3, r2, #0
10006540:	b21b      	sxth	r3, r3
10006542:	9315      	str	r3, [sp, #84]	; 0x54
10006544:	2300      	movs	r3, #0
10006546:	930d      	str	r3, [sp, #52]	; 0x34
10006548:	930e      	str	r3, [sp, #56]	; 0x38
1000654a:	9316      	str	r3, [sp, #88]	; 0x58
1000654c:	2222      	movs	r2, #34	; 0x22
1000654e:	5ebb      	ldrsh	r3, [r7, r2]
10006550:	455b      	cmp	r3, fp
10006552:	dc00      	bgt.n	10006556 <_ZN11ST7735_pico15drawGFXFontCharEj+0x752>
10006554:	e1cf      	b.n	100068f6 <_ZN11ST7735_pico15drawGFXFontCharEj+0xaf2>
10006556:	2345      	movs	r3, #69	; 0x45
10006558:	5cfa      	ldrb	r2, [r7, r3]
1000655a:	2a00      	cmp	r2, #0
1000655c:	d100      	bne.n	10006560 <_ZN11ST7735_pico15drawGFXFontCharEj+0x75c>
1000655e:	e1c2      	b.n	100068e6 <_ZN11ST7735_pico15drawGFXFontCharEj+0xae2>
10006560:	2300      	movs	r3, #0
10006562:	930a      	str	r3, [sp, #40]	; 0x28
10006564:	e00f      	b.n	10006586 <_ZN11ST7735_pico15drawGFXFontCharEj+0x782>
10006566:	465b      	mov	r3, fp
10006568:	3301      	adds	r3, #1
1000656a:	b21b      	sxth	r3, r3
1000656c:	469b      	mov	fp, r3
1000656e:	9b0a      	ldr	r3, [sp, #40]	; 0x28
10006570:	3301      	adds	r3, #1
10006572:	b2db      	uxtb	r3, r3
10006574:	930a      	str	r3, [sp, #40]	; 0x28
10006576:	4293      	cmp	r3, r2
10006578:	d300      	bcc.n	1000657c <_ZN11ST7735_pico15drawGFXFontCharEj+0x778>
1000657a:	e1ae      	b.n	100068da <_ZN11ST7735_pico15drawGFXFontCharEj+0xad6>
1000657c:	2122      	movs	r1, #34	; 0x22
1000657e:	5e7b      	ldrsh	r3, [r7, r1]
10006580:	455b      	cmp	r3, fp
10006582:	dc00      	bgt.n	10006586 <_ZN11ST7735_pico15drawGFXFontCharEj+0x782>
10006584:	e1a9      	b.n	100068da <_ZN11ST7735_pico15drawGFXFontCharEj+0xad6>
10006586:	211e      	movs	r1, #30
10006588:	5e7b      	ldrsh	r3, [r7, r1]
1000658a:	990d      	ldr	r1, [sp, #52]	; 0x34
1000658c:	9108      	str	r1, [sp, #32]
1000658e:	990e      	ldr	r1, [sp, #56]	; 0x38
10006590:	4689      	mov	r9, r1
10006592:	990c      	ldr	r1, [sp, #48]	; 0x30
10006594:	9106      	str	r1, [sp, #24]
10006596:	455b      	cmp	r3, fp
10006598:	dce5      	bgt.n	10006566 <_ZN11ST7735_pico15drawGFXFontCharEj+0x762>
1000659a:	9b12      	ldr	r3, [sp, #72]	; 0x48
1000659c:	9e14      	ldr	r6, [sp, #80]	; 0x50
1000659e:	001c      	movs	r4, r3
100065a0:	42b3      	cmp	r3, r6
100065a2:	da3e      	bge.n	10006622 <_ZN11ST7735_pico15drawGFXFontCharEj+0x81e>
100065a4:	23d0      	movs	r3, #208	; 0xd0
100065a6:	061b      	lsls	r3, r3, #24
100065a8:	2501      	movs	r5, #1
100065aa:	4698      	mov	r8, r3
100065ac:	e014      	b.n	100065d8 <_ZN11ST7735_pico15drawGFXFontCharEj+0x7d4>
100065ae:	236e      	movs	r3, #110	; 0x6e
100065b0:	5afb      	ldrh	r3, [r7, r3]
100065b2:	4699      	mov	r9, r3
100065b4:	7a7b      	ldrb	r3, [r7, #9]
100065b6:	2b00      	cmp	r3, #0
100065b8:	d022      	beq.n	10006600 <_ZN11ST7735_pico15drawGFXFontCharEj+0x7fc>
100065ba:	2381      	movs	r3, #129	; 0x81
100065bc:	002a      	movs	r2, r5
100065be:	5cfb      	ldrb	r3, [r7, r3]
100065c0:	4649      	mov	r1, r9
100065c2:	409a      	lsls	r2, r3
100065c4:	0013      	movs	r3, r2
100065c6:	4642      	mov	r2, r8
100065c8:	6878      	ldr	r0, [r7, #4]
100065ca:	6153      	str	r3, [r2, #20]
100065cc:	f7f9 fffa 	bl	100005c4 <_ZN3SPI7write16Et>
100065d0:	3401      	adds	r4, #1
100065d2:	b224      	sxth	r4, r4
100065d4:	42a6      	cmp	r6, r4
100065d6:	d024      	beq.n	10006622 <_ZN11ST7735_pico15drawGFXFontCharEj+0x81e>
100065d8:	221c      	movs	r2, #28
100065da:	5ebb      	ldrsh	r3, [r7, r2]
100065dc:	42a3      	cmp	r3, r4
100065de:	dcf7      	bgt.n	100065d0 <_ZN11ST7735_pico15drawGFXFontCharEj+0x7cc>
100065e0:	2220      	movs	r2, #32
100065e2:	5ebb      	ldrsh	r3, [r7, r2]
100065e4:	42a3      	cmp	r3, r4
100065e6:	ddf3      	ble.n	100065d0 <_ZN11ST7735_pico15drawGFXFontCharEj+0x7cc>
100065e8:	465a      	mov	r2, fp
100065ea:	0021      	movs	r1, r4
100065ec:	0038      	movs	r0, r7
100065ee:	f7ff fbb3 	bl	10005d58 <_ZN11ST7735_pico20gfxFontLastCharPosFGEss>
100065f2:	2800      	cmp	r0, #0
100065f4:	d1db      	bne.n	100065ae <_ZN11ST7735_pico15drawGFXFontCharEj+0x7aa>
100065f6:	8efb      	ldrh	r3, [r7, #54]	; 0x36
100065f8:	4699      	mov	r9, r3
100065fa:	7a7b      	ldrb	r3, [r7, #9]
100065fc:	2b00      	cmp	r3, #0
100065fe:	d1dc      	bne.n	100065ba <_ZN11ST7735_pico15drawGFXFontCharEj+0x7b6>
10006600:	6878      	ldr	r0, [r7, #4]
10006602:	6803      	ldr	r3, [r0, #0]
10006604:	691b      	ldr	r3, [r3, #16]
10006606:	4798      	blx	r3
10006608:	2800      	cmp	r0, #0
1000660a:	d1f9      	bne.n	10006600 <_ZN11ST7735_pico15drawGFXFontCharEj+0x7fc>
1000660c:	6878      	ldr	r0, [r7, #4]
1000660e:	2200      	movs	r2, #0
10006610:	6803      	ldr	r3, [r0, #0]
10006612:	9500      	str	r5, [sp, #0]
10006614:	695b      	ldr	r3, [r3, #20]
10006616:	2110      	movs	r1, #16
10006618:	469a      	mov	sl, r3
1000661a:	2300      	movs	r3, #0
1000661c:	47d0      	blx	sl
1000661e:	727d      	strb	r5, [r7, #9]
10006620:	e7cb      	b.n	100065ba <_ZN11ST7735_pico15drawGFXFontCharEj+0x7b6>
10006622:	9b0f      	ldr	r3, [sp, #60]	; 0x3c
10006624:	2b00      	cmp	r3, #0
10006626:	d100      	bne.n	1000662a <_ZN11ST7735_pico15drawGFXFontCharEj+0x826>
10006628:	e1c4      	b.n	100069b4 <_ZN11ST7735_pico15drawGFXFontCharEj+0xbb0>
1000662a:	9e0d      	ldr	r6, [sp, #52]	; 0x34
1000662c:	2344      	movs	r3, #68	; 0x44
1000662e:	46b4      	mov	ip, r6
10006630:	5cfa      	ldrb	r2, [r7, r3]
10006632:	9b0f      	ldr	r3, [sp, #60]	; 0x3c
10006634:	9603      	str	r6, [sp, #12]
10006636:	4463      	add	r3, ip
10006638:	b2db      	uxtb	r3, r3
1000663a:	9308      	str	r3, [sp, #32]
1000663c:	9b0e      	ldr	r3, [sp, #56]	; 0x38
1000663e:	9c15      	ldr	r4, [sp, #84]	; 0x54
10006640:	4699      	mov	r9, r3
10006642:	9b0c      	ldr	r3, [sp, #48]	; 0x30
10006644:	464e      	mov	r6, r9
10006646:	9306      	str	r3, [sp, #24]
10006648:	2300      	movs	r3, #0
1000664a:	9305      	str	r3, [sp, #20]
1000664c:	9b03      	ldr	r3, [sp, #12]
1000664e:	1c59      	adds	r1, r3, #1
10006650:	b2c9      	uxtb	r1, r1
10006652:	9103      	str	r1, [sp, #12]
10006654:	2107      	movs	r1, #7
10006656:	4219      	tst	r1, r3
10006658:	d105      	bne.n	10006666 <_ZN11ST7735_pico15drawGFXFontCharEj+0x862>
1000665a:	9806      	ldr	r0, [sp, #24]
1000665c:	9d07      	ldr	r5, [sp, #28]
1000665e:	1c41      	adds	r1, r0, #1
10006660:	b289      	uxth	r1, r1
10006662:	5c2e      	ldrb	r6, [r5, r0]
10006664:	9106      	str	r1, [sp, #24]
10006666:	2a00      	cmp	r2, #0
10006668:	d100      	bne.n	1000666c <_ZN11ST7735_pico15drawGFXFontCharEj+0x868>
1000666a:	e0fe      	b.n	1000686a <_ZN11ST7735_pico15drawGFXFontCharEj+0xa66>
1000666c:	b273      	sxtb	r3, r6
1000666e:	9304      	str	r3, [sp, #16]
10006670:	2301      	movs	r3, #1
10006672:	4698      	mov	r8, r3
10006674:	23d0      	movs	r3, #208	; 0xd0
10006676:	061b      	lsls	r3, r3, #24
10006678:	2500      	movs	r5, #0
1000667a:	469a      	mov	sl, r3
1000667c:	46b1      	mov	r9, r6
1000667e:	211c      	movs	r1, #28
10006680:	5e7b      	ldrsh	r3, [r7, r1]
10006682:	42a3      	cmp	r3, r4
10006684:	dc21      	bgt.n	100066ca <_ZN11ST7735_pico15drawGFXFontCharEj+0x8c6>
10006686:	2120      	movs	r1, #32
10006688:	5e7b      	ldrsh	r3, [r7, r1]
1000668a:	42a3      	cmp	r3, r4
1000668c:	dd1d      	ble.n	100066ca <_ZN11ST7735_pico15drawGFXFontCharEj+0x8c6>
1000668e:	9b04      	ldr	r3, [sp, #16]
10006690:	2b00      	cmp	r3, #0
10006692:	da00      	bge.n	10006696 <_ZN11ST7735_pico15drawGFXFontCharEj+0x892>
10006694:	e098      	b.n	100067c8 <_ZN11ST7735_pico15drawGFXFontCharEj+0x9c4>
10006696:	465a      	mov	r2, fp
10006698:	0021      	movs	r1, r4
1000669a:	0038      	movs	r0, r7
1000669c:	f7ff fb5c 	bl	10005d58 <_ZN11ST7735_pico20gfxFontLastCharPosFGEss>
100066a0:	2800      	cmp	r0, #0
100066a2:	d073      	beq.n	1000678c <_ZN11ST7735_pico15drawGFXFontCharEj+0x988>
100066a4:	236e      	movs	r3, #110	; 0x6e
100066a6:	5afb      	ldrh	r3, [r7, r3]
100066a8:	9302      	str	r3, [sp, #8]
100066aa:	7a7b      	ldrb	r3, [r7, #9]
100066ac:	2b00      	cmp	r3, #0
100066ae:	d076      	beq.n	1000679e <_ZN11ST7735_pico15drawGFXFontCharEj+0x99a>
100066b0:	2381      	movs	r3, #129	; 0x81
100066b2:	4642      	mov	r2, r8
100066b4:	5cfb      	ldrb	r3, [r7, r3]
100066b6:	9902      	ldr	r1, [sp, #8]
100066b8:	409a      	lsls	r2, r3
100066ba:	0013      	movs	r3, r2
100066bc:	4652      	mov	r2, sl
100066be:	6878      	ldr	r0, [r7, #4]
100066c0:	6153      	str	r3, [r2, #20]
100066c2:	f7f9 ff7f 	bl	100005c4 <_ZN3SPI7write16Et>
100066c6:	2344      	movs	r3, #68	; 0x44
100066c8:	5cfa      	ldrb	r2, [r7, r3]
100066ca:	3501      	adds	r5, #1
100066cc:	3401      	adds	r4, #1
100066ce:	b2ed      	uxtb	r5, r5
100066d0:	b224      	sxth	r4, r4
100066d2:	4295      	cmp	r5, r2
100066d4:	d3d3      	bcc.n	1000667e <_ZN11ST7735_pico15drawGFXFontCharEj+0x87a>
100066d6:	464e      	mov	r6, r9
100066d8:	9b05      	ldr	r3, [sp, #20]
100066da:	9908      	ldr	r1, [sp, #32]
100066dc:	3301      	adds	r3, #1
100066de:	b2db      	uxtb	r3, r3
100066e0:	9305      	str	r3, [sp, #20]
100066e2:	9b03      	ldr	r3, [sp, #12]
100066e4:	0076      	lsls	r6, r6, #1
100066e6:	b2f6      	uxtb	r6, r6
100066e8:	428b      	cmp	r3, r1
100066ea:	d1af      	bne.n	1000664c <_ZN11ST7735_pico15drawGFXFontCharEj+0x848>
100066ec:	46b1      	mov	r9, r6
100066ee:	9b09      	ldr	r3, [sp, #36]	; 0x24
100066f0:	42a3      	cmp	r3, r4
100066f2:	dc00      	bgt.n	100066f6 <_ZN11ST7735_pico15drawGFXFontCharEj+0x8f2>
100066f4:	e07c      	b.n	100067f0 <_ZN11ST7735_pico15drawGFXFontCharEj+0x9ec>
100066f6:	9b0b      	ldr	r3, [sp, #44]	; 0x2c
100066f8:	42a3      	cmp	r3, r4
100066fa:	dc00      	bgt.n	100066fe <_ZN11ST7735_pico15drawGFXFontCharEj+0x8fa>
100066fc:	e07b      	b.n	100067f6 <_ZN11ST7735_pico15drawGFXFontCharEj+0x9f2>
100066fe:	9a09      	ldr	r2, [sp, #36]	; 0x24
10006700:	1c15      	adds	r5, r2, #0
10006702:	429a      	cmp	r2, r3
10006704:	dd00      	ble.n	10006708 <_ZN11ST7735_pico15drawGFXFontCharEj+0x904>
10006706:	1c1d      	adds	r5, r3, #0
10006708:	2301      	movs	r3, #1
1000670a:	469a      	mov	sl, r3
1000670c:	23d0      	movs	r3, #208	; 0xd0
1000670e:	061b      	lsls	r3, r3, #24
10006710:	4698      	mov	r8, r3
10006712:	b22d      	sxth	r5, r5
10006714:	e014      	b.n	10006740 <_ZN11ST7735_pico15drawGFXFontCharEj+0x93c>
10006716:	2370      	movs	r3, #112	; 0x70
10006718:	5afb      	ldrh	r3, [r7, r3]
1000671a:	9302      	str	r3, [sp, #8]
1000671c:	7a7b      	ldrb	r3, [r7, #9]
1000671e:	2b00      	cmp	r3, #0
10006720:	d01f      	beq.n	10006762 <_ZN11ST7735_pico15drawGFXFontCharEj+0x95e>
10006722:	2381      	movs	r3, #129	; 0x81
10006724:	4652      	mov	r2, sl
10006726:	5cfb      	ldrb	r3, [r7, r3]
10006728:	9902      	ldr	r1, [sp, #8]
1000672a:	409a      	lsls	r2, r3
1000672c:	0013      	movs	r3, r2
1000672e:	4642      	mov	r2, r8
10006730:	6878      	ldr	r0, [r7, #4]
10006732:	6153      	str	r3, [r2, #20]
10006734:	f7f9 ff46 	bl	100005c4 <_ZN3SPI7write16Et>
10006738:	3401      	adds	r4, #1
1000673a:	b224      	sxth	r4, r4
1000673c:	42ac      	cmp	r4, r5
1000673e:	da54      	bge.n	100067ea <_ZN11ST7735_pico15drawGFXFontCharEj+0x9e6>
10006740:	221c      	movs	r2, #28
10006742:	5ebb      	ldrsh	r3, [r7, r2]
10006744:	42a3      	cmp	r3, r4
10006746:	dcf7      	bgt.n	10006738 <_ZN11ST7735_pico15drawGFXFontCharEj+0x934>
10006748:	465a      	mov	r2, fp
1000674a:	0021      	movs	r1, r4
1000674c:	0038      	movs	r0, r7
1000674e:	f7ff fb03 	bl	10005d58 <_ZN11ST7735_pico20gfxFontLastCharPosFGEss>
10006752:	2800      	cmp	r0, #0
10006754:	d0df      	beq.n	10006716 <_ZN11ST7735_pico15drawGFXFontCharEj+0x912>
10006756:	236e      	movs	r3, #110	; 0x6e
10006758:	5afb      	ldrh	r3, [r7, r3]
1000675a:	9302      	str	r3, [sp, #8]
1000675c:	7a7b      	ldrb	r3, [r7, #9]
1000675e:	2b00      	cmp	r3, #0
10006760:	d1df      	bne.n	10006722 <_ZN11ST7735_pico15drawGFXFontCharEj+0x91e>
10006762:	9e02      	ldr	r6, [sp, #8]
10006764:	6878      	ldr	r0, [r7, #4]
10006766:	6803      	ldr	r3, [r0, #0]
10006768:	691b      	ldr	r3, [r3, #16]
1000676a:	4798      	blx	r3
1000676c:	2800      	cmp	r0, #0
1000676e:	d1f9      	bne.n	10006764 <_ZN11ST7735_pico15drawGFXFontCharEj+0x960>
10006770:	4652      	mov	r2, sl
10006772:	6878      	ldr	r0, [r7, #4]
10006774:	9602      	str	r6, [sp, #8]
10006776:	6803      	ldr	r3, [r0, #0]
10006778:	9200      	str	r2, [sp, #0]
1000677a:	695b      	ldr	r3, [r3, #20]
1000677c:	2200      	movs	r2, #0
1000677e:	001e      	movs	r6, r3
10006780:	2110      	movs	r1, #16
10006782:	2300      	movs	r3, #0
10006784:	47b0      	blx	r6
10006786:	4653      	mov	r3, sl
10006788:	727b      	strb	r3, [r7, #9]
1000678a:	e7ca      	b.n	10006722 <_ZN11ST7735_pico15drawGFXFontCharEj+0x91e>
1000678c:	9b0b      	ldr	r3, [sp, #44]	; 0x2c
1000678e:	42a3      	cmp	r3, r4
10006790:	dd28      	ble.n	100067e4 <_ZN11ST7735_pico15drawGFXFontCharEj+0x9e0>
10006792:	2370      	movs	r3, #112	; 0x70
10006794:	5afb      	ldrh	r3, [r7, r3]
10006796:	9302      	str	r3, [sp, #8]
10006798:	7a7b      	ldrb	r3, [r7, #9]
1000679a:	2b00      	cmp	r3, #0
1000679c:	d188      	bne.n	100066b0 <_ZN11ST7735_pico15drawGFXFontCharEj+0x8ac>
1000679e:	9e02      	ldr	r6, [sp, #8]
100067a0:	6878      	ldr	r0, [r7, #4]
100067a2:	6803      	ldr	r3, [r0, #0]
100067a4:	691b      	ldr	r3, [r3, #16]
100067a6:	4798      	blx	r3
100067a8:	2800      	cmp	r0, #0
100067aa:	d1f9      	bne.n	100067a0 <_ZN11ST7735_pico15drawGFXFontCharEj+0x99c>
100067ac:	4642      	mov	r2, r8
100067ae:	6878      	ldr	r0, [r7, #4]
100067b0:	9602      	str	r6, [sp, #8]
100067b2:	6803      	ldr	r3, [r0, #0]
100067b4:	9200      	str	r2, [sp, #0]
100067b6:	695b      	ldr	r3, [r3, #20]
100067b8:	2200      	movs	r2, #0
100067ba:	001e      	movs	r6, r3
100067bc:	2110      	movs	r1, #16
100067be:	2300      	movs	r3, #0
100067c0:	47b0      	blx	r6
100067c2:	4643      	mov	r3, r8
100067c4:	727b      	strb	r3, [r7, #9]
100067c6:	e773      	b.n	100066b0 <_ZN11ST7735_pico15drawGFXFontCharEj+0x8ac>
100067c8:	8ebb      	ldrh	r3, [r7, #52]	; 0x34
100067ca:	9302      	str	r3, [sp, #8]
100067cc:	7a7b      	ldrb	r3, [r7, #9]
100067ce:	2b00      	cmp	r3, #0
100067d0:	d000      	beq.n	100067d4 <_ZN11ST7735_pico15drawGFXFontCharEj+0x9d0>
100067d2:	e76d      	b.n	100066b0 <_ZN11ST7735_pico15drawGFXFontCharEj+0x8ac>
100067d4:	9e02      	ldr	r6, [sp, #8]
100067d6:	6878      	ldr	r0, [r7, #4]
100067d8:	6803      	ldr	r3, [r0, #0]
100067da:	691b      	ldr	r3, [r3, #16]
100067dc:	4798      	blx	r3
100067de:	2800      	cmp	r0, #0
100067e0:	d1f9      	bne.n	100067d6 <_ZN11ST7735_pico15drawGFXFontCharEj+0x9d2>
100067e2:	e7e3      	b.n	100067ac <_ZN11ST7735_pico15drawGFXFontCharEj+0x9a8>
100067e4:	8efb      	ldrh	r3, [r7, #54]	; 0x36
100067e6:	9302      	str	r3, [sp, #8]
100067e8:	e75f      	b.n	100066aa <_ZN11ST7735_pico15drawGFXFontCharEj+0x8a6>
100067ea:	9b09      	ldr	r3, [sp, #36]	; 0x24
100067ec:	42a3      	cmp	r3, r4
100067ee:	dc02      	bgt.n	100067f6 <_ZN11ST7735_pico15drawGFXFontCharEj+0x9f2>
100067f0:	2345      	movs	r3, #69	; 0x45
100067f2:	5cfa      	ldrb	r2, [r7, r3]
100067f4:	e6b7      	b.n	10006566 <_ZN11ST7735_pico15drawGFXFontCharEj+0x762>
100067f6:	23d0      	movs	r3, #208	; 0xd0
100067f8:	061b      	lsls	r3, r3, #24
100067fa:	2501      	movs	r5, #1
100067fc:	4698      	mov	r8, r3
100067fe:	e013      	b.n	10006828 <_ZN11ST7735_pico15drawGFXFontCharEj+0xa24>
10006800:	7a7b      	ldrb	r3, [r7, #9]
10006802:	8efe      	ldrh	r6, [r7, #54]	; 0x36
10006804:	2b00      	cmp	r3, #0
10006806:	d01f      	beq.n	10006848 <_ZN11ST7735_pico15drawGFXFontCharEj+0xa44>
10006808:	2381      	movs	r3, #129	; 0x81
1000680a:	002a      	movs	r2, r5
1000680c:	5cfb      	ldrb	r3, [r7, r3]
1000680e:	0031      	movs	r1, r6
10006810:	409a      	lsls	r2, r3
10006812:	0013      	movs	r3, r2
10006814:	4642      	mov	r2, r8
10006816:	6878      	ldr	r0, [r7, #4]
10006818:	6153      	str	r3, [r2, #20]
1000681a:	f7f9 fed3 	bl	100005c4 <_ZN3SPI7write16Et>
1000681e:	3401      	adds	r4, #1
10006820:	9b09      	ldr	r3, [sp, #36]	; 0x24
10006822:	b224      	sxth	r4, r4
10006824:	42a3      	cmp	r3, r4
10006826:	dde3      	ble.n	100067f0 <_ZN11ST7735_pico15drawGFXFontCharEj+0x9ec>
10006828:	221c      	movs	r2, #28
1000682a:	5ebb      	ldrsh	r3, [r7, r2]
1000682c:	42a3      	cmp	r3, r4
1000682e:	dcf6      	bgt.n	1000681e <_ZN11ST7735_pico15drawGFXFontCharEj+0xa1a>
10006830:	465a      	mov	r2, fp
10006832:	0021      	movs	r1, r4
10006834:	0038      	movs	r0, r7
10006836:	f7ff fa8f 	bl	10005d58 <_ZN11ST7735_pico20gfxFontLastCharPosFGEss>
1000683a:	2800      	cmp	r0, #0
1000683c:	d0e0      	beq.n	10006800 <_ZN11ST7735_pico15drawGFXFontCharEj+0x9fc>
1000683e:	236e      	movs	r3, #110	; 0x6e
10006840:	5afe      	ldrh	r6, [r7, r3]
10006842:	7a7b      	ldrb	r3, [r7, #9]
10006844:	2b00      	cmp	r3, #0
10006846:	d1df      	bne.n	10006808 <_ZN11ST7735_pico15drawGFXFontCharEj+0xa04>
10006848:	6878      	ldr	r0, [r7, #4]
1000684a:	6803      	ldr	r3, [r0, #0]
1000684c:	691b      	ldr	r3, [r3, #16]
1000684e:	4798      	blx	r3
10006850:	2800      	cmp	r0, #0
10006852:	d1f9      	bne.n	10006848 <_ZN11ST7735_pico15drawGFXFontCharEj+0xa44>
10006854:	6878      	ldr	r0, [r7, #4]
10006856:	2200      	movs	r2, #0
10006858:	6803      	ldr	r3, [r0, #0]
1000685a:	9500      	str	r5, [sp, #0]
1000685c:	695b      	ldr	r3, [r3, #20]
1000685e:	2110      	movs	r1, #16
10006860:	469a      	mov	sl, r3
10006862:	2300      	movs	r3, #0
10006864:	47d0      	blx	sl
10006866:	727d      	strb	r5, [r7, #9]
10006868:	e7ce      	b.n	10006808 <_ZN11ST7735_pico15drawGFXFontCharEj+0xa04>
1000686a:	46b1      	mov	r9, r6
1000686c:	464a      	mov	r2, r9
1000686e:	0052      	lsls	r2, r2, #1
10006870:	b2d2      	uxtb	r2, r2
10006872:	4691      	mov	r9, r2
10006874:	9a05      	ldr	r2, [sp, #20]
10006876:	9e03      	ldr	r6, [sp, #12]
10006878:	1ad2      	subs	r2, r2, r3
1000687a:	9b08      	ldr	r3, [sp, #32]
1000687c:	429e      	cmp	r6, r3
1000687e:	d100      	bne.n	10006882 <_ZN11ST7735_pico15drawGFXFontCharEj+0xa7e>
10006880:	e735      	b.n	100066ee <_ZN11ST7735_pico15drawGFXFontCharEj+0x8ea>
10006882:	2007      	movs	r0, #7
10006884:	b2d2      	uxtb	r2, r2
10006886:	1c73      	adds	r3, r6, #1
10006888:	46a4      	mov	ip, r4
1000688a:	46b8      	mov	r8, r7
1000688c:	464d      	mov	r5, r9
1000688e:	0017      	movs	r7, r2
10006890:	9c0f      	ldr	r4, [sp, #60]	; 0x3c
10006892:	9a06      	ldr	r2, [sp, #24]
10006894:	b2db      	uxtb	r3, r3
10006896:	4230      	tst	r0, r6
10006898:	d10f      	bne.n	100068ba <_ZN11ST7735_pico15drawGFXFontCharEj+0xab6>
1000689a:	9d07      	ldr	r5, [sp, #28]
1000689c:	18fe      	adds	r6, r7, r3
1000689e:	5cad      	ldrb	r5, [r5, r2]
100068a0:	1c51      	adds	r1, r2, #1
100068a2:	006d      	lsls	r5, r5, #1
100068a4:	b2f6      	uxtb	r6, r6
100068a6:	b289      	uxth	r1, r1
100068a8:	b2ed      	uxtb	r5, r5
100068aa:	42a6      	cmp	r6, r4
100068ac:	d210      	bcs.n	100068d0 <_ZN11ST7735_pico15drawGFXFontCharEj+0xacc>
100068ae:	000a      	movs	r2, r1
100068b0:	001e      	movs	r6, r3
100068b2:	1c73      	adds	r3, r6, #1
100068b4:	b2db      	uxtb	r3, r3
100068b6:	4230      	tst	r0, r6
100068b8:	d0ef      	beq.n	1000689a <_ZN11ST7735_pico15drawGFXFontCharEj+0xa96>
100068ba:	18f9      	adds	r1, r7, r3
100068bc:	006d      	lsls	r5, r5, #1
100068be:	b2c9      	uxtb	r1, r1
100068c0:	b2ed      	uxtb	r5, r5
100068c2:	428c      	cmp	r4, r1
100068c4:	d8f4      	bhi.n	100068b0 <_ZN11ST7735_pico15drawGFXFontCharEj+0xaac>
100068c6:	46a9      	mov	r9, r5
100068c8:	4664      	mov	r4, ip
100068ca:	4647      	mov	r7, r8
100068cc:	9206      	str	r2, [sp, #24]
100068ce:	e70e      	b.n	100066ee <_ZN11ST7735_pico15drawGFXFontCharEj+0x8ea>
100068d0:	46a9      	mov	r9, r5
100068d2:	4664      	mov	r4, ip
100068d4:	4647      	mov	r7, r8
100068d6:	9106      	str	r1, [sp, #24]
100068d8:	e709      	b.n	100066ee <_ZN11ST7735_pico15drawGFXFontCharEj+0x8ea>
100068da:	9b08      	ldr	r3, [sp, #32]
100068dc:	930d      	str	r3, [sp, #52]	; 0x34
100068de:	464b      	mov	r3, r9
100068e0:	930e      	str	r3, [sp, #56]	; 0x38
100068e2:	9b06      	ldr	r3, [sp, #24]
100068e4:	930c      	str	r3, [sp, #48]	; 0x30
100068e6:	9b16      	ldr	r3, [sp, #88]	; 0x58
100068e8:	9a10      	ldr	r2, [sp, #64]	; 0x40
100068ea:	3301      	adds	r3, #1
100068ec:	b2db      	uxtb	r3, r3
100068ee:	9316      	str	r3, [sp, #88]	; 0x58
100068f0:	429a      	cmp	r2, r3
100068f2:	d000      	beq.n	100068f6 <_ZN11ST7735_pico15drawGFXFontCharEj+0xaf2>
100068f4:	e62a      	b.n	1000654c <_ZN11ST7735_pico15drawGFXFontCharEj+0x748>
100068f6:	2381      	movs	r3, #129	; 0x81
100068f8:	469a      	mov	sl, r3
100068fa:	9b17      	ldr	r3, [sp, #92]	; 0x5c
100068fc:	465d      	mov	r5, fp
100068fe:	455b      	cmp	r3, fp
10006900:	dc06      	bgt.n	10006910 <_ZN11ST7735_pico15drawGFXFontCharEj+0xb0c>
10006902:	e09e      	b.n	10006a42 <_ZN11ST7735_pico15drawGFXFontCharEj+0xc3e>
10006904:	3501      	adds	r5, #1
10006906:	9b17      	ldr	r3, [sp, #92]	; 0x5c
10006908:	b22d      	sxth	r5, r5
1000690a:	42ab      	cmp	r3, r5
1000690c:	d100      	bne.n	10006910 <_ZN11ST7735_pico15drawGFXFontCharEj+0xb0c>
1000690e:	e098      	b.n	10006a42 <_ZN11ST7735_pico15drawGFXFontCharEj+0xc3e>
10006910:	221e      	movs	r2, #30
10006912:	5ebb      	ldrsh	r3, [r7, r2]
10006914:	42ab      	cmp	r3, r5
10006916:	dcf5      	bgt.n	10006904 <_ZN11ST7735_pico15drawGFXFontCharEj+0xb00>
10006918:	9b12      	ldr	r3, [sp, #72]	; 0x48
1000691a:	9a09      	ldr	r2, [sp, #36]	; 0x24
1000691c:	4293      	cmp	r3, r2
1000691e:	daf1      	bge.n	10006904 <_ZN11ST7735_pico15drawGFXFontCharEj+0xb00>
10006920:	001c      	movs	r4, r3
10006922:	9b0b      	ldr	r3, [sp, #44]	; 0x2c
10006924:	429c      	cmp	r4, r3
10006926:	da51      	bge.n	100069cc <_ZN11ST7735_pico15drawGFXFontCharEj+0xbc8>
10006928:	1c16      	adds	r6, r2, #0
1000692a:	429a      	cmp	r2, r3
1000692c:	dd00      	ble.n	10006930 <_ZN11ST7735_pico15drawGFXFontCharEj+0xb2c>
1000692e:	1c1e      	adds	r6, r3, #0
10006930:	2301      	movs	r3, #1
10006932:	469b      	mov	fp, r3
10006934:	23d0      	movs	r3, #208	; 0xd0
10006936:	061b      	lsls	r3, r3, #24
10006938:	4699      	mov	r9, r3
1000693a:	46a8      	mov	r8, r5
1000693c:	9c12      	ldr	r4, [sp, #72]	; 0x48
1000693e:	b236      	sxth	r6, r6
10006940:	e014      	b.n	1000696c <_ZN11ST7735_pico15drawGFXFontCharEj+0xb68>
10006942:	2370      	movs	r3, #112	; 0x70
10006944:	5afb      	ldrh	r3, [r7, r3]
10006946:	9302      	str	r3, [sp, #8]
10006948:	7a7b      	ldrb	r3, [r7, #9]
1000694a:	2b00      	cmp	r3, #0
1000694c:	d01d      	beq.n	1000698a <_ZN11ST7735_pico15drawGFXFontCharEj+0xb86>
1000694e:	4653      	mov	r3, sl
10006950:	465a      	mov	r2, fp
10006952:	5cfb      	ldrb	r3, [r7, r3]
10006954:	9902      	ldr	r1, [sp, #8]
10006956:	409a      	lsls	r2, r3
10006958:	0013      	movs	r3, r2
1000695a:	464a      	mov	r2, r9
1000695c:	6878      	ldr	r0, [r7, #4]
1000695e:	6153      	str	r3, [r2, #20]
10006960:	f7f9 fe30 	bl	100005c4 <_ZN3SPI7write16Et>
10006964:	3401      	adds	r4, #1
10006966:	b224      	sxth	r4, r4
10006968:	42b4      	cmp	r4, r6
1000696a:	da2b      	bge.n	100069c4 <_ZN11ST7735_pico15drawGFXFontCharEj+0xbc0>
1000696c:	221c      	movs	r2, #28
1000696e:	5ebb      	ldrsh	r3, [r7, r2]
10006970:	42a3      	cmp	r3, r4
10006972:	dcf7      	bgt.n	10006964 <_ZN11ST7735_pico15drawGFXFontCharEj+0xb60>
10006974:	4642      	mov	r2, r8
10006976:	0021      	movs	r1, r4
10006978:	0038      	movs	r0, r7
1000697a:	f7ff f9ed 	bl	10005d58 <_ZN11ST7735_pico20gfxFontLastCharPosFGEss>
1000697e:	2800      	cmp	r0, #0
10006980:	d0df      	beq.n	10006942 <_ZN11ST7735_pico15drawGFXFontCharEj+0xb3e>
10006982:	236e      	movs	r3, #110	; 0x6e
10006984:	5afb      	ldrh	r3, [r7, r3]
10006986:	9302      	str	r3, [sp, #8]
10006988:	e7de      	b.n	10006948 <_ZN11ST7735_pico15drawGFXFontCharEj+0xb44>
1000698a:	9d02      	ldr	r5, [sp, #8]
1000698c:	6878      	ldr	r0, [r7, #4]
1000698e:	6803      	ldr	r3, [r0, #0]
10006990:	691b      	ldr	r3, [r3, #16]
10006992:	4798      	blx	r3
10006994:	2800      	cmp	r0, #0
10006996:	d1f9      	bne.n	1000698c <_ZN11ST7735_pico15drawGFXFontCharEj+0xb88>
10006998:	465a      	mov	r2, fp
1000699a:	6878      	ldr	r0, [r7, #4]
1000699c:	9502      	str	r5, [sp, #8]
1000699e:	6803      	ldr	r3, [r0, #0]
100069a0:	9200      	str	r2, [sp, #0]
100069a2:	695b      	ldr	r3, [r3, #20]
100069a4:	2200      	movs	r2, #0
100069a6:	001d      	movs	r5, r3
100069a8:	2110      	movs	r1, #16
100069aa:	2300      	movs	r3, #0
100069ac:	47a8      	blx	r5
100069ae:	465b      	mov	r3, fp
100069b0:	727b      	strb	r3, [r7, #9]
100069b2:	e7cc      	b.n	1000694e <_ZN11ST7735_pico15drawGFXFontCharEj+0xb4a>
100069b4:	9b0d      	ldr	r3, [sp, #52]	; 0x34
100069b6:	9c15      	ldr	r4, [sp, #84]	; 0x54
100069b8:	9308      	str	r3, [sp, #32]
100069ba:	9b0e      	ldr	r3, [sp, #56]	; 0x38
100069bc:	4699      	mov	r9, r3
100069be:	9b0c      	ldr	r3, [sp, #48]	; 0x30
100069c0:	9306      	str	r3, [sp, #24]
100069c2:	e694      	b.n	100066ee <_ZN11ST7735_pico15drawGFXFontCharEj+0x8ea>
100069c4:	9b09      	ldr	r3, [sp, #36]	; 0x24
100069c6:	4645      	mov	r5, r8
100069c8:	42a3      	cmp	r3, r4
100069ca:	dd9b      	ble.n	10006904 <_ZN11ST7735_pico15drawGFXFontCharEj+0xb00>
100069cc:	23d0      	movs	r3, #208	; 0xd0
100069ce:	061b      	lsls	r3, r3, #24
100069d0:	2601      	movs	r6, #1
100069d2:	4699      	mov	r9, r3
100069d4:	46a8      	mov	r8, r5
100069d6:	e013      	b.n	10006a00 <_ZN11ST7735_pico15drawGFXFontCharEj+0xbfc>
100069d8:	8efd      	ldrh	r5, [r7, #54]	; 0x36
100069da:	7a7b      	ldrb	r3, [r7, #9]
100069dc:	2b00      	cmp	r3, #0
100069de:	d01d      	beq.n	10006a1c <_ZN11ST7735_pico15drawGFXFontCharEj+0xc18>
100069e0:	4653      	mov	r3, sl
100069e2:	0032      	movs	r2, r6
100069e4:	5cfb      	ldrb	r3, [r7, r3]
100069e6:	0029      	movs	r1, r5
100069e8:	409a      	lsls	r2, r3
100069ea:	0013      	movs	r3, r2
100069ec:	464a      	mov	r2, r9
100069ee:	6878      	ldr	r0, [r7, #4]
100069f0:	6153      	str	r3, [r2, #20]
100069f2:	f7f9 fde7 	bl	100005c4 <_ZN3SPI7write16Et>
100069f6:	3401      	adds	r4, #1
100069f8:	9b09      	ldr	r3, [sp, #36]	; 0x24
100069fa:	b224      	sxth	r4, r4
100069fc:	42a3      	cmp	r3, r4
100069fe:	dd1e      	ble.n	10006a3e <_ZN11ST7735_pico15drawGFXFontCharEj+0xc3a>
10006a00:	221c      	movs	r2, #28
10006a02:	5ebb      	ldrsh	r3, [r7, r2]
10006a04:	42a3      	cmp	r3, r4
10006a06:	dcf6      	bgt.n	100069f6 <_ZN11ST7735_pico15drawGFXFontCharEj+0xbf2>
10006a08:	4642      	mov	r2, r8
10006a0a:	0021      	movs	r1, r4
10006a0c:	0038      	movs	r0, r7
10006a0e:	f7ff f9a3 	bl	10005d58 <_ZN11ST7735_pico20gfxFontLastCharPosFGEss>
10006a12:	2800      	cmp	r0, #0
10006a14:	d0e0      	beq.n	100069d8 <_ZN11ST7735_pico15drawGFXFontCharEj+0xbd4>
10006a16:	236e      	movs	r3, #110	; 0x6e
10006a18:	5afd      	ldrh	r5, [r7, r3]
10006a1a:	e7de      	b.n	100069da <_ZN11ST7735_pico15drawGFXFontCharEj+0xbd6>
10006a1c:	6878      	ldr	r0, [r7, #4]
10006a1e:	6803      	ldr	r3, [r0, #0]
10006a20:	691b      	ldr	r3, [r3, #16]
10006a22:	4798      	blx	r3
10006a24:	2800      	cmp	r0, #0
10006a26:	d1f9      	bne.n	10006a1c <_ZN11ST7735_pico15drawGFXFontCharEj+0xc18>
10006a28:	6878      	ldr	r0, [r7, #4]
10006a2a:	2200      	movs	r2, #0
10006a2c:	6803      	ldr	r3, [r0, #0]
10006a2e:	9600      	str	r6, [sp, #0]
10006a30:	695b      	ldr	r3, [r3, #20]
10006a32:	2110      	movs	r1, #16
10006a34:	469b      	mov	fp, r3
10006a36:	2300      	movs	r3, #0
10006a38:	47d8      	blx	fp
10006a3a:	727e      	strb	r6, [r7, #9]
10006a3c:	e7d0      	b.n	100069e0 <_ZN11ST7735_pico15drawGFXFontCharEj+0xbdc>
10006a3e:	4645      	mov	r5, r8
10006a40:	e760      	b.n	10006904 <_ZN11ST7735_pico15drawGFXFontCharEj+0xb00>
10006a42:	0038      	movs	r0, r7
10006a44:	2100      	movs	r1, #0
10006a46:	f7f9 ff17 	bl	10000878 <_ZN11ST7735_pico17writecommand_lastEh>
10006a4a:	6878      	ldr	r0, [r7, #4]
10006a4c:	6803      	ldr	r3, [r0, #0]
10006a4e:	68db      	ldr	r3, [r3, #12]
10006a50:	4798      	blx	r3
10006a52:	2800      	cmp	r0, #0
10006a54:	d106      	bne.n	10006a64 <_ZN11ST7735_pico15drawGFXFontCharEj+0xc60>
10006a56:	2380      	movs	r3, #128	; 0x80
10006a58:	5cfa      	ldrb	r2, [r7, r3]
10006a5a:	3b7f      	subs	r3, #127	; 0x7f
10006a5c:	4093      	lsls	r3, r2
10006a5e:	22d0      	movs	r2, #208	; 0xd0
10006a60:	0612      	lsls	r2, r2, #24
10006a62:	6153      	str	r3, [r2, #20]
10006a64:	2168      	movs	r1, #104	; 0x68
10006a66:	9b11      	ldr	r3, [sp, #68]	; 0x44
10006a68:	897a      	ldrh	r2, [r7, #10]
10006a6a:	667b      	str	r3, [r7, #100]	; 0x64
10006a6c:	8b3b      	ldrh	r3, [r7, #24]
10006a6e:	18d3      	adds	r3, r2, r3
10006a70:	527b      	strh	r3, [r7, r1]
10006a72:	8b79      	ldrh	r1, [r7, #26]
10006a74:	89bb      	ldrh	r3, [r7, #12]
10006a76:	185b      	adds	r3, r3, r1
10006a78:	216a      	movs	r1, #106	; 0x6a
10006a7a:	527b      	strh	r3, [r7, r1]
10006a7c:	236c      	movs	r3, #108	; 0x6c
10006a7e:	9909      	ldr	r1, [sp, #36]	; 0x24
10006a80:	52f9      	strh	r1, [r7, r3]
10006a82:	8eb9      	ldrh	r1, [r7, #52]	; 0x34
10006a84:	3302      	adds	r3, #2
10006a86:	52f9      	strh	r1, [r7, r3]
10006a88:	8ef9      	ldrh	r1, [r7, #54]	; 0x36
10006a8a:	3302      	adds	r3, #2
10006a8c:	52f9      	strh	r1, [r7, r3]
10006a8e:	e438      	b.n	10006302 <_ZN11ST7735_pico15drawGFXFontCharEj+0x4fe>
10006a90:	9d02      	ldr	r5, [sp, #8]
10006a92:	f7ff fb2f 	bl	100060f4 <_ZN11ST7735_pico15drawGFXFontCharEj+0x2f0>
10006a96:	466b      	mov	r3, sp
10006a98:	2248      	movs	r2, #72	; 0x48
10006a9a:	189b      	adds	r3, r3, r2
10006a9c:	881d      	ldrh	r5, [r3, #0]
10006a9e:	f7ff fa7d 	bl	10005f9c <_ZN11ST7735_pico15drawGFXFontCharEj+0x198>
10006aa2:	9e02      	ldr	r6, [sp, #8]
10006aa4:	6878      	ldr	r0, [r7, #4]
10006aa6:	6803      	ldr	r3, [r0, #0]
10006aa8:	691b      	ldr	r3, [r3, #16]
10006aaa:	4798      	blx	r3
10006aac:	2800      	cmp	r0, #0
10006aae:	d1f9      	bne.n	10006aa4 <_ZN11ST7735_pico15drawGFXFontCharEj+0xca0>
10006ab0:	2201      	movs	r2, #1
10006ab2:	0004      	movs	r4, r0
10006ab4:	6878      	ldr	r0, [r7, #4]
10006ab6:	9602      	str	r6, [sp, #8]
10006ab8:	6803      	ldr	r3, [r0, #0]
10006aba:	9200      	str	r2, [sp, #0]
10006abc:	695b      	ldr	r3, [r3, #20]
10006abe:	2200      	movs	r2, #0
10006ac0:	001e      	movs	r6, r3
10006ac2:	2108      	movs	r1, #8
10006ac4:	2300      	movs	r3, #0
10006ac6:	47b0      	blx	r6
10006ac8:	727c      	strb	r4, [r7, #9]
10006aca:	f7ff fa7c 	bl	10005fc6 <_ZN11ST7735_pico15drawGFXFontCharEj+0x1c2>
10006ace:	9e02      	ldr	r6, [sp, #8]
10006ad0:	6878      	ldr	r0, [r7, #4]
10006ad2:	6803      	ldr	r3, [r0, #0]
10006ad4:	691b      	ldr	r3, [r3, #16]
10006ad6:	4798      	blx	r3
10006ad8:	2800      	cmp	r0, #0
10006ada:	d1f9      	bne.n	10006ad0 <_ZN11ST7735_pico15drawGFXFontCharEj+0xccc>
10006adc:	2201      	movs	r2, #1
10006ade:	0004      	movs	r4, r0
10006ae0:	6878      	ldr	r0, [r7, #4]
10006ae2:	2108      	movs	r1, #8
10006ae4:	6803      	ldr	r3, [r0, #0]
10006ae6:	9200      	str	r2, [sp, #0]
10006ae8:	695d      	ldr	r5, [r3, #20]
10006aea:	2200      	movs	r2, #0
10006aec:	2300      	movs	r3, #0
10006aee:	9602      	str	r6, [sp, #8]
10006af0:	47a8      	blx	r5
10006af2:	727c      	strb	r4, [r7, #9]
10006af4:	f7ff fadf 	bl	100060b6 <_ZN11ST7735_pico15drawGFXFontCharEj+0x2b2>
10006af8:	9e02      	ldr	r6, [sp, #8]
10006afa:	6878      	ldr	r0, [r7, #4]
10006afc:	6803      	ldr	r3, [r0, #0]
10006afe:	691b      	ldr	r3, [r3, #16]
10006b00:	4798      	blx	r3
10006b02:	2800      	cmp	r0, #0
10006b04:	d1f9      	bne.n	10006afa <_ZN11ST7735_pico15drawGFXFontCharEj+0xcf6>
10006b06:	2401      	movs	r4, #1
10006b08:	6878      	ldr	r0, [r7, #4]
10006b0a:	2200      	movs	r2, #0
10006b0c:	6803      	ldr	r3, [r0, #0]
10006b0e:	9400      	str	r4, [sp, #0]
10006b10:	695d      	ldr	r5, [r3, #20]
10006b12:	2110      	movs	r1, #16
10006b14:	2300      	movs	r3, #0
10006b16:	9602      	str	r6, [sp, #8]
10006b18:	47a8      	blx	r5
10006b1a:	727c      	strb	r4, [r7, #9]
10006b1c:	f7ff fabb 	bl	10006096 <_ZN11ST7735_pico15drawGFXFontCharEj+0x292>
10006b20:	9e02      	ldr	r6, [sp, #8]
10006b22:	6878      	ldr	r0, [r7, #4]
10006b24:	6803      	ldr	r3, [r0, #0]
10006b26:	691b      	ldr	r3, [r3, #16]
10006b28:	4798      	blx	r3
10006b2a:	2800      	cmp	r0, #0
10006b2c:	d1f9      	bne.n	10006b22 <_ZN11ST7735_pico15drawGFXFontCharEj+0xd1e>
10006b2e:	2401      	movs	r4, #1
10006b30:	6878      	ldr	r0, [r7, #4]
10006b32:	2200      	movs	r2, #0
10006b34:	6803      	ldr	r3, [r0, #0]
10006b36:	9400      	str	r4, [sp, #0]
10006b38:	695d      	ldr	r5, [r3, #20]
10006b3a:	2110      	movs	r1, #16
10006b3c:	2300      	movs	r3, #0
10006b3e:	9602      	str	r6, [sp, #8]
10006b40:	47a8      	blx	r5
10006b42:	727c      	strb	r4, [r7, #9]
10006b44:	f7ff fa8f 	bl	10006066 <_ZN11ST7735_pico15drawGFXFontCharEj+0x262>
10006b48:	9e02      	ldr	r6, [sp, #8]
10006b4a:	6878      	ldr	r0, [r7, #4]
10006b4c:	6803      	ldr	r3, [r0, #0]
10006b4e:	691b      	ldr	r3, [r3, #16]
10006b50:	4798      	blx	r3
10006b52:	2800      	cmp	r0, #0
10006b54:	d1f9      	bne.n	10006b4a <_ZN11ST7735_pico15drawGFXFontCharEj+0xd46>
10006b56:	2201      	movs	r2, #1
10006b58:	0004      	movs	r4, r0
10006b5a:	6878      	ldr	r0, [r7, #4]
10006b5c:	2108      	movs	r1, #8
10006b5e:	6803      	ldr	r3, [r0, #0]
10006b60:	9200      	str	r2, [sp, #0]
10006b62:	695d      	ldr	r5, [r3, #20]
10006b64:	2200      	movs	r2, #0
10006b66:	2300      	movs	r3, #0
10006b68:	9602      	str	r6, [sp, #8]
10006b6a:	47a8      	blx	r5
10006b6c:	727c      	strb	r4, [r7, #9]
10006b6e:	f7ff fa65 	bl	1000603c <_ZN11ST7735_pico15drawGFXFontCharEj+0x238>
10006b72:	9e02      	ldr	r6, [sp, #8]
10006b74:	6878      	ldr	r0, [r7, #4]
10006b76:	6803      	ldr	r3, [r0, #0]
10006b78:	691b      	ldr	r3, [r3, #16]
10006b7a:	4798      	blx	r3
10006b7c:	2800      	cmp	r0, #0
10006b7e:	d1f9      	bne.n	10006b74 <_ZN11ST7735_pico15drawGFXFontCharEj+0xd70>
10006b80:	2401      	movs	r4, #1
10006b82:	6878      	ldr	r0, [r7, #4]
10006b84:	9602      	str	r6, [sp, #8]
10006b86:	6803      	ldr	r3, [r0, #0]
10006b88:	9400      	str	r4, [sp, #0]
10006b8a:	695b      	ldr	r3, [r3, #20]
10006b8c:	2200      	movs	r2, #0
10006b8e:	001e      	movs	r6, r3
10006b90:	2110      	movs	r1, #16
10006b92:	2300      	movs	r3, #0
10006b94:	47b0      	blx	r6
10006b96:	727c      	strb	r4, [r7, #9]
10006b98:	f7ff fa40 	bl	1000601c <_ZN11ST7735_pico15drawGFXFontCharEj+0x218>
10006b9c:	9e02      	ldr	r6, [sp, #8]
10006b9e:	6878      	ldr	r0, [r7, #4]
10006ba0:	6803      	ldr	r3, [r0, #0]
10006ba2:	691b      	ldr	r3, [r3, #16]
10006ba4:	4798      	blx	r3
10006ba6:	2800      	cmp	r0, #0
10006ba8:	d1f9      	bne.n	10006b9e <_ZN11ST7735_pico15drawGFXFontCharEj+0xd9a>
10006baa:	2401      	movs	r4, #1
10006bac:	6878      	ldr	r0, [r7, #4]
10006bae:	9602      	str	r6, [sp, #8]
10006bb0:	6803      	ldr	r3, [r0, #0]
10006bb2:	9400      	str	r4, [sp, #0]
10006bb4:	695b      	ldr	r3, [r3, #20]
10006bb6:	2200      	movs	r2, #0
10006bb8:	001e      	movs	r6, r3
10006bba:	2110      	movs	r1, #16
10006bbc:	2300      	movs	r3, #0
10006bbe:	47b0      	blx	r6
10006bc0:	727c      	strb	r4, [r7, #9]
10006bc2:	f7ff fa14 	bl	10005fee <_ZN11ST7735_pico15drawGFXFontCharEj+0x1ea>
10006bc6:	0023      	movs	r3, r4
10006bc8:	4644      	mov	r4, r8
10006bca:	4698      	mov	r8, r3
10006bcc:	210a      	movs	r1, #10
10006bce:	5e59      	ldrsh	r1, [r3, r1]
10006bd0:	f7ff fb86 	bl	100062e0 <_ZN11ST7735_pico15drawGFXFontCharEj+0x4dc>

10006bd4 <_ZN11ST7735_pico5writeEPKhj>:
10006bd4:	b5f0      	push	{r4, r5, r6, r7, lr}
10006bd6:	46de      	mov	lr, fp
10006bd8:	4657      	mov	r7, sl
10006bda:	464e      	mov	r6, r9
10006bdc:	4645      	mov	r5, r8
10006bde:	b5e0      	push	{r5, r6, r7, lr}
10006be0:	0006      	movs	r6, r0
10006be2:	7b80      	ldrb	r0, [r0, #14]
10006be4:	b091      	sub	sp, #68	; 0x44
10006be6:	4688      	mov	r8, r1
10006be8:	4693      	mov	fp, r2
10006bea:	af04      	add	r7, sp, #16
10006bec:	2800      	cmp	r0, #0
10006bee:	d135      	bne.n	10006c5c <_ZN11ST7735_pico5writeEPKhj+0x88>
10006bf0:	7bf3      	ldrb	r3, [r6, #15]
10006bf2:	2b00      	cmp	r3, #0
10006bf4:	d132      	bne.n	10006c5c <_ZN11ST7735_pico5writeEPKhj+0x88>
10006bf6:	465b      	mov	r3, fp
10006bf8:	2b00      	cmp	r3, #0
10006bfa:	d026      	beq.n	10006c4a <_ZN11ST7735_pico5writeEPKhj+0x76>
10006bfc:	46c2      	mov	sl, r8
10006bfe:	2344      	movs	r3, #68	; 0x44
10006c00:	4644      	mov	r4, r8
10006c02:	4699      	mov	r9, r3
10006c04:	44da      	add	sl, fp
10006c06:	e012      	b.n	10006c2e <_ZN11ST7735_pico5writeEPKhj+0x5a>
10006c08:	7e1b      	ldrb	r3, [r3, #24]
10006c0a:	89b2      	ldrh	r2, [r6, #12]
10006c0c:	189b      	adds	r3, r3, r2
10006c0e:	81b3      	strh	r3, [r6, #12]
10006c10:	2332      	movs	r3, #50	; 0x32
10006c12:	5cf3      	ldrb	r3, [r6, r3]
10006c14:	2b00      	cmp	r3, #0
10006c16:	d100      	bne.n	10006c1a <_ZN11ST7735_pico5writeEPKhj+0x46>
10006c18:	e0bc      	b.n	10006d94 <_ZN11ST7735_pico5writeEPKhj+0x1c0>
10006c1a:	2333      	movs	r3, #51	; 0x33
10006c1c:	5cf3      	ldrb	r3, [r6, r3]
10006c1e:	2b00      	cmp	r3, #0
10006c20:	d100      	bne.n	10006c24 <_ZN11ST7735_pico5writeEPKhj+0x50>
10006c22:	e0b7      	b.n	10006d94 <_ZN11ST7735_pico5writeEPKhj+0x1c0>
10006c24:	8d73      	ldrh	r3, [r6, #42]	; 0x2a
10006c26:	8173      	strh	r3, [r6, #10]
10006c28:	3401      	adds	r4, #1
10006c2a:	45a2      	cmp	sl, r4
10006c2c:	d00d      	beq.n	10006c4a <_ZN11ST7735_pico5writeEPKhj+0x76>
10006c2e:	6cf3      	ldr	r3, [r6, #76]	; 0x4c
10006c30:	7825      	ldrb	r5, [r4, #0]
10006c32:	2b00      	cmp	r3, #0
10006c34:	d100      	bne.n	10006c38 <_ZN11ST7735_pico5writeEPKhj+0x64>
10006c36:	e0b0      	b.n	10006d9a <_ZN11ST7735_pico5writeEPKhj+0x1c6>
10006c38:	2d0a      	cmp	r5, #10
10006c3a:	d0e5      	beq.n	10006c08 <_ZN11ST7735_pico5writeEPKhj+0x34>
10006c3c:	0029      	movs	r1, r5
10006c3e:	0030      	movs	r0, r6
10006c40:	3401      	adds	r4, #1
10006c42:	f7fd fda9 	bl	10004798 <_ZN11ST7735_pico12drawFontCharEj>
10006c46:	45a2      	cmp	sl, r4
10006c48:	d1f1      	bne.n	10006c2e <_ZN11ST7735_pico5writeEPKhj+0x5a>
10006c4a:	4658      	mov	r0, fp
10006c4c:	46bd      	mov	sp, r7
10006c4e:	b00d      	add	sp, #52	; 0x34
10006c50:	bcf0      	pop	{r4, r5, r6, r7}
10006c52:	46bb      	mov	fp, r7
10006c54:	46b2      	mov	sl, r6
10006c56:	46a9      	mov	r9, r5
10006c58:	46a0      	mov	r8, r4
10006c5a:	bdf0      	pop	{r4, r5, r6, r7, pc}
10006c5c:	465b      	mov	r3, fp
10006c5e:	b29b      	uxth	r3, r3
10006c60:	469a      	mov	sl, r3
10006c62:	2300      	movs	r3, #0
10006c64:	2220      	movs	r2, #32
10006c66:	84bb      	strh	r3, [r7, #36]	; 0x24
10006c68:	84fb      	strh	r3, [r7, #38]	; 0x26
10006c6a:	2326      	movs	r3, #38	; 0x26
10006c6c:	5ef1      	ldrsh	r1, [r6, r3]
10006c6e:	2308      	movs	r3, #8
10006c70:	189b      	adds	r3, r3, r2
10006c72:	19dd      	adds	r5, r3, r7
10006c74:	8029      	strh	r1, [r5, #0]
10006c76:	2328      	movs	r3, #40	; 0x28
10006c78:	5ef2      	ldrsh	r2, [r6, r3]
10006c7a:	2301      	movs	r3, #1
10006c7c:	4654      	mov	r4, sl
10006c7e:	425b      	negs	r3, r3
10006c80:	857a      	strh	r2, [r7, #42]	; 0x2a
10006c82:	85bb      	strh	r3, [r7, #44]	; 0x2c
10006c84:	85fb      	strh	r3, [r7, #46]	; 0x2e
10006c86:	2c00      	cmp	r4, #0
10006c88:	d100      	bne.n	10006c8c <_ZN11ST7735_pico5writeEPKhj+0xb8>
10006c8a:	e0c2      	b.n	10006e12 <_ZN11ST7735_pico5writeEPKhj+0x23e>
10006c8c:	4653      	mov	r3, sl
10006c8e:	4443      	add	r3, r8
10006c90:	b29b      	uxth	r3, r3
10006c92:	4644      	mov	r4, r8
10006c94:	469a      	mov	sl, r3
10006c96:	2220      	movs	r2, #32
10006c98:	230e      	movs	r3, #14
10006c9a:	189b      	adds	r3, r3, r2
10006c9c:	19db      	adds	r3, r3, r7
10006c9e:	7821      	ldrb	r1, [r4, #0]
10006ca0:	9303      	str	r3, [sp, #12]
10006ca2:	230c      	movs	r3, #12
10006ca4:	189b      	adds	r3, r3, r2
10006ca6:	19db      	adds	r3, r3, r7
10006ca8:	9302      	str	r3, [sp, #8]
10006caa:	230a      	movs	r3, #10
10006cac:	189b      	adds	r3, r3, r2
10006cae:	19db      	adds	r3, r3, r7
10006cb0:	9301      	str	r3, [sp, #4]
10006cb2:	2326      	movs	r3, #38	; 0x26
10006cb4:	3204      	adds	r2, #4
10006cb6:	18fb      	adds	r3, r7, r3
10006cb8:	0030      	movs	r0, r6
10006cba:	9500      	str	r5, [sp, #0]
10006cbc:	18ba      	adds	r2, r7, r2
10006cbe:	3401      	adds	r4, #1
10006cc0:	f7fd f8d6 	bl	10003e70 <_ZN11ST7735_pico10charBoundsEcPsS0_S0_S0_S0_S0_>
10006cc4:	b2a3      	uxth	r3, r4
10006cc6:	4553      	cmp	r3, sl
10006cc8:	d1e5      	bne.n	10006c96 <_ZN11ST7735_pico5writeEPKhj+0xc2>
10006cca:	2300      	movs	r3, #0
10006ccc:	5ee9      	ldrsh	r1, [r5, r3]
10006cce:	232c      	movs	r3, #44	; 0x2c
10006cd0:	5efc      	ldrsh	r4, [r7, r3]
10006cd2:	7bb0      	ldrb	r0, [r6, #14]
10006cd4:	222e      	movs	r2, #46	; 0x2e
10006cd6:	5ebb      	ldrsh	r3, [r7, r2]
10006cd8:	252a      	movs	r5, #42	; 0x2a
10006cda:	5f7a      	ldrsh	r2, [r7, r5]
10006cdc:	42a1      	cmp	r1, r4
10006cde:	dd6b      	ble.n	10006db8 <_ZN11ST7735_pico5writeEPKhj+0x1e4>
10006ce0:	2400      	movs	r4, #0
10006ce2:	2100      	movs	r1, #0
10006ce4:	4293      	cmp	r3, r2
10006ce6:	db6c      	blt.n	10006dc2 <_ZN11ST7735_pico5writeEPKhj+0x1ee>
10006ce8:	3301      	adds	r3, #1
10006cea:	1a9b      	subs	r3, r3, r2
10006cec:	b29b      	uxth	r3, r3
10006cee:	2800      	cmp	r0, #0
10006cf0:	d001      	beq.n	10006cf6 <_ZN11ST7735_pico5writeEPKhj+0x122>
10006cf2:	2c00      	cmp	r4, #0
10006cf4:	d16c      	bne.n	10006dd0 <_ZN11ST7735_pico5writeEPKhj+0x1fc>
10006cf6:	7bf1      	ldrb	r1, [r6, #15]
10006cf8:	2900      	cmp	r1, #0
10006cfa:	d008      	beq.n	10006d0e <_ZN11ST7735_pico5writeEPKhj+0x13a>
10006cfc:	2b00      	cmp	r3, #0
10006cfe:	d006      	beq.n	10006d0e <_ZN11ST7735_pico5writeEPKhj+0x13a>
10006d00:	18d3      	adds	r3, r2, r3
10006d02:	0fda      	lsrs	r2, r3, #31
10006d04:	18d3      	adds	r3, r2, r3
10006d06:	89b2      	ldrh	r2, [r6, #12]
10006d08:	105b      	asrs	r3, r3, #1
10006d0a:	1ad3      	subs	r3, r2, r3
10006d0c:	81b3      	strh	r3, [r6, #12]
10006d0e:	2300      	movs	r3, #0
10006d10:	81f3      	strh	r3, [r6, #14]
10006d12:	e770      	b.n	10006bf6 <_ZN11ST7735_pico5writeEPKhj+0x22>
10006d14:	2d0a      	cmp	r5, #10
10006d16:	d057      	beq.n	10006dc8 <_ZN11ST7735_pico5writeEPKhj+0x1f4>
10006d18:	2d0d      	cmp	r5, #13
10006d1a:	d100      	bne.n	10006d1e <_ZN11ST7735_pico5writeEPKhj+0x14a>
10006d1c:	e784      	b.n	10006c28 <_ZN11ST7735_pico5writeEPKhj+0x54>
10006d1e:	2332      	movs	r3, #50	; 0x32
10006d20:	5cf3      	ldrb	r3, [r6, r3]
10006d22:	2b00      	cmp	r3, #0
10006d24:	d15c      	bne.n	10006de0 <_ZN11ST7735_pico5writeEPKhj+0x20c>
10006d26:	230a      	movs	r3, #10
10006d28:	5ef1      	ldrsh	r1, [r6, r3]
10006d2a:	230c      	movs	r3, #12
10006d2c:	5ef2      	ldrsh	r2, [r6, r3]
10006d2e:	2345      	movs	r3, #69	; 0x45
10006d30:	5cf3      	ldrb	r3, [r6, r3]
10006d32:	9303      	str	r3, [sp, #12]
10006d34:	464b      	mov	r3, r9
10006d36:	5cf3      	ldrb	r3, [r6, r3]
10006d38:	0030      	movs	r0, r6
10006d3a:	9302      	str	r3, [sp, #8]
10006d3c:	8ef3      	ldrh	r3, [r6, #54]	; 0x36
10006d3e:	9301      	str	r3, [sp, #4]
10006d40:	8eb3      	ldrh	r3, [r6, #52]	; 0x34
10006d42:	9300      	str	r3, [sp, #0]
10006d44:	002b      	movs	r3, r5
10006d46:	f7fc fbcd 	bl	100034e4 <_ZN11ST7735_pico8drawCharEsshtthh>
10006d4a:	464b      	mov	r3, r9
10006d4c:	5cf1      	ldrb	r1, [r6, r3]
10006d4e:	8973      	ldrh	r3, [r6, #10]
10006d50:	004a      	lsls	r2, r1, #1
10006d52:	188a      	adds	r2, r1, r2
10006d54:	0052      	lsls	r2, r2, #1
10006d56:	189b      	adds	r3, r3, r2
10006d58:	2248      	movs	r2, #72	; 0x48
10006d5a:	b21b      	sxth	r3, r3
10006d5c:	8173      	strh	r3, [r6, #10]
10006d5e:	5cb2      	ldrb	r2, [r6, r2]
10006d60:	2a00      	cmp	r2, #0
10006d62:	d100      	bne.n	10006d66 <_ZN11ST7735_pico5writeEPKhj+0x192>
10006d64:	e760      	b.n	10006c28 <_ZN11ST7735_pico5writeEPKhj+0x54>
10006d66:	2232      	movs	r2, #50	; 0x32
10006d68:	5cb2      	ldrb	r2, [r6, r2]
10006d6a:	2a00      	cmp	r2, #0
10006d6c:	d003      	beq.n	10006d76 <_ZN11ST7735_pico5writeEPKhj+0x1a2>
10006d6e:	2233      	movs	r2, #51	; 0x33
10006d70:	5cb2      	ldrb	r2, [r6, r2]
10006d72:	2a00      	cmp	r2, #0
10006d74:	d14f      	bne.n	10006e16 <_ZN11ST7735_pico5writeEPKhj+0x242>
10006d76:	008a      	lsls	r2, r1, #2
10006d78:	1a8a      	subs	r2, r1, r2
10006d7a:	0052      	lsls	r2, r2, #1
10006d7c:	2026      	movs	r0, #38	; 0x26
10006d7e:	5e31      	ldrsh	r1, [r6, r0]
10006d80:	188a      	adds	r2, r1, r2
10006d82:	429a      	cmp	r2, r3
10006d84:	db00      	blt.n	10006d88 <_ZN11ST7735_pico5writeEPKhj+0x1b4>
10006d86:	e74f      	b.n	10006c28 <_ZN11ST7735_pico5writeEPKhj+0x54>
10006d88:	2345      	movs	r3, #69	; 0x45
10006d8a:	5cf3      	ldrb	r3, [r6, r3]
10006d8c:	89b2      	ldrh	r2, [r6, #12]
10006d8e:	00db      	lsls	r3, r3, #3
10006d90:	189b      	adds	r3, r3, r2
10006d92:	81b3      	strh	r3, [r6, #12]
10006d94:	2300      	movs	r3, #0
10006d96:	8173      	strh	r3, [r6, #10]
10006d98:	e746      	b.n	10006c28 <_ZN11ST7735_pico5writeEPKhj+0x54>
10006d9a:	6df3      	ldr	r3, [r6, #92]	; 0x5c
10006d9c:	2b00      	cmp	r3, #0
10006d9e:	d0b9      	beq.n	10006d14 <_ZN11ST7735_pico5writeEPKhj+0x140>
10006da0:	2d0a      	cmp	r5, #10
10006da2:	d104      	bne.n	10006dae <_ZN11ST7735_pico5writeEPKhj+0x1da>
10006da4:	2245      	movs	r2, #69	; 0x45
10006da6:	7a9b      	ldrb	r3, [r3, #10]
10006da8:	5cb2      	ldrb	r2, [r6, r2]
10006daa:	4353      	muls	r3, r2
10006dac:	e72d      	b.n	10006c0a <_ZN11ST7735_pico5writeEPKhj+0x36>
10006dae:	0029      	movs	r1, r5
10006db0:	0030      	movs	r0, r6
10006db2:	f7ff f827 	bl	10005e04 <_ZN11ST7735_pico15drawGFXFontCharEj>
10006db6:	e737      	b.n	10006c28 <_ZN11ST7735_pico5writeEPKhj+0x54>
10006db8:	3401      	adds	r4, #1
10006dba:	1a64      	subs	r4, r4, r1
10006dbc:	b2a4      	uxth	r4, r4
10006dbe:	4293      	cmp	r3, r2
10006dc0:	da92      	bge.n	10006ce8 <_ZN11ST7735_pico5writeEPKhj+0x114>
10006dc2:	2300      	movs	r3, #0
10006dc4:	2200      	movs	r2, #0
10006dc6:	e792      	b.n	10006cee <_ZN11ST7735_pico5writeEPKhj+0x11a>
10006dc8:	2345      	movs	r3, #69	; 0x45
10006dca:	5cf3      	ldrb	r3, [r6, r3]
10006dcc:	00db      	lsls	r3, r3, #3
10006dce:	e71c      	b.n	10006c0a <_ZN11ST7735_pico5writeEPKhj+0x36>
10006dd0:	1908      	adds	r0, r1, r4
10006dd2:	0fc1      	lsrs	r1, r0, #31
10006dd4:	1809      	adds	r1, r1, r0
10006dd6:	1048      	asrs	r0, r1, #1
10006dd8:	8971      	ldrh	r1, [r6, #10]
10006dda:	1a09      	subs	r1, r1, r0
10006ddc:	8171      	strh	r1, [r6, #10]
10006dde:	e78a      	b.n	10006cf6 <_ZN11ST7735_pico5writeEPKhj+0x122>
10006de0:	2333      	movs	r3, #51	; 0x33
10006de2:	5cf3      	ldrb	r3, [r6, r3]
10006de4:	2b00      	cmp	r3, #0
10006de6:	d09e      	beq.n	10006d26 <_ZN11ST7735_pico5writeEPKhj+0x152>
10006de8:	232c      	movs	r3, #44	; 0x2c
10006dea:	5ef0      	ldrsh	r0, [r6, r3]
10006dec:	230c      	movs	r3, #12
10006dee:	5ef2      	ldrsh	r2, [r6, r3]
10006df0:	2130      	movs	r1, #48	; 0x30
10006df2:	5e73      	ldrsh	r3, [r6, r1]
10006df4:	4680      	mov	r8, r0
10006df6:	61fb      	str	r3, [r7, #28]
10006df8:	2345      	movs	r3, #69	; 0x45
10006dfa:	5cf3      	ldrb	r3, [r6, r3]
10006dfc:	00d9      	lsls	r1, r3, #3
10006dfe:	468c      	mov	ip, r1
10006e00:	4660      	mov	r0, ip
10006e02:	69f9      	ldr	r1, [r7, #28]
10006e04:	4441      	add	r1, r8
10006e06:	1a08      	subs	r0, r1, r0
10006e08:	4282      	cmp	r2, r0
10006e0a:	dc17      	bgt.n	10006e3c <_ZN11ST7735_pico5writeEPKhj+0x268>
10006e0c:	200a      	movs	r0, #10
10006e0e:	5e31      	ldrsh	r1, [r6, r0]
10006e10:	e78f      	b.n	10006d32 <_ZN11ST7735_pico5writeEPKhj+0x15e>
10006e12:	001c      	movs	r4, r3
10006e14:	e762      	b.n	10006cdc <_ZN11ST7735_pico5writeEPKhj+0x108>
10006e16:	222a      	movs	r2, #42	; 0x2a
10006e18:	5eb0      	ldrsh	r0, [r6, r2]
10006e1a:	008a      	lsls	r2, r1, #2
10006e1c:	1a8a      	subs	r2, r1, r2
10006e1e:	252e      	movs	r5, #46	; 0x2e
10006e20:	5f71      	ldrsh	r1, [r6, r5]
10006e22:	0052      	lsls	r2, r2, #1
10006e24:	1809      	adds	r1, r1, r0
10006e26:	1889      	adds	r1, r1, r2
10006e28:	428b      	cmp	r3, r1
10006e2a:	dda7      	ble.n	10006d7c <_ZN11ST7735_pico5writeEPKhj+0x1a8>
10006e2c:	2345      	movs	r3, #69	; 0x45
10006e2e:	5cf3      	ldrb	r3, [r6, r3]
10006e30:	89b2      	ldrh	r2, [r6, #12]
10006e32:	00db      	lsls	r3, r3, #3
10006e34:	189b      	adds	r3, r3, r2
10006e36:	81b3      	strh	r3, [r6, #12]
10006e38:	8170      	strh	r0, [r6, #10]
10006e3a:	e6f5      	b.n	10006c28 <_ZN11ST7735_pico5writeEPKhj+0x54>
10006e3c:	466a      	mov	r2, sp
10006e3e:	60fa      	str	r2, [r7, #12]
10006e40:	222e      	movs	r2, #46	; 0x2e
10006e42:	5eb0      	ldrsh	r0, [r6, r2]
10006e44:	4663      	mov	r3, ip
10006e46:	0042      	lsls	r2, r0, #1
10006e48:	61b8      	str	r0, [r7, #24]
10006e4a:	4668      	mov	r0, sp
10006e4c:	3207      	adds	r2, #7
10006e4e:	08d2      	lsrs	r2, r2, #3
10006e50:	00d2      	lsls	r2, r2, #3
10006e52:	1a82      	subs	r2, r0, r2
10006e54:	4695      	mov	sp, r2
10006e56:	aa04      	add	r2, sp, #16
10006e58:	4660      	mov	r0, ip
10006e5a:	60ba      	str	r2, [r7, #8]
10006e5c:	22ff      	movs	r2, #255	; 0xff
10006e5e:	4002      	ands	r2, r0
10006e60:	4640      	mov	r0, r8
10006e62:	b2db      	uxtb	r3, r3
10006e64:	617b      	str	r3, [r7, #20]
10006e66:	613b      	str	r3, [r7, #16]
10006e68:	69fb      	ldr	r3, [r7, #28]
10006e6a:	1880      	adds	r0, r0, r2
10006e6c:	4293      	cmp	r3, r2
10006e6e:	dd43      	ble.n	10006ef8 <_ZN11ST7735_pico5writeEPKhj+0x324>
10006e70:	697b      	ldr	r3, [r7, #20]
10006e72:	607d      	str	r5, [r7, #4]
10006e74:	b299      	uxth	r1, r3
10006e76:	6179      	str	r1, [r7, #20]
10006e78:	1c41      	adds	r1, r0, #1
10006e7a:	4688      	mov	r8, r1
10006e7c:	4642      	mov	r2, r8
10006e7e:	1ac0      	subs	r0, r0, r3
10006e80:	1a41      	subs	r1, r0, r1
10006e82:	46a0      	mov	r8, r4
10006e84:	68bd      	ldr	r5, [r7, #8]
10006e86:	0014      	movs	r4, r2
10006e88:	69bb      	ldr	r3, [r7, #24]
10006e8a:	61f9      	str	r1, [r7, #28]
10006e8c:	e002      	b.n	10006e94 <_ZN11ST7735_pico5writeEPKhj+0x2c0>
10006e8e:	222e      	movs	r2, #46	; 0x2e
10006e90:	5eb3      	ldrsh	r3, [r6, r2]
10006e92:	3401      	adds	r4, #1
10006e94:	202a      	movs	r0, #42	; 0x2a
10006e96:	5e31      	ldrsh	r1, [r6, r0]
10006e98:	2001      	movs	r0, #1
10006e9a:	69fa      	ldr	r2, [r7, #28]
10006e9c:	9000      	str	r0, [sp, #0]
10006e9e:	1912      	adds	r2, r2, r4
10006ea0:	b212      	sxth	r2, r2
10006ea2:	0030      	movs	r0, r6
10006ea4:	9501      	str	r5, [sp, #4]
10006ea6:	f7fa feeb 	bl	10001c80 <_ZN11ST7735_pico9writeRectEssssPKt>
10006eaa:	232c      	movs	r3, #44	; 0x2c
10006eac:	5ef1      	ldrsh	r1, [r6, r3]
10006eae:	2230      	movs	r2, #48	; 0x30
10006eb0:	5eb3      	ldrsh	r3, [r6, r2]
10006eb2:	18c9      	adds	r1, r1, r3
10006eb4:	42a1      	cmp	r1, r4
10006eb6:	dcea      	bgt.n	10006e8e <_ZN11ST7735_pico5writeEPKhj+0x2ba>
10006eb8:	4644      	mov	r4, r8
10006eba:	222e      	movs	r2, #46	; 0x2e
10006ebc:	5eb3      	ldrsh	r3, [r6, r2]
10006ebe:	687d      	ldr	r5, [r7, #4]
10006ec0:	61bb      	str	r3, [r7, #24]
10006ec2:	697a      	ldr	r2, [r7, #20]
10006ec4:	1a8a      	subs	r2, r1, r2
10006ec6:	202a      	movs	r0, #42	; 0x2a
10006ec8:	5e31      	ldrsh	r1, [r6, r0]
10006eca:	8f30      	ldrh	r0, [r6, #56]	; 0x38
10006ecc:	b212      	sxth	r2, r2
10006ece:	9001      	str	r0, [sp, #4]
10006ed0:	2310      	movs	r3, #16
10006ed2:	5ef8      	ldrsh	r0, [r7, r3]
10006ed4:	9000      	str	r0, [sp, #0]
10006ed6:	69bb      	ldr	r3, [r7, #24]
10006ed8:	0030      	movs	r0, r6
10006eda:	f7fa fcf1 	bl	100018c0 <_ZN11ST7735_pico8fillRectEsssst>
10006ede:	68fb      	ldr	r3, [r7, #12]
10006ee0:	89b2      	ldrh	r2, [r6, #12]
10006ee2:	469d      	mov	sp, r3
10006ee4:	2345      	movs	r3, #69	; 0x45
10006ee6:	5cf3      	ldrb	r3, [r6, r3]
10006ee8:	00d9      	lsls	r1, r3, #3
10006eea:	1a52      	subs	r2, r2, r1
10006eec:	202a      	movs	r0, #42	; 0x2a
10006eee:	5e31      	ldrsh	r1, [r6, r0]
10006ef0:	b212      	sxth	r2, r2
10006ef2:	81b2      	strh	r2, [r6, #12]
10006ef4:	8171      	strh	r1, [r6, #10]
10006ef6:	e71c      	b.n	10006d32 <_ZN11ST7735_pico5writeEPKhj+0x15e>
10006ef8:	8a3b      	ldrh	r3, [r7, #16]
10006efa:	617b      	str	r3, [r7, #20]
10006efc:	e7e1      	b.n	10006ec2 <_ZN11ST7735_pico5writeEPKhj+0x2ee>
10006efe:	46c0      	nop			; (mov r8, r8)

10006f00 <gpio_set_function>:
10006f00:	4a09      	ldr	r2, [pc, #36]	; (10006f28 <gpio_set_function+0x28>)
10006f02:	0083      	lsls	r3, r0, #2
10006f04:	4694      	mov	ip, r2
10006f06:	2240      	movs	r2, #64	; 0x40
10006f08:	4463      	add	r3, ip
10006f0a:	b510      	push	{r4, lr}
10006f0c:	681c      	ldr	r4, [r3, #0]
10006f0e:	00c0      	lsls	r0, r0, #3
10006f10:	4062      	eors	r2, r4
10006f12:	24c0      	movs	r4, #192	; 0xc0
10006f14:	4014      	ands	r4, r2
10006f16:	2280      	movs	r2, #128	; 0x80
10006f18:	0152      	lsls	r2, r2, #5
10006f1a:	4313      	orrs	r3, r2
10006f1c:	601c      	str	r4, [r3, #0]
10006f1e:	4b03      	ldr	r3, [pc, #12]	; (10006f2c <gpio_set_function+0x2c>)
10006f20:	469c      	mov	ip, r3
10006f22:	4460      	add	r0, ip
10006f24:	6041      	str	r1, [r0, #4]
10006f26:	bd10      	pop	{r4, pc}
10006f28:	4001c004 	.word	0x4001c004
10006f2c:	40014000 	.word	0x40014000

10006f30 <gpio_init>:
10006f30:	2301      	movs	r3, #1
10006f32:	22d0      	movs	r2, #208	; 0xd0
10006f34:	4083      	lsls	r3, r0
10006f36:	0612      	lsls	r2, r2, #24
10006f38:	6293      	str	r3, [r2, #40]	; 0x28
10006f3a:	6193      	str	r3, [r2, #24]
10006f3c:	4a09      	ldr	r2, [pc, #36]	; (10006f64 <gpio_init+0x34>)
10006f3e:	0083      	lsls	r3, r0, #2
10006f40:	4694      	mov	ip, r2
10006f42:	2240      	movs	r2, #64	; 0x40
10006f44:	4463      	add	r3, ip
10006f46:	6819      	ldr	r1, [r3, #0]
10006f48:	00c0      	lsls	r0, r0, #3
10006f4a:	404a      	eors	r2, r1
10006f4c:	21c0      	movs	r1, #192	; 0xc0
10006f4e:	4011      	ands	r1, r2
10006f50:	2280      	movs	r2, #128	; 0x80
10006f52:	0152      	lsls	r2, r2, #5
10006f54:	4313      	orrs	r3, r2
10006f56:	6019      	str	r1, [r3, #0]
10006f58:	4b03      	ldr	r3, [pc, #12]	; (10006f68 <gpio_init+0x38>)
10006f5a:	469c      	mov	ip, r3
10006f5c:	2305      	movs	r3, #5
10006f5e:	4460      	add	r0, ip
10006f60:	6043      	str	r3, [r0, #4]
10006f62:	4770      	bx	lr
10006f64:	4001c004 	.word	0x4001c004
10006f68:	40014000 	.word	0x40014000

10006f6c <hw_claim_or_assert>:
10006f6c:	b570      	push	{r4, r5, r6, lr}
10006f6e:	f3ef 8c10 	mrs	ip, PRIMASK
10006f72:	b672      	cpsid	i
10006f74:	4d0d      	ldr	r5, [pc, #52]	; (10006fac <hw_claim_or_assert+0x40>)
10006f76:	682b      	ldr	r3, [r5, #0]
10006f78:	2b00      	cmp	r3, #0
10006f7a:	d0fc      	beq.n	10006f76 <hw_claim_or_assert+0xa>
10006f7c:	f3bf 8f5f 	dmb	sy
10006f80:	2407      	movs	r4, #7
10006f82:	08cb      	lsrs	r3, r1, #3
10006f84:	18c6      	adds	r6, r0, r3
10006f86:	5cc0      	ldrb	r0, [r0, r3]
10006f88:	2301      	movs	r3, #1
10006f8a:	400c      	ands	r4, r1
10006f8c:	40a3      	lsls	r3, r4
10006f8e:	001c      	movs	r4, r3
10006f90:	4004      	ands	r4, r0
10006f92:	4203      	tst	r3, r0
10006f94:	d107      	bne.n	10006fa6 <hw_claim_or_assert+0x3a>
10006f96:	4303      	orrs	r3, r0
10006f98:	7033      	strb	r3, [r6, #0]
10006f9a:	f3bf 8f5f 	dmb	sy
10006f9e:	602c      	str	r4, [r5, #0]
10006fa0:	f38c 8810 	msr	PRIMASK, ip
10006fa4:	bd70      	pop	{r4, r5, r6, pc}
10006fa6:	0010      	movs	r0, r2
10006fa8:	f001 f856 	bl	10008058 <panic>
10006fac:	d000012c 	.word	0xd000012c

10006fb0 <running_on_fpga>:
10006fb0:	4b02      	ldr	r3, [pc, #8]	; (10006fbc <running_on_fpga+0xc>)
10006fb2:	6818      	ldr	r0, [r3, #0]
10006fb4:	0780      	lsls	r0, r0, #30
10006fb6:	0fc0      	lsrs	r0, r0, #31
10006fb8:	4770      	bx	lr
10006fba:	46c0      	nop			; (mov r8, r8)
10006fbc:	4006c000 	.word	0x4006c000

10006fc0 <spin_locks_reset>:
10006fc0:	2100      	movs	r1, #0
10006fc2:	4b04      	ldr	r3, [pc, #16]	; (10006fd4 <spin_locks_reset+0x14>)
10006fc4:	4a04      	ldr	r2, [pc, #16]	; (10006fd8 <spin_locks_reset+0x18>)
10006fc6:	f3bf 8f5f 	dmb	sy
10006fca:	c302      	stmia	r3!, {r1}
10006fcc:	4293      	cmp	r3, r2
10006fce:	d1fa      	bne.n	10006fc6 <spin_locks_reset+0x6>
10006fd0:	4770      	bx	lr
10006fd2:	46c0      	nop			; (mov r8, r8)
10006fd4:	d0000100 	.word	0xd0000100
10006fd8:	d0000180 	.word	0xd0000180

10006fdc <next_striped_spin_lock_num>:
10006fdc:	4a04      	ldr	r2, [pc, #16]	; (10006ff0 <next_striped_spin_lock_num+0x14>)
10006fde:	7810      	ldrb	r0, [r2, #0]
10006fe0:	1c43      	adds	r3, r0, #1
10006fe2:	b2db      	uxtb	r3, r3
10006fe4:	2b17      	cmp	r3, #23
10006fe6:	d900      	bls.n	10006fea <next_striped_spin_lock_num+0xe>
10006fe8:	2310      	movs	r3, #16
10006fea:	7013      	strb	r3, [r2, #0]
10006fec:	4770      	bx	lr
10006fee:	46c0      	nop			; (mov r8, r8)
10006ff0:	20000520 	.word	0x20000520

10006ff4 <irq_set_enabled>:
10006ff4:	2301      	movs	r3, #1
10006ff6:	4083      	lsls	r3, r0
10006ff8:	2900      	cmp	r1, #0
10006ffa:	d004      	beq.n	10007006 <irq_set_enabled+0x12>
10006ffc:	4a03      	ldr	r2, [pc, #12]	; (1000700c <irq_set_enabled+0x18>)
10006ffe:	6013      	str	r3, [r2, #0]
10007000:	4a03      	ldr	r2, [pc, #12]	; (10007010 <irq_set_enabled+0x1c>)
10007002:	6013      	str	r3, [r2, #0]
10007004:	4770      	bx	lr
10007006:	4a03      	ldr	r2, [pc, #12]	; (10007014 <irq_set_enabled+0x20>)
10007008:	6013      	str	r3, [r2, #0]
1000700a:	e7fb      	b.n	10007004 <irq_set_enabled+0x10>
1000700c:	e000e280 	.word	0xe000e280
10007010:	e000e100 	.word	0xe000e100
10007014:	e000e180 	.word	0xe000e180

10007018 <irq_get_vtable_handler>:
10007018:	4b02      	ldr	r3, [pc, #8]	; (10007024 <irq_get_vtable_handler+0xc>)
1000701a:	3010      	adds	r0, #16
1000701c:	689b      	ldr	r3, [r3, #8]
1000701e:	0080      	lsls	r0, r0, #2
10007020:	58c0      	ldr	r0, [r0, r3]
10007022:	4770      	bx	lr
10007024:	e000ed00 	.word	0xe000ed00

10007028 <irq_set_exclusive_handler>:
10007028:	b570      	push	{r4, r5, r6, lr}
1000702a:	000d      	movs	r5, r1
1000702c:	f3ef 8610 	mrs	r6, PRIMASK
10007030:	b672      	cpsid	i
10007032:	4a0f      	ldr	r2, [pc, #60]	; (10007070 <irq_set_exclusive_handler+0x48>)
10007034:	6813      	ldr	r3, [r2, #0]
10007036:	2b00      	cmp	r3, #0
10007038:	d0fc      	beq.n	10007034 <irq_set_exclusive_handler+0xc>
1000703a:	f3bf 8f5f 	dmb	sy
1000703e:	4b0d      	ldr	r3, [pc, #52]	; (10007074 <irq_set_exclusive_handler+0x4c>)
10007040:	3010      	adds	r0, #16
10007042:	689b      	ldr	r3, [r3, #8]
10007044:	0084      	lsls	r4, r0, #2
10007046:	591b      	ldr	r3, [r3, r4]
10007048:	4a0b      	ldr	r2, [pc, #44]	; (10007078 <irq_set_exclusive_handler+0x50>)
1000704a:	4293      	cmp	r3, r2
1000704c:	d003      	beq.n	10007056 <irq_set_exclusive_handler+0x2e>
1000704e:	429d      	cmp	r5, r3
10007050:	d001      	beq.n	10007056 <irq_set_exclusive_handler+0x2e>
10007052:	f001 f819 	bl	10008088 <hard_assertion_failure>
10007056:	4b07      	ldr	r3, [pc, #28]	; (10007074 <irq_set_exclusive_handler+0x4c>)
10007058:	689b      	ldr	r3, [r3, #8]
1000705a:	511d      	str	r5, [r3, r4]
1000705c:	f3bf 8f5f 	dmb	sy
10007060:	f3bf 8f5f 	dmb	sy
10007064:	2200      	movs	r2, #0
10007066:	4b02      	ldr	r3, [pc, #8]	; (10007070 <irq_set_exclusive_handler+0x48>)
10007068:	601a      	str	r2, [r3, #0]
1000706a:	f386 8810 	msr	PRIMASK, r6
1000706e:	bd70      	pop	{r4, r5, r6, pc}
10007070:	d0000124 	.word	0xd0000124
10007074:	e000ed00 	.word	0xe000ed00
10007078:	100001cd 	.word	0x100001cd

1000707c <irq_remove_handler>:
1000707c:	b5f0      	push	{r4, r5, r6, r7, lr}
1000707e:	46de      	mov	lr, fp
10007080:	4657      	mov	r7, sl
10007082:	464e      	mov	r6, r9
10007084:	4645      	mov	r5, r8
10007086:	b5e0      	push	{r5, r6, r7, lr}
10007088:	000c      	movs	r4, r1
1000708a:	b083      	sub	sp, #12
1000708c:	f3ef 8a10 	mrs	sl, PRIMASK
10007090:	b672      	cpsid	i
10007092:	4a5a      	ldr	r2, [pc, #360]	; (100071fc <irq_remove_handler+0x180>)
10007094:	6813      	ldr	r3, [r2, #0]
10007096:	2b00      	cmp	r3, #0
10007098:	d0fc      	beq.n	10007094 <irq_remove_handler+0x18>
1000709a:	f3bf 8f5f 	dmb	sy
1000709e:	2210      	movs	r2, #16
100070a0:	4691      	mov	r9, r2
100070a2:	4481      	add	r9, r0
100070a4:	464a      	mov	r2, r9
100070a6:	4b56      	ldr	r3, [pc, #344]	; (10007200 <irq_remove_handler+0x184>)
100070a8:	0096      	lsls	r6, r2, #2
100070aa:	689b      	ldr	r3, [r3, #8]
100070ac:	599d      	ldr	r5, [r3, r6]
100070ae:	4b55      	ldr	r3, [pc, #340]	; (10007204 <irq_remove_handler+0x188>)
100070b0:	4698      	mov	r8, r3
100070b2:	429d      	cmp	r5, r3
100070b4:	d005      	beq.n	100070c2 <irq_remove_handler+0x46>
100070b6:	42a5      	cmp	r5, r4
100070b8:	d016      	beq.n	100070e8 <irq_remove_handler+0x6c>
100070ba:	4f53      	ldr	r7, [pc, #332]	; (10007208 <irq_remove_handler+0x18c>)
100070bc:	1beb      	subs	r3, r5, r7
100070be:	2b2f      	cmp	r3, #47	; 0x2f
100070c0:	d914      	bls.n	100070ec <irq_remove_handler+0x70>
100070c2:	4b4f      	ldr	r3, [pc, #316]	; (10007200 <irq_remove_handler+0x184>)
100070c4:	689b      	ldr	r3, [r3, #8]
100070c6:	519d      	str	r5, [r3, r6]
100070c8:	f3bf 8f5f 	dmb	sy
100070cc:	f3bf 8f5f 	dmb	sy
100070d0:	2200      	movs	r2, #0
100070d2:	4b4a      	ldr	r3, [pc, #296]	; (100071fc <irq_remove_handler+0x180>)
100070d4:	601a      	str	r2, [r3, #0]
100070d6:	f38a 8810 	msr	PRIMASK, sl
100070da:	b003      	add	sp, #12
100070dc:	bcf0      	pop	{r4, r5, r6, r7}
100070de:	46bb      	mov	fp, r7
100070e0:	46b2      	mov	sl, r6
100070e2:	46a9      	mov	r9, r5
100070e4:	46a0      	mov	r8, r4
100070e6:	bdf0      	pop	{r4, r5, r6, r7, pc}
100070e8:	001d      	movs	r5, r3
100070ea:	e7ea      	b.n	100070c2 <irq_remove_handler+0x46>
100070ec:	2301      	movs	r3, #1
100070ee:	4083      	lsls	r3, r0
100070f0:	469b      	mov	fp, r3
100070f2:	465a      	mov	r2, fp
100070f4:	4b45      	ldr	r3, [pc, #276]	; (1000720c <irq_remove_handler+0x190>)
100070f6:	681b      	ldr	r3, [r3, #0]
100070f8:	401a      	ands	r2, r3
100070fa:	9200      	str	r2, [sp, #0]
100070fc:	465a      	mov	r2, fp
100070fe:	4b44      	ldr	r3, [pc, #272]	; (10007210 <irq_remove_handler+0x194>)
10007100:	601a      	str	r2, [r3, #0]
10007102:	f3bf 8f5f 	dmb	sy
10007106:	f7f9 f8ae 	bl	10000266 <__get_current_exception>
1000710a:	9001      	str	r0, [sp, #4]
1000710c:	2800      	cmp	r0, #0
1000710e:	d003      	beq.n	10007118 <irq_remove_handler+0x9c>
10007110:	4581      	cmp	r9, r0
10007112:	d001      	beq.n	10007118 <irq_remove_handler+0x9c>
10007114:	f000 ffb8 	bl	10008088 <hard_assertion_failure>
10007118:	2301      	movs	r3, #1
1000711a:	002a      	movs	r2, r5
1000711c:	439a      	bics	r2, r3
1000711e:	6893      	ldr	r3, [r2, #8]
10007120:	429c      	cmp	r4, r3
10007122:	d108      	bne.n	10007136 <irq_remove_handler+0xba>
10007124:	e05f      	b.n	100071e6 <irq_remove_handler+0x16a>
10007126:	004b      	lsls	r3, r1, #1
10007128:	185b      	adds	r3, r3, r1
1000712a:	009b      	lsls	r3, r3, #2
1000712c:	18fb      	adds	r3, r7, r3
1000712e:	6899      	ldr	r1, [r3, #8]
10007130:	42a1      	cmp	r1, r4
10007132:	d011      	beq.n	10007158 <irq_remove_handler+0xdc>
10007134:	001a      	movs	r2, r3
10007136:	2106      	movs	r1, #6
10007138:	5651      	ldrsb	r1, [r2, r1]
1000713a:	2900      	cmp	r1, #0
1000713c:	daf3      	bge.n	10007126 <irq_remove_handler+0xaa>
1000713e:	9b00      	ldr	r3, [sp, #0]
10007140:	2b00      	cmp	r3, #0
10007142:	d005      	beq.n	10007150 <irq_remove_handler+0xd4>
10007144:	465a      	mov	r2, fp
10007146:	4b33      	ldr	r3, [pc, #204]	; (10007214 <irq_remove_handler+0x198>)
10007148:	601a      	str	r2, [r3, #0]
1000714a:	4b30      	ldr	r3, [pc, #192]	; (1000720c <irq_remove_handler+0x190>)
1000714c:	601a      	str	r2, [r3, #0]
1000714e:	e7b8      	b.n	100070c2 <irq_remove_handler+0x46>
10007150:	465a      	mov	r2, fp
10007152:	4b2f      	ldr	r3, [pc, #188]	; (10007210 <irq_remove_handler+0x194>)
10007154:	601a      	str	r2, [r3, #0]
10007156:	e7b4      	b.n	100070c2 <irq_remove_handler+0x46>
10007158:	2106      	movs	r1, #6
1000715a:	5659      	ldrsb	r1, [r3, r1]
1000715c:	2900      	cmp	r1, #0
1000715e:	db21      	blt.n	100071a4 <irq_remove_handler+0x128>
10007160:	004a      	lsls	r2, r1, #1
10007162:	1850      	adds	r0, r2, r1
10007164:	0080      	lsls	r0, r0, #2
10007166:	183c      	adds	r4, r7, r0
10007168:	4680      	mov	r8, r0
1000716a:	68a0      	ldr	r0, [r4, #8]
1000716c:	6098      	str	r0, [r3, #8]
1000716e:	79e0      	ldrb	r0, [r4, #7]
10007170:	71d8      	strb	r0, [r3, #7]
10007172:	2006      	movs	r0, #6
10007174:	5620      	ldrsb	r0, [r4, r0]
10007176:	7198      	strb	r0, [r3, #6]
10007178:	2800      	cmp	r0, #0
1000717a:	db24      	blt.n	100071c6 <irq_remove_handler+0x14a>
1000717c:	88a4      	ldrh	r4, [r4, #4]
1000717e:	1af8      	subs	r0, r7, r3
10007180:	0564      	lsls	r4, r4, #21
10007182:	1524      	asrs	r4, r4, #20
10007184:	4444      	add	r4, r8
10007186:	1900      	adds	r0, r0, r4
10007188:	24e0      	movs	r4, #224	; 0xe0
1000718a:	0500      	lsls	r0, r0, #20
1000718c:	0d40      	lsrs	r0, r0, #21
1000718e:	0224      	lsls	r4, r4, #8
10007190:	4320      	orrs	r0, r4
10007192:	8098      	strh	r0, [r3, #4]
10007194:	1852      	adds	r2, r2, r1
10007196:	4b20      	ldr	r3, [pc, #128]	; (10007218 <irq_remove_handler+0x19c>)
10007198:	0092      	lsls	r2, r2, #2
1000719a:	18bf      	adds	r7, r7, r2
1000719c:	781a      	ldrb	r2, [r3, #0]
1000719e:	7019      	strb	r1, [r3, #0]
100071a0:	71ba      	strb	r2, [r7, #6]
100071a2:	e7cc      	b.n	1000713e <irq_remove_handler+0xc2>
100071a4:	9901      	ldr	r1, [sp, #4]
100071a6:	2900      	cmp	r1, #0
100071a8:	d110      	bne.n	100071cc <irq_remove_handler+0x150>
100071aa:	31ff      	adds	r1, #255	; 0xff
100071ac:	7191      	strb	r1, [r2, #6]
100071ae:	491b      	ldr	r1, [pc, #108]	; (1000721c <irq_remove_handler+0x1a0>)
100071b0:	8091      	strh	r1, [r2, #4]
100071b2:	4919      	ldr	r1, [pc, #100]	; (10007218 <irq_remove_handler+0x19c>)
100071b4:	780a      	ldrb	r2, [r1, #0]
100071b6:	719a      	strb	r2, [r3, #6]
100071b8:	4a19      	ldr	r2, [pc, #100]	; (10007220 <irq_remove_handler+0x1a4>)
100071ba:	1bdb      	subs	r3, r3, r7
100071bc:	415b      	adcs	r3, r3
100071be:	435a      	muls	r2, r3
100071c0:	0d12      	lsrs	r2, r2, #20
100071c2:	700a      	strb	r2, [r1, #0]
100071c4:	e7bb      	b.n	1000713e <irq_remove_handler+0xc2>
100071c6:	20bd      	movs	r0, #189	; 0xbd
100071c8:	0200      	lsls	r0, r0, #8
100071ca:	e7e2      	b.n	10007192 <irq_remove_handler+0x116>
100071cc:	4a15      	ldr	r2, [pc, #84]	; (10007224 <irq_remove_handler+0x1a8>)
100071ce:	4916      	ldr	r1, [pc, #88]	; (10007228 <irq_remove_handler+0x1ac>)
100071d0:	1ad2      	subs	r2, r2, r3
100071d2:	3a08      	subs	r2, #8
100071d4:	0250      	lsls	r0, r2, #9
100071d6:	0d40      	lsrs	r0, r0, #21
100071d8:	4301      	orrs	r1, r0
100071da:	8099      	strh	r1, [r3, #4]
100071dc:	4913      	ldr	r1, [pc, #76]	; (1000722c <irq_remove_handler+0x1b0>)
100071de:	0852      	lsrs	r2, r2, #1
100071e0:	430a      	orrs	r2, r1
100071e2:	80da      	strh	r2, [r3, #6]
100071e4:	e7ab      	b.n	1000713e <irq_remove_handler+0xc2>
100071e6:	2106      	movs	r1, #6
100071e8:	5651      	ldrsb	r1, [r2, r1]
100071ea:	0013      	movs	r3, r2
100071ec:	2900      	cmp	r1, #0
100071ee:	dab7      	bge.n	10007160 <irq_remove_handler+0xe4>
100071f0:	9a01      	ldr	r2, [sp, #4]
100071f2:	2a00      	cmp	r2, #0
100071f4:	d1ea      	bne.n	100071cc <irq_remove_handler+0x150>
100071f6:	4645      	mov	r5, r8
100071f8:	e7db      	b.n	100071b2 <irq_remove_handler+0x136>
100071fa:	46c0      	nop			; (mov r8, r8)
100071fc:	d0000124 	.word	0xd0000124
10007200:	e000ed00 	.word	0xe000ed00
10007204:	100001cd 	.word	0x100001cd
10007208:	20000524 	.word	0x20000524
1000720c:	e000e100 	.word	0xe000e100
10007210:	e000e180 	.word	0xe000e180
10007214:	e000e280 	.word	0xe000e280
10007218:	20001346 	.word	0x20001346
1000721c:	ffffbd00 	.word	0xffffbd00
10007220:	0000aaaa 	.word	0x0000aaaa
10007224:	2000055e 	.word	0x2000055e
10007228:	fffff000 	.word	0xfffff000
1000722c:	fffff800 	.word	0xfffff800

10007230 <irq_add_tail_to_free_list>:
10007230:	b5f8      	push	{r3, r4, r5, r6, r7, lr}
10007232:	2501      	movs	r5, #1
10007234:	0004      	movs	r4, r0
10007236:	4305      	orrs	r5, r0
10007238:	f7f9 f815 	bl	10000266 <__get_current_exception>
1000723c:	f3ef 8c10 	mrs	ip, PRIMASK
10007240:	b672      	cpsid	i
10007242:	4a21      	ldr	r2, [pc, #132]	; (100072c8 <irq_add_tail_to_free_list+0x98>)
10007244:	6813      	ldr	r3, [r2, #0]
10007246:	2b00      	cmp	r3, #0
10007248:	d0fc      	beq.n	10007244 <irq_add_tail_to_free_list+0x14>
1000724a:	f3bf 8f5f 	dmb	sy
1000724e:	4e1f      	ldr	r6, [pc, #124]	; (100072cc <irq_add_tail_to_free_list+0x9c>)
10007250:	0021      	movs	r1, r4
10007252:	68b7      	ldr	r7, [r6, #8]
10007254:	4a1e      	ldr	r2, [pc, #120]	; (100072d0 <irq_add_tail_to_free_list+0xa0>)
10007256:	4b1f      	ldr	r3, [pc, #124]	; (100072d4 <irq_add_tail_to_free_list+0xa4>)
10007258:	1a89      	subs	r1, r1, r2
1000725a:	4149      	adcs	r1, r1
1000725c:	434b      	muls	r3, r1
1000725e:	0d1b      	lsrs	r3, r3, #20
10007260:	b259      	sxtb	r1, r3
10007262:	0083      	lsls	r3, r0, #2
10007264:	58f8      	ldr	r0, [r7, r3]
10007266:	42a8      	cmp	r0, r5
10007268:	d01c      	beq.n	100072a4 <irq_add_tail_to_free_list+0x74>
1000726a:	2306      	movs	r3, #6
1000726c:	56d3      	ldrsb	r3, [r2, r3]
1000726e:	428b      	cmp	r3, r1
10007270:	d01c      	beq.n	100072ac <irq_add_tail_to_free_list+0x7c>
10007272:	2312      	movs	r3, #18
10007274:	56d3      	ldrsb	r3, [r2, r3]
10007276:	428b      	cmp	r3, r1
10007278:	d022      	beq.n	100072c0 <irq_add_tail_to_free_list+0x90>
1000727a:	231e      	movs	r3, #30
1000727c:	56d3      	ldrsb	r3, [r2, r3]
1000727e:	428b      	cmp	r3, r1
10007280:	d020      	beq.n	100072c4 <irq_add_tail_to_free_list+0x94>
10007282:	232a      	movs	r3, #42	; 0x2a
10007284:	56d3      	ldrsb	r3, [r2, r3]
10007286:	2003      	movs	r0, #3
10007288:	428b      	cmp	r3, r1
1000728a:	d010      	beq.n	100072ae <irq_add_tail_to_free_list+0x7e>
1000728c:	4b12      	ldr	r3, [pc, #72]	; (100072d8 <irq_add_tail_to_free_list+0xa8>)
1000728e:	781a      	ldrb	r2, [r3, #0]
10007290:	7019      	strb	r1, [r3, #0]
10007292:	71a2      	strb	r2, [r4, #6]
10007294:	f3bf 8f5f 	dmb	sy
10007298:	2200      	movs	r2, #0
1000729a:	4b0b      	ldr	r3, [pc, #44]	; (100072c8 <irq_add_tail_to_free_list+0x98>)
1000729c:	601a      	str	r2, [r3, #0]
1000729e:	f38c 8810 	msr	PRIMASK, ip
100072a2:	bdf8      	pop	{r3, r4, r5, r6, r7, pc}
100072a4:	68b2      	ldr	r2, [r6, #8]
100072a6:	480d      	ldr	r0, [pc, #52]	; (100072dc <irq_add_tail_to_free_list+0xac>)
100072a8:	50d0      	str	r0, [r2, r3]
100072aa:	e7ef      	b.n	1000728c <irq_add_tail_to_free_list+0x5c>
100072ac:	2000      	movs	r0, #0
100072ae:	0043      	lsls	r3, r0, #1
100072b0:	181b      	adds	r3, r3, r0
100072b2:	009b      	lsls	r3, r3, #2
100072b4:	18d2      	adds	r2, r2, r3
100072b6:	23ff      	movs	r3, #255	; 0xff
100072b8:	7193      	strb	r3, [r2, #6]
100072ba:	4b09      	ldr	r3, [pc, #36]	; (100072e0 <irq_add_tail_to_free_list+0xb0>)
100072bc:	8093      	strh	r3, [r2, #4]
100072be:	e7e5      	b.n	1000728c <irq_add_tail_to_free_list+0x5c>
100072c0:	2001      	movs	r0, #1
100072c2:	e7f4      	b.n	100072ae <irq_add_tail_to_free_list+0x7e>
100072c4:	2002      	movs	r0, #2
100072c6:	e7f2      	b.n	100072ae <irq_add_tail_to_free_list+0x7e>
100072c8:	d0000124 	.word	0xd0000124
100072cc:	e000ed00 	.word	0xe000ed00
100072d0:	20000524 	.word	0x20000524
100072d4:	0000aaaa 	.word	0x0000aaaa
100072d8:	20001346 	.word	0x20001346
100072dc:	100001cd 	.word	0x100001cd
100072e0:	ffffbd00 	.word	0xffffbd00

100072e4 <irq_init_priorities>:
100072e4:	4b05      	ldr	r3, [pc, #20]	; (100072fc <irq_init_priorities+0x18>)
100072e6:	4a06      	ldr	r2, [pc, #24]	; (10007300 <irq_init_priorities+0x1c>)
100072e8:	6013      	str	r3, [r2, #0]
100072ea:	4a06      	ldr	r2, [pc, #24]	; (10007304 <irq_init_priorities+0x20>)
100072ec:	6013      	str	r3, [r2, #0]
100072ee:	6053      	str	r3, [r2, #4]
100072f0:	6093      	str	r3, [r2, #8]
100072f2:	60d3      	str	r3, [r2, #12]
100072f4:	6113      	str	r3, [r2, #16]
100072f6:	6153      	str	r3, [r2, #20]
100072f8:	6193      	str	r3, [r2, #24]
100072fa:	4770      	bx	lr
100072fc:	80808080 	.word	0x80808080
10007300:	e000e400 	.word	0xe000e400
10007304:	e000e404 	.word	0xe000e404

10007308 <lock_init>:
10007308:	4b02      	ldr	r3, [pc, #8]	; (10007314 <lock_init+0xc>)
1000730a:	469c      	mov	ip, r3
1000730c:	4461      	add	r1, ip
1000730e:	0089      	lsls	r1, r1, #2
10007310:	6001      	str	r1, [r0, #0]
10007312:	4770      	bx	lr
10007314:	34000040 	.word	0x34000040

10007318 <timer_pool_entry_comparator>:
10007318:	6883      	ldr	r3, [r0, #8]
1000731a:	480b      	ldr	r0, [pc, #44]	; (10007348 <timer_pool_entry_comparator+0x30>)
1000731c:	b510      	push	{r4, lr}
1000731e:	4684      	mov	ip, r0
10007320:	4461      	add	r1, ip
10007322:	4462      	add	r2, ip
10007324:	0109      	lsls	r1, r1, #4
10007326:	0112      	lsls	r2, r2, #4
10007328:	189a      	adds	r2, r3, r2
1000732a:	1859      	adds	r1, r3, r1
1000732c:	6854      	ldr	r4, [r2, #4]
1000732e:	684b      	ldr	r3, [r1, #4]
10007330:	2001      	movs	r0, #1
10007332:	429c      	cmp	r4, r3
10007334:	d801      	bhi.n	1000733a <timer_pool_entry_comparator+0x22>
10007336:	d002      	beq.n	1000733e <timer_pool_entry_comparator+0x26>
10007338:	2000      	movs	r0, #0
1000733a:	b2c0      	uxtb	r0, r0
1000733c:	bd10      	pop	{r4, pc}
1000733e:	6812      	ldr	r2, [r2, #0]
10007340:	680b      	ldr	r3, [r1, #0]
10007342:	429a      	cmp	r2, r3
10007344:	d8f9      	bhi.n	1000733a <timer_pool_entry_comparator+0x22>
10007346:	e7f7      	b.n	10007338 <timer_pool_entry_comparator+0x20>
10007348:	0fffffff 	.word	0x0fffffff

1000734c <sleep_until_callback>:
1000734c:	4b0a      	ldr	r3, [pc, #40]	; (10007378 <sleep_until_callback+0x2c>)
1000734e:	6819      	ldr	r1, [r3, #0]
10007350:	f3ef 8010 	mrs	r0, PRIMASK
10007354:	b672      	cpsid	i
10007356:	680a      	ldr	r2, [r1, #0]
10007358:	2a00      	cmp	r2, #0
1000735a:	d0fc      	beq.n	10007356 <sleep_until_callback+0xa>
1000735c:	f3bf 8f5f 	dmb	sy
10007360:	681b      	ldr	r3, [r3, #0]
10007362:	f3bf 8f5f 	dmb	sy
10007366:	2200      	movs	r2, #0
10007368:	601a      	str	r2, [r3, #0]
1000736a:	f380 8810 	msr	PRIMASK, r0
1000736e:	bf40      	sev
10007370:	2000      	movs	r0, #0
10007372:	2100      	movs	r1, #0
10007374:	4770      	bx	lr
10007376:	46c0      	nop			; (mov r8, r8)
10007378:	20001330 	.word	0x20001330

1000737c <add_alarm_under_lock.isra.0>:
1000737c:	b5f8      	push	{r3, r4, r5, r6, r7, lr}
1000737e:	4657      	mov	r7, sl
10007380:	464e      	mov	r6, r9
10007382:	4645      	mov	r5, r8
10007384:	46de      	mov	lr, fp
10007386:	b5e0      	push	{r5, r6, r7, lr}
10007388:	4699      	mov	r9, r3
1000738a:	ab0c      	add	r3, sp, #48	; 0x30
1000738c:	781c      	ldrb	r4, [r3, #0]
1000738e:	ab0d      	add	r3, sp, #52	; 0x34
10007390:	781b      	ldrb	r3, [r3, #0]
10007392:	0006      	movs	r6, r0
10007394:	4690      	mov	r8, r2
10007396:	469a      	mov	sl, r3
10007398:	6807      	ldr	r7, [r0, #0]
1000739a:	2c00      	cmp	r4, #0
1000739c:	d111      	bne.n	100073c2 <add_alarm_under_lock.isra.0+0x46>
1000739e:	7bbc      	ldrb	r4, [r7, #14]
100073a0:	2c00      	cmp	r4, #0
100073a2:	d042      	beq.n	1000742a <add_alarm_under_lock.isra.0+0xae>
100073a4:	0065      	lsls	r5, r4, #1
100073a6:	683b      	ldr	r3, [r7, #0]
100073a8:	192d      	adds	r5, r5, r4
100073aa:	3d03      	subs	r5, #3
100073ac:	1959      	adds	r1, r3, r5
100073ae:	784b      	ldrb	r3, [r1, #1]
100073b0:	73bb      	strb	r3, [r7, #14]
100073b2:	2b00      	cmp	r3, #0
100073b4:	d100      	bne.n	100073b8 <add_alarm_under_lock.isra.0+0x3c>
100073b6:	73fb      	strb	r3, [r7, #15]
100073b8:	2300      	movs	r3, #0
100073ba:	708b      	strb	r3, [r1, #2]
100073bc:	704b      	strb	r3, [r1, #1]
100073be:	700b      	strb	r3, [r1, #0]
100073c0:	e004      	b.n	100073cc <add_alarm_under_lock.isra.0+0x50>
100073c2:	0065      	lsls	r5, r4, #1
100073c4:	683b      	ldr	r3, [r7, #0]
100073c6:	192d      	adds	r5, r5, r4
100073c8:	3d03      	subs	r5, #3
100073ca:	1959      	adds	r1, r3, r5
100073cc:	68b2      	ldr	r2, [r6, #8]
100073ce:	4b2a      	ldr	r3, [pc, #168]	; (10007478 <add_alarm_under_lock.isra.0+0xfc>)
100073d0:	4694      	mov	ip, r2
100073d2:	4642      	mov	r2, r8
100073d4:	18e3      	adds	r3, r4, r3
100073d6:	011b      	lsls	r3, r3, #4
100073d8:	4463      	add	r3, ip
100073da:	601a      	str	r2, [r3, #0]
100073dc:	464a      	mov	r2, r9
100073de:	605a      	str	r2, [r3, #4]
100073e0:	9a0a      	ldr	r2, [sp, #40]	; 0x28
100073e2:	609a      	str	r2, [r3, #8]
100073e4:	9a0b      	ldr	r2, [sp, #44]	; 0x2c
100073e6:	60da      	str	r2, [r3, #12]
100073e8:	2300      	movs	r3, #0
100073ea:	708b      	strb	r3, [r1, #2]
100073ec:	704b      	strb	r3, [r1, #1]
100073ee:	700b      	strb	r3, [r1, #0]
100073f0:	7b7b      	ldrb	r3, [r7, #13]
100073f2:	469b      	mov	fp, r3
100073f4:	2b00      	cmp	r3, #0
100073f6:	d02b      	beq.n	10007450 <add_alarm_under_lock.isra.0+0xd4>
100073f8:	0022      	movs	r2, r4
100073fa:	4659      	mov	r1, fp
100073fc:	68b8      	ldr	r0, [r7, #8]
100073fe:	687b      	ldr	r3, [r7, #4]
10007400:	4798      	blx	r3
10007402:	683a      	ldr	r2, [r7, #0]
10007404:	2800      	cmp	r0, #0
10007406:	d016      	beq.n	10007436 <add_alarm_under_lock.isra.0+0xba>
10007408:	465b      	mov	r3, fp
1000740a:	4658      	mov	r0, fp
1000740c:	005b      	lsls	r3, r3, #1
1000740e:	445b      	add	r3, fp
10007410:	1955      	adds	r5, r2, r5
10007412:	3b03      	subs	r3, #3
10007414:	70a8      	strb	r0, [r5, #2]
10007416:	18d1      	adds	r1, r2, r3
10007418:	5cd3      	ldrb	r3, [r2, r3]
1000741a:	2b00      	cmp	r3, #0
1000741c:	d000      	beq.n	10007420 <add_alarm_under_lock.isra.0+0xa4>
1000741e:	706b      	strb	r3, [r5, #1]
10007420:	465b      	mov	r3, fp
10007422:	700c      	strb	r4, [r1, #0]
10007424:	737b      	strb	r3, [r7, #13]
10007426:	45a3      	cmp	fp, r4
10007428:	d013      	beq.n	10007452 <add_alarm_under_lock.isra.0+0xd6>
1000742a:	bcf0      	pop	{r4, r5, r6, r7}
1000742c:	46bb      	mov	fp, r7
1000742e:	46b2      	mov	sl, r6
10007430:	46a9      	mov	r9, r5
10007432:	46a0      	mov	r8, r4
10007434:	bdf8      	pop	{r3, r4, r5, r6, r7, pc}
10007436:	465b      	mov	r3, fp
10007438:	005b      	lsls	r3, r3, #1
1000743a:	445b      	add	r3, fp
1000743c:	3b03      	subs	r3, #3
1000743e:	18d3      	adds	r3, r2, r3
10007440:	709c      	strb	r4, [r3, #2]
10007442:	1951      	adds	r1, r2, r5
10007444:	5d52      	ldrb	r2, [r2, r5]
10007446:	2a00      	cmp	r2, #0
10007448:	d000      	beq.n	1000744c <add_alarm_under_lock.isra.0+0xd0>
1000744a:	705a      	strb	r2, [r3, #1]
1000744c:	465b      	mov	r3, fp
1000744e:	700b      	strb	r3, [r1, #0]
10007450:	737c      	strb	r4, [r7, #13]
10007452:	4642      	mov	r2, r8
10007454:	464b      	mov	r3, r9
10007456:	7d30      	ldrb	r0, [r6, #20]
10007458:	f000 faee 	bl	10007a38 <hardware_alarm_set_target>
1000745c:	1e05      	subs	r5, r0, #0
1000745e:	d006      	beq.n	1000746e <add_alarm_under_lock.isra.0+0xf2>
10007460:	4653      	mov	r3, sl
10007462:	2b00      	cmp	r3, #0
10007464:	d103      	bne.n	1000746e <add_alarm_under_lock.isra.0+0xf2>
10007466:	0021      	movs	r1, r4
10007468:	6830      	ldr	r0, [r6, #0]
1000746a:	f000 fd07 	bl	10007e7c <ph_remove_and_free_node>
1000746e:	9b0e      	ldr	r3, [sp, #56]	; 0x38
10007470:	2b00      	cmp	r3, #0
10007472:	d0da      	beq.n	1000742a <add_alarm_under_lock.isra.0+0xae>
10007474:	701d      	strb	r5, [r3, #0]
10007476:	e7d8      	b.n	1000742a <add_alarm_under_lock.isra.0+0xae>
10007478:	0fffffff 	.word	0x0fffffff

1000747c <alarm_pool_alarm_callback>:
1000747c:	b5f0      	push	{r4, r5, r6, r7, lr}
1000747e:	46de      	mov	lr, fp
10007480:	464e      	mov	r6, r9
10007482:	4657      	mov	r7, sl
10007484:	4645      	mov	r5, r8
10007486:	2300      	movs	r3, #0
10007488:	b5e0      	push	{r5, r6, r7, lr}
1000748a:	b08d      	sub	sp, #52	; 0x34
1000748c:	930a      	str	r3, [sp, #40]	; 0x28
1000748e:	4b6b      	ldr	r3, [pc, #428]	; (1000763c <alarm_pool_alarm_callback+0x1c0>)
10007490:	0082      	lsls	r2, r0, #2
10007492:	58d3      	ldr	r3, [r2, r3]
10007494:	900b      	str	r0, [sp, #44]	; 0x2c
10007496:	4699      	mov	r9, r3
10007498:	2300      	movs	r3, #0
1000749a:	469b      	mov	fp, r3
1000749c:	464b      	mov	r3, r9
1000749e:	9307      	str	r3, [sp, #28]
100074a0:	f000 fa6a 	bl	10007978 <time_us_64>
100074a4:	9c07      	ldr	r4, [sp, #28]
100074a6:	0006      	movs	r6, r0
100074a8:	000f      	movs	r7, r1
100074aa:	6862      	ldr	r2, [r4, #4]
100074ac:	f3ef 8510 	mrs	r5, PRIMASK
100074b0:	b672      	cpsid	i
100074b2:	6813      	ldr	r3, [r2, #0]
100074b4:	2b00      	cmp	r3, #0
100074b6:	d0fc      	beq.n	100074b2 <alarm_pool_alarm_callback+0x36>
100074b8:	0022      	movs	r2, r4
100074ba:	9407      	str	r4, [sp, #28]
100074bc:	f3bf 8f5f 	dmb	sy
100074c0:	6824      	ldr	r4, [r4, #0]
100074c2:	7b63      	ldrb	r3, [r4, #13]
100074c4:	4699      	mov	r9, r3
100074c6:	2b00      	cmp	r3, #0
100074c8:	d067      	beq.n	1000759a <alarm_pool_alarm_callback+0x11e>
100074ca:	6892      	ldr	r2, [r2, #8]
100074cc:	4b5c      	ldr	r3, [pc, #368]	; (10007640 <alarm_pool_alarm_callback+0x1c4>)
100074ce:	4690      	mov	r8, r2
100074d0:	444b      	add	r3, r9
100074d2:	011b      	lsls	r3, r3, #4
100074d4:	4498      	add	r8, r3
100074d6:	4643      	mov	r3, r8
100074d8:	681a      	ldr	r2, [r3, #0]
100074da:	685b      	ldr	r3, [r3, #4]
100074dc:	0010      	movs	r0, r2
100074de:	0019      	movs	r1, r3
100074e0:	1b80      	subs	r0, r0, r6
100074e2:	41b9      	sbcs	r1, r7
100074e4:	2900      	cmp	r1, #0
100074e6:	dd5f      	ble.n	100075a8 <alarm_pool_alarm_callback+0x12c>
100074e8:	980b      	ldr	r0, [sp, #44]	; 0x2c
100074ea:	f000 faa5 	bl	10007a38 <hardware_alarm_set_target>
100074ee:	2300      	movs	r3, #0
100074f0:	2600      	movs	r6, #0
100074f2:	4698      	mov	r8, r3
100074f4:	2700      	movs	r7, #0
100074f6:	469a      	mov	sl, r3
100074f8:	9c07      	ldr	r4, [sp, #28]
100074fa:	6863      	ldr	r3, [r4, #4]
100074fc:	f3bf 8f5f 	dmb	sy
10007500:	465a      	mov	r2, fp
10007502:	601a      	str	r2, [r3, #0]
10007504:	f385 8810 	msr	PRIMASK, r5
10007508:	4653      	mov	r3, sl
1000750a:	2b00      	cmp	r3, #0
1000750c:	d108      	bne.n	10007520 <alarm_pool_alarm_callback+0xa4>
1000750e:	2800      	cmp	r0, #0
10007510:	d1c6      	bne.n	100074a0 <alarm_pool_alarm_callback+0x24>
10007512:	b00d      	add	sp, #52	; 0x34
10007514:	bcf0      	pop	{r4, r5, r6, r7}
10007516:	46bb      	mov	fp, r7
10007518:	46b2      	mov	sl, r6
1000751a:	46a9      	mov	r9, r5
1000751c:	46a0      	mov	r8, r4
1000751e:	bdf0      	pop	{r4, r5, r6, r7, pc}
10007520:	9b0a      	ldr	r3, [sp, #40]	; 0x28
10007522:	4641      	mov	r1, r8
10007524:	0218      	lsls	r0, r3, #8
10007526:	464b      	mov	r3, r9
10007528:	4318      	orrs	r0, r3
1000752a:	47d0      	blx	sl
1000752c:	9008      	str	r0, [sp, #32]
1000752e:	9109      	str	r1, [sp, #36]	; 0x24
10007530:	6862      	ldr	r2, [r4, #4]
10007532:	f3ef 8510 	mrs	r5, PRIMASK
10007536:	b672      	cpsid	i
10007538:	6813      	ldr	r3, [r2, #0]
1000753a:	2b00      	cmp	r3, #0
1000753c:	d0fc      	beq.n	10007538 <alarm_pool_alarm_callback+0xbc>
1000753e:	9407      	str	r4, [sp, #28]
10007540:	f3bf 8f5f 	dmb	sy
10007544:	9908      	ldr	r1, [sp, #32]
10007546:	9a09      	ldr	r2, [sp, #36]	; 0x24
10007548:	2a00      	cmp	r2, #0
1000754a:	db48      	blt.n	100075de <alarm_pool_alarm_callback+0x162>
1000754c:	4311      	orrs	r1, r2
1000754e:	d003      	beq.n	10007558 <alarm_pool_alarm_callback+0xdc>
10007550:	9b07      	ldr	r3, [sp, #28]
10007552:	691b      	ldr	r3, [r3, #16]
10007554:	2b00      	cmp	r3, #0
10007556:	d15d      	bne.n	10007614 <alarm_pool_alarm_callback+0x198>
10007558:	9b07      	ldr	r3, [sp, #28]
1000755a:	681b      	ldr	r3, [r3, #0]
1000755c:	7bd9      	ldrb	r1, [r3, #15]
1000755e:	2900      	cmp	r1, #0
10007560:	d007      	beq.n	10007572 <alarm_pool_alarm_callback+0xf6>
10007562:	004a      	lsls	r2, r1, #1
10007564:	1852      	adds	r2, r2, r1
10007566:	6819      	ldr	r1, [r3, #0]
10007568:	468c      	mov	ip, r1
1000756a:	4649      	mov	r1, r9
1000756c:	4462      	add	r2, ip
1000756e:	3a03      	subs	r2, #3
10007570:	7051      	strb	r1, [r2, #1]
10007572:	464a      	mov	r2, r9
10007574:	73da      	strb	r2, [r3, #15]
10007576:	464b      	mov	r3, r9
10007578:	9a07      	ldr	r2, [sp, #28]
1000757a:	3b01      	subs	r3, #1
1000757c:	68d1      	ldr	r1, [r2, #12]
1000757e:	5cca      	ldrb	r2, [r1, r3]
10007580:	3201      	adds	r2, #1
10007582:	54ca      	strb	r2, [r1, r3]
10007584:	465b      	mov	r3, fp
10007586:	9a07      	ldr	r2, [sp, #28]
10007588:	6113      	str	r3, [r2, #16]
1000758a:	6853      	ldr	r3, [r2, #4]
1000758c:	f3bf 8f5f 	dmb	sy
10007590:	465a      	mov	r2, fp
10007592:	601a      	str	r2, [r3, #0]
10007594:	f385 8810 	msr	PRIMASK, r5
10007598:	e782      	b.n	100074a0 <alarm_pool_alarm_callback+0x24>
1000759a:	2300      	movs	r3, #0
1000759c:	2600      	movs	r6, #0
1000759e:	4698      	mov	r8, r3
100075a0:	2700      	movs	r7, #0
100075a2:	469a      	mov	sl, r3
100075a4:	2000      	movs	r0, #0
100075a6:	e7a7      	b.n	100074f8 <alarm_pool_alarm_callback+0x7c>
100075a8:	2900      	cmp	r1, #0
100075aa:	d101      	bne.n	100075b0 <alarm_pool_alarm_callback+0x134>
100075ac:	2800      	cmp	r0, #0
100075ae:	d19b      	bne.n	100074e8 <alarm_pool_alarm_callback+0x6c>
100075b0:	2100      	movs	r1, #0
100075b2:	0020      	movs	r0, r4
100075b4:	f000 fbe4 	bl	10007d80 <ph_remove_head>
100075b8:	4643      	mov	r3, r8
100075ba:	681e      	ldr	r6, [r3, #0]
100075bc:	685f      	ldr	r7, [r3, #4]
100075be:	689b      	ldr	r3, [r3, #8]
100075c0:	9a07      	ldr	r2, [sp, #28]
100075c2:	469a      	mov	sl, r3
100075c4:	4643      	mov	r3, r8
100075c6:	68db      	ldr	r3, [r3, #12]
100075c8:	4698      	mov	r8, r3
100075ca:	68d3      	ldr	r3, [r2, #12]
100075cc:	444b      	add	r3, r9
100075ce:	3b01      	subs	r3, #1
100075d0:	781b      	ldrb	r3, [r3, #0]
100075d2:	930a      	str	r3, [sp, #40]	; 0x28
100075d4:	021b      	lsls	r3, r3, #8
100075d6:	4303      	orrs	r3, r0
100075d8:	6113      	str	r3, [r2, #16]
100075da:	2000      	movs	r0, #0
100075dc:	e78c      	b.n	100074f8 <alarm_pool_alarm_callback+0x7c>
100075de:	6923      	ldr	r3, [r4, #16]
100075e0:	2b00      	cmp	r3, #0
100075e2:	d0b9      	beq.n	10007558 <alarm_pool_alarm_callback+0xdc>
100075e4:	0033      	movs	r3, r6
100075e6:	003c      	movs	r4, r7
100075e8:	1a5b      	subs	r3, r3, r1
100075ea:	4194      	sbcs	r4, r2
100075ec:	001a      	movs	r2, r3
100075ee:	0023      	movs	r3, r4
100075f0:	42a7      	cmp	r7, r4
100075f2:	d819      	bhi.n	10007628 <alarm_pool_alarm_callback+0x1ac>
100075f4:	429f      	cmp	r7, r3
100075f6:	d01b      	beq.n	10007630 <alarm_pool_alarm_callback+0x1b4>
100075f8:	4659      	mov	r1, fp
100075fa:	9104      	str	r1, [sp, #16]
100075fc:	2101      	movs	r1, #1
100075fe:	9103      	str	r1, [sp, #12]
10007600:	4649      	mov	r1, r9
10007602:	9102      	str	r1, [sp, #8]
10007604:	4641      	mov	r1, r8
10007606:	9101      	str	r1, [sp, #4]
10007608:	4651      	mov	r1, sl
1000760a:	9807      	ldr	r0, [sp, #28]
1000760c:	9100      	str	r1, [sp, #0]
1000760e:	f7ff feb5 	bl	1000737c <add_alarm_under_lock.isra.0>
10007612:	e7b7      	b.n	10007584 <alarm_pool_alarm_callback+0x108>
10007614:	f000 f9b0 	bl	10007978 <time_us_64>
10007618:	9a08      	ldr	r2, [sp, #32]
1000761a:	9b09      	ldr	r3, [sp, #36]	; 0x24
1000761c:	0006      	movs	r6, r0
1000761e:	000f      	movs	r7, r1
10007620:	1992      	adds	r2, r2, r6
10007622:	417b      	adcs	r3, r7
10007624:	4299      	cmp	r1, r3
10007626:	d9e5      	bls.n	100075f4 <alarm_pool_alarm_callback+0x178>
10007628:	2201      	movs	r2, #1
1000762a:	4252      	negs	r2, r2
1000762c:	17d3      	asrs	r3, r2, #31
1000762e:	e7e3      	b.n	100075f8 <alarm_pool_alarm_callback+0x17c>
10007630:	4296      	cmp	r6, r2
10007632:	d9e1      	bls.n	100075f8 <alarm_pool_alarm_callback+0x17c>
10007634:	2201      	movs	r2, #1
10007636:	4252      	negs	r2, r2
10007638:	17d3      	asrs	r3, r2, #31
1000763a:	e7dd      	b.n	100075f8 <alarm_pool_alarm_callback+0x17c>
1000763c:	20001314 	.word	0x20001314
10007640:	0fffffff 	.word	0x0fffffff

10007644 <alarm_pool_add_alarm_at.constprop.0>:
10007644:	b5f8      	push	{r3, r4, r5, r6, r7, lr}
10007646:	4657      	mov	r7, sl
10007648:	464e      	mov	r6, r9
1000764a:	4645      	mov	r5, r8
1000764c:	46de      	mov	lr, fp
1000764e:	b5e0      	push	{r5, r6, r7, lr}
10007650:	4d40      	ldr	r5, [pc, #256]	; (10007754 <alarm_pool_add_alarm_at.constprop.0+0x110>)
10007652:	4681      	mov	r9, r0
10007654:	468a      	mov	sl, r1
10007656:	686a      	ldr	r2, [r5, #4]
10007658:	f3ef 8810 	mrs	r8, PRIMASK
1000765c:	b672      	cpsid	i
1000765e:	6813      	ldr	r3, [r2, #0]
10007660:	2b00      	cmp	r3, #0
10007662:	d0fc      	beq.n	1000765e <alarm_pool_add_alarm_at.constprop.0+0x1a>
10007664:	f3bf 8f5f 	dmb	sy
10007668:	682e      	ldr	r6, [r5, #0]
1000766a:	7bb4      	ldrb	r4, [r6, #14]
1000766c:	2c00      	cmp	r4, #0
1000766e:	d039      	beq.n	100076e4 <alarm_pool_add_alarm_at.constprop.0+0xa0>
10007670:	0067      	lsls	r7, r4, #1
10007672:	6833      	ldr	r3, [r6, #0]
10007674:	193f      	adds	r7, r7, r4
10007676:	3f03      	subs	r7, #3
10007678:	19db      	adds	r3, r3, r7
1000767a:	785a      	ldrb	r2, [r3, #1]
1000767c:	73b2      	strb	r2, [r6, #14]
1000767e:	2a00      	cmp	r2, #0
10007680:	d100      	bne.n	10007684 <alarm_pool_add_alarm_at.constprop.0+0x40>
10007682:	73f2      	strb	r2, [r6, #15]
10007684:	68a9      	ldr	r1, [r5, #8]
10007686:	4a34      	ldr	r2, [pc, #208]	; (10007758 <alarm_pool_add_alarm_at.constprop.0+0x114>)
10007688:	468c      	mov	ip, r1
1000768a:	4649      	mov	r1, r9
1000768c:	18a2      	adds	r2, r4, r2
1000768e:	0112      	lsls	r2, r2, #4
10007690:	4462      	add	r2, ip
10007692:	6011      	str	r1, [r2, #0]
10007694:	4651      	mov	r1, sl
10007696:	6051      	str	r1, [r2, #4]
10007698:	4930      	ldr	r1, [pc, #192]	; (1000775c <alarm_pool_add_alarm_at.constprop.0+0x118>)
1000769a:	6091      	str	r1, [r2, #8]
1000769c:	2100      	movs	r1, #0
1000769e:	60d1      	str	r1, [r2, #12]
100076a0:	7099      	strb	r1, [r3, #2]
100076a2:	7059      	strb	r1, [r3, #1]
100076a4:	7019      	strb	r1, [r3, #0]
100076a6:	7b73      	ldrb	r3, [r6, #13]
100076a8:	469b      	mov	fp, r3
100076aa:	2b00      	cmp	r3, #0
100076ac:	d035      	beq.n	1000771a <alarm_pool_add_alarm_at.constprop.0+0xd6>
100076ae:	0022      	movs	r2, r4
100076b0:	0019      	movs	r1, r3
100076b2:	68b0      	ldr	r0, [r6, #8]
100076b4:	6873      	ldr	r3, [r6, #4]
100076b6:	4798      	blx	r3
100076b8:	6832      	ldr	r2, [r6, #0]
100076ba:	2800      	cmp	r0, #0
100076bc:	d020      	beq.n	10007700 <alarm_pool_add_alarm_at.constprop.0+0xbc>
100076be:	465b      	mov	r3, fp
100076c0:	4658      	mov	r0, fp
100076c2:	005b      	lsls	r3, r3, #1
100076c4:	445b      	add	r3, fp
100076c6:	19d7      	adds	r7, r2, r7
100076c8:	3b03      	subs	r3, #3
100076ca:	70b8      	strb	r0, [r7, #2]
100076cc:	18d1      	adds	r1, r2, r3
100076ce:	5cd3      	ldrb	r3, [r2, r3]
100076d0:	2b00      	cmp	r3, #0
100076d2:	d000      	beq.n	100076d6 <alarm_pool_add_alarm_at.constprop.0+0x92>
100076d4:	707b      	strb	r3, [r7, #1]
100076d6:	465b      	mov	r3, fp
100076d8:	700c      	strb	r4, [r1, #0]
100076da:	7373      	strb	r3, [r6, #13]
100076dc:	455c      	cmp	r4, fp
100076de:	d01d      	beq.n	1000771c <alarm_pool_add_alarm_at.constprop.0+0xd8>
100076e0:	2600      	movs	r6, #0
100076e2:	e026      	b.n	10007732 <alarm_pool_add_alarm_at.constprop.0+0xee>
100076e4:	686b      	ldr	r3, [r5, #4]
100076e6:	f3bf 8f5f 	dmb	sy
100076ea:	601c      	str	r4, [r3, #0]
100076ec:	f388 8810 	msr	PRIMASK, r8
100076f0:	2001      	movs	r0, #1
100076f2:	4240      	negs	r0, r0
100076f4:	bcf0      	pop	{r4, r5, r6, r7}
100076f6:	46bb      	mov	fp, r7
100076f8:	46b2      	mov	sl, r6
100076fa:	46a9      	mov	r9, r5
100076fc:	46a0      	mov	r8, r4
100076fe:	bdf8      	pop	{r3, r4, r5, r6, r7, pc}
10007700:	465b      	mov	r3, fp
10007702:	005b      	lsls	r3, r3, #1
10007704:	445b      	add	r3, fp
10007706:	3b03      	subs	r3, #3
10007708:	18d3      	adds	r3, r2, r3
1000770a:	709c      	strb	r4, [r3, #2]
1000770c:	19d1      	adds	r1, r2, r7
1000770e:	5dd2      	ldrb	r2, [r2, r7]
10007710:	2a00      	cmp	r2, #0
10007712:	d000      	beq.n	10007716 <alarm_pool_add_alarm_at.constprop.0+0xd2>
10007714:	705a      	strb	r2, [r3, #1]
10007716:	465b      	mov	r3, fp
10007718:	700b      	strb	r3, [r1, #0]
1000771a:	7374      	strb	r4, [r6, #13]
1000771c:	464a      	mov	r2, r9
1000771e:	4653      	mov	r3, sl
10007720:	7d28      	ldrb	r0, [r5, #20]
10007722:	f000 f989 	bl	10007a38 <hardware_alarm_set_target>
10007726:	1e06      	subs	r6, r0, #0
10007728:	d0da      	beq.n	100076e0 <alarm_pool_add_alarm_at.constprop.0+0x9c>
1000772a:	0021      	movs	r1, r4
1000772c:	6828      	ldr	r0, [r5, #0]
1000772e:	f000 fba5 	bl	10007e7c <ph_remove_and_free_node>
10007732:	68eb      	ldr	r3, [r5, #12]
10007734:	191b      	adds	r3, r3, r4
10007736:	3b01      	subs	r3, #1
10007738:	7819      	ldrb	r1, [r3, #0]
1000773a:	686b      	ldr	r3, [r5, #4]
1000773c:	f3bf 8f5f 	dmb	sy
10007740:	2200      	movs	r2, #0
10007742:	601a      	str	r2, [r3, #0]
10007744:	f388 8810 	msr	PRIMASK, r8
10007748:	2000      	movs	r0, #0
1000774a:	2e00      	cmp	r6, #0
1000774c:	d1d2      	bne.n	100076f4 <alarm_pool_add_alarm_at.constprop.0+0xb0>
1000774e:	0208      	lsls	r0, r1, #8
10007750:	4320      	orrs	r0, r4
10007752:	e7cf      	b.n	100076f4 <alarm_pool_add_alarm_at.constprop.0+0xb0>
10007754:	2000056c 	.word	0x2000056c
10007758:	0fffffff 	.word	0x0fffffff
1000775c:	1000734d 	.word	0x1000734d

10007760 <alarm_pool_init_default>:
10007760:	b510      	push	{r4, lr}
10007762:	4c12      	ldr	r4, [pc, #72]	; (100077ac <alarm_pool_init_default+0x4c>)
10007764:	6863      	ldr	r3, [r4, #4]
10007766:	2b00      	cmp	r3, #0
10007768:	d004      	beq.n	10007774 <alarm_pool_init_default+0x14>
1000776a:	210a      	movs	r1, #10
1000776c:	4810      	ldr	r0, [pc, #64]	; (100077b0 <alarm_pool_init_default+0x50>)
1000776e:	f7ff fdcb 	bl	10007308 <lock_init>
10007772:	bd10      	pop	{r4, pc}
10007774:	0023      	movs	r3, r4
10007776:	4a0f      	ldr	r2, [pc, #60]	; (100077b4 <alarm_pool_init_default+0x54>)
10007778:	2110      	movs	r1, #16
1000777a:	6820      	ldr	r0, [r4, #0]
1000777c:	f000 fa1e 	bl	10007bbc <ph_post_alloc_init>
10007780:	2003      	movs	r0, #3
10007782:	f000 f8ed 	bl	10007960 <hardware_alarm_claim>
10007786:	2003      	movs	r0, #3
10007788:	f000 f9c6 	bl	10007b18 <hardware_alarm_cancel>
1000778c:	2003      	movs	r0, #3
1000778e:	490a      	ldr	r1, [pc, #40]	; (100077b8 <alarm_pool_init_default+0x58>)
10007790:	f000 f90c 	bl	100079ac <hardware_alarm_set_callback>
10007794:	f7ff fc22 	bl	10006fdc <next_striped_spin_lock_num>
10007798:	4b08      	ldr	r3, [pc, #32]	; (100077bc <alarm_pool_init_default+0x5c>)
1000779a:	469c      	mov	ip, r3
1000779c:	2303      	movs	r3, #3
1000779e:	4460      	add	r0, ip
100077a0:	7523      	strb	r3, [r4, #20]
100077a2:	4b07      	ldr	r3, [pc, #28]	; (100077c0 <alarm_pool_init_default+0x60>)
100077a4:	0080      	lsls	r0, r0, #2
100077a6:	6060      	str	r0, [r4, #4]
100077a8:	60dc      	str	r4, [r3, #12]
100077aa:	e7de      	b.n	1000776a <alarm_pool_init_default+0xa>
100077ac:	2000056c 	.word	0x2000056c
100077b0:	20001330 	.word	0x20001330
100077b4:	10007319 	.word	0x10007319
100077b8:	1000747d 	.word	0x1000747d
100077bc:	34000040 	.word	0x34000040
100077c0:	20001314 	.word	0x20001314

100077c4 <sleep_until>:
100077c4:	b5f0      	push	{r4, r5, r6, r7, lr}
100077c6:	0004      	movs	r4, r0
100077c8:	000d      	movs	r5, r1
100077ca:	2606      	movs	r6, #6
100077cc:	4276      	negs	r6, r6
100077ce:	17f7      	asrs	r7, r6, #31
100077d0:	46c6      	mov	lr, r8
100077d2:	1936      	adds	r6, r6, r4
100077d4:	416f      	adcs	r7, r5
100077d6:	b500      	push	{lr}
100077d8:	428f      	cmp	r7, r1
100077da:	d813      	bhi.n	10007804 <sleep_until+0x40>
100077dc:	d010      	beq.n	10007800 <sleep_until+0x3c>
100077de:	f000 f8cb 	bl	10007978 <time_us_64>
100077e2:	0032      	movs	r2, r6
100077e4:	003b      	movs	r3, r7
100077e6:	1a12      	subs	r2, r2, r0
100077e8:	418b      	sbcs	r3, r1
100077ea:	2b00      	cmp	r3, #0
100077ec:	dc14      	bgt.n	10007818 <sleep_until+0x54>
100077ee:	2b00      	cmp	r3, #0
100077f0:	d037      	beq.n	10007862 <sleep_until+0x9e>
100077f2:	0029      	movs	r1, r5
100077f4:	0020      	movs	r0, r4
100077f6:	f000 f8c9 	bl	1000798c <busy_wait_until>
100077fa:	bc80      	pop	{r7}
100077fc:	46b8      	mov	r8, r7
100077fe:	bdf0      	pop	{r4, r5, r6, r7, pc}
10007800:	4286      	cmp	r6, r0
10007802:	d9ec      	bls.n	100077de <sleep_until+0x1a>
10007804:	2600      	movs	r6, #0
10007806:	2700      	movs	r7, #0
10007808:	f000 f8b6 	bl	10007978 <time_us_64>
1000780c:	0032      	movs	r2, r6
1000780e:	003b      	movs	r3, r7
10007810:	1a12      	subs	r2, r2, r0
10007812:	418b      	sbcs	r3, r1
10007814:	2b00      	cmp	r3, #0
10007816:	ddea      	ble.n	100077ee <sleep_until+0x2a>
10007818:	0030      	movs	r0, r6
1000781a:	0039      	movs	r1, r7
1000781c:	f7ff ff12 	bl	10007644 <alarm_pool_add_alarm_at.constprop.0>
10007820:	2800      	cmp	r0, #0
10007822:	dbe6      	blt.n	100077f2 <sleep_until+0x2e>
10007824:	2300      	movs	r3, #0
10007826:	4698      	mov	r8, r3
10007828:	46bc      	mov	ip, r7
1000782a:	4a0f      	ldr	r2, [pc, #60]	; (10007868 <sleep_until+0xa4>)
1000782c:	4f0f      	ldr	r7, [pc, #60]	; (1000786c <sleep_until+0xa8>)
1000782e:	6a7b      	ldr	r3, [r7, #36]	; 0x24
10007830:	459c      	cmp	ip, r3
10007832:	d804      	bhi.n	1000783e <sleep_until+0x7a>
10007834:	6ab9      	ldr	r1, [r7, #40]	; 0x28
10007836:	428e      	cmp	r6, r1
10007838:	d9db      	bls.n	100077f2 <sleep_until+0x2e>
1000783a:	459c      	cmp	ip, r3
1000783c:	d1d9      	bne.n	100077f2 <sleep_until+0x2e>
1000783e:	6811      	ldr	r1, [r2, #0]
10007840:	f3ef 8010 	mrs	r0, PRIMASK
10007844:	b672      	cpsid	i
10007846:	680b      	ldr	r3, [r1, #0]
10007848:	2b00      	cmp	r3, #0
1000784a:	d0fc      	beq.n	10007846 <sleep_until+0x82>
1000784c:	f3bf 8f5f 	dmb	sy
10007850:	6813      	ldr	r3, [r2, #0]
10007852:	f3bf 8f5f 	dmb	sy
10007856:	4641      	mov	r1, r8
10007858:	6019      	str	r1, [r3, #0]
1000785a:	f380 8810 	msr	PRIMASK, r0
1000785e:	bf20      	wfe
10007860:	e7e5      	b.n	1000782e <sleep_until+0x6a>
10007862:	2a00      	cmp	r2, #0
10007864:	d0c5      	beq.n	100077f2 <sleep_until+0x2e>
10007866:	e7d7      	b.n	10007818 <sleep_until+0x54>
10007868:	20001330 	.word	0x20001330
1000786c:	40054000 	.word	0x40054000

10007870 <sleep_ms>:
10007870:	b570      	push	{r4, r5, r6, lr}
10007872:	0006      	movs	r6, r0
10007874:	f000 f880 	bl	10007978 <time_us_64>
10007878:	22fa      	movs	r2, #250	; 0xfa
1000787a:	0004      	movs	r4, r0
1000787c:	000d      	movs	r5, r1
1000787e:	2300      	movs	r3, #0
10007880:	0030      	movs	r0, r6
10007882:	2100      	movs	r1, #0
10007884:	0092      	lsls	r2, r2, #2
10007886:	f000 fee5 	bl	10008654 <__wrap___aeabi_lmul>
1000788a:	1900      	adds	r0, r0, r4
1000788c:	4169      	adcs	r1, r5
1000788e:	428d      	cmp	r5, r1
10007890:	d805      	bhi.n	1000789e <sleep_ms+0x2e>
10007892:	d002      	beq.n	1000789a <sleep_ms+0x2a>
10007894:	f7ff ff96 	bl	100077c4 <sleep_until>
10007898:	bd70      	pop	{r4, r5, r6, pc}
1000789a:	4284      	cmp	r4, r0
1000789c:	d9fa      	bls.n	10007894 <sleep_ms+0x24>
1000789e:	2001      	movs	r0, #1
100078a0:	4240      	negs	r0, r0
100078a2:	17c1      	asrs	r1, r0, #31
100078a4:	e7f6      	b.n	10007894 <sleep_ms+0x24>
100078a6:	46c0      	nop			; (mov r8, r8)

100078a8 <hardware_alarm_irq_handler>:
100078a8:	b5f0      	push	{r4, r5, r6, r7, lr}
100078aa:	46d6      	mov	lr, sl
100078ac:	464f      	mov	r7, r9
100078ae:	4646      	mov	r6, r8
100078b0:	b5c0      	push	{r6, r7, lr}
100078b2:	f3ef 8305 	mrs	r3, IPSR
100078b6:	223f      	movs	r2, #63	; 0x3f
100078b8:	4013      	ands	r3, r2
100078ba:	0018      	movs	r0, r3
100078bc:	3810      	subs	r0, #16
100078be:	f3ef 8c10 	mrs	ip, PRIMASK
100078c2:	b672      	cpsid	i
100078c4:	4d20      	ldr	r5, [pc, #128]	; (10007948 <hardware_alarm_irq_handler+0xa0>)
100078c6:	682a      	ldr	r2, [r5, #0]
100078c8:	2a00      	cmp	r2, #0
100078ca:	d0fc      	beq.n	100078c6 <hardware_alarm_irq_handler+0x1e>
100078cc:	f3bf 8f5f 	dmb	sy
100078d0:	2201      	movs	r2, #1
100078d2:	0011      	movs	r1, r2
100078d4:	4081      	lsls	r1, r0
100078d6:	4c1d      	ldr	r4, [pc, #116]	; (1000794c <hardware_alarm_irq_handler+0xa4>)
100078d8:	4688      	mov	r8, r1
100078da:	6361      	str	r1, [r4, #52]	; 0x34
100078dc:	491c      	ldr	r1, [pc, #112]	; (10007950 <hardware_alarm_irq_handler+0xa8>)
100078de:	0017      	movs	r7, r2
100078e0:	780e      	ldrb	r6, [r1, #0]
100078e2:	468a      	mov	sl, r1
100078e4:	0031      	movs	r1, r6
100078e6:	40c1      	lsrs	r1, r0
100078e8:	400f      	ands	r7, r1
100078ea:	420a      	tst	r2, r1
100078ec:	d109      	bne.n	10007902 <hardware_alarm_irq_handler+0x5a>
100078ee:	f3bf 8f5f 	dmb	sy
100078f2:	602f      	str	r7, [r5, #0]
100078f4:	f38c 8810 	msr	PRIMASK, ip
100078f8:	bce0      	pop	{r5, r6, r7}
100078fa:	46ba      	mov	sl, r7
100078fc:	46b1      	mov	r9, r6
100078fe:	46a8      	mov	r8, r5
10007900:	bdf0      	pop	{r4, r5, r6, r7, pc}
10007902:	4914      	ldr	r1, [pc, #80]	; (10007954 <hardware_alarm_irq_handler+0xac>)
10007904:	0082      	lsls	r2, r0, #2
10007906:	6a64      	ldr	r4, [r4, #36]	; 0x24
10007908:	5851      	ldr	r1, [r2, r1]
1000790a:	428c      	cmp	r4, r1
1000790c:	d30f      	bcc.n	1000792e <hardware_alarm_irq_handler+0x86>
1000790e:	4b12      	ldr	r3, [pc, #72]	; (10007958 <hardware_alarm_irq_handler+0xb0>)
10007910:	58d2      	ldr	r2, [r2, r3]
10007912:	4643      	mov	r3, r8
10007914:	439e      	bics	r6, r3
10007916:	4653      	mov	r3, sl
10007918:	701e      	strb	r6, [r3, #0]
1000791a:	f3bf 8f5f 	dmb	sy
1000791e:	2300      	movs	r3, #0
10007920:	602b      	str	r3, [r5, #0]
10007922:	f38c 8810 	msr	PRIMASK, ip
10007926:	2a00      	cmp	r2, #0
10007928:	d0e6      	beq.n	100078f8 <hardware_alarm_irq_handler+0x50>
1000792a:	4790      	blx	r2
1000792c:	e7e4      	b.n	100078f8 <hardware_alarm_irq_handler+0x50>
1000792e:	4a0b      	ldr	r2, [pc, #44]	; (1000795c <hardware_alarm_irq_handler+0xb4>)
10007930:	009b      	lsls	r3, r3, #2
10007932:	4690      	mov	r8, r2
10007934:	4443      	add	r3, r8
10007936:	681a      	ldr	r2, [r3, #0]
10007938:	601a      	str	r2, [r3, #0]
1000793a:	f3bf 8f5f 	dmb	sy
1000793e:	2300      	movs	r3, #0
10007940:	602b      	str	r3, [r5, #0]
10007942:	f38c 8810 	msr	PRIMASK, ip
10007946:	e7d7      	b.n	100078f8 <hardware_alarm_irq_handler+0x50>
10007948:	d0000128 	.word	0xd0000128
1000794c:	40054000 	.word	0x40054000
10007950:	20001347 	.word	0x20001347
10007954:	20001334 	.word	0x20001334
10007958:	2000118c 	.word	0x2000118c
1000795c:	40053fd0 	.word	0x40053fd0

10007960 <hardware_alarm_claim>:
10007960:	b510      	push	{r4, lr}
10007962:	0001      	movs	r1, r0
10007964:	4a02      	ldr	r2, [pc, #8]	; (10007970 <hardware_alarm_claim+0x10>)
10007966:	4803      	ldr	r0, [pc, #12]	; (10007974 <hardware_alarm_claim+0x14>)
10007968:	f7ff fb00 	bl	10006f6c <hw_claim_or_assert>
1000796c:	bd10      	pop	{r4, pc}
1000796e:	46c0      	nop			; (mov r8, r8)
10007970:	1000a3cc 	.word	0x1000a3cc
10007974:	20001345 	.word	0x20001345

10007978 <time_us_64>:
10007978:	4b03      	ldr	r3, [pc, #12]	; (10007988 <time_us_64+0x10>)
1000797a:	6a59      	ldr	r1, [r3, #36]	; 0x24
1000797c:	000a      	movs	r2, r1
1000797e:	6a98      	ldr	r0, [r3, #40]	; 0x28
10007980:	6a59      	ldr	r1, [r3, #36]	; 0x24
10007982:	428a      	cmp	r2, r1
10007984:	d1fa      	bne.n	1000797c <time_us_64+0x4>
10007986:	4770      	bx	lr
10007988:	40054000 	.word	0x40054000

1000798c <busy_wait_until>:
1000798c:	4a06      	ldr	r2, [pc, #24]	; (100079a8 <busy_wait_until+0x1c>)
1000798e:	6a53      	ldr	r3, [r2, #36]	; 0x24
10007990:	4299      	cmp	r1, r3
10007992:	d8fc      	bhi.n	1000798e <busy_wait_until+0x2>
10007994:	d107      	bne.n	100079a6 <busy_wait_until+0x1a>
10007996:	4b04      	ldr	r3, [pc, #16]	; (100079a8 <busy_wait_until+0x1c>)
10007998:	e002      	b.n	100079a0 <busy_wait_until+0x14>
1000799a:	6a5a      	ldr	r2, [r3, #36]	; 0x24
1000799c:	4291      	cmp	r1, r2
1000799e:	d102      	bne.n	100079a6 <busy_wait_until+0x1a>
100079a0:	6a9a      	ldr	r2, [r3, #40]	; 0x28
100079a2:	4282      	cmp	r2, r0
100079a4:	d3f9      	bcc.n	1000799a <busy_wait_until+0xe>
100079a6:	4770      	bx	lr
100079a8:	40054000 	.word	0x40054000

100079ac <hardware_alarm_set_callback>:
100079ac:	b570      	push	{r4, r5, r6, lr}
100079ae:	0004      	movs	r4, r0
100079b0:	000d      	movs	r5, r1
100079b2:	f3ef 8610 	mrs	r6, PRIMASK
100079b6:	b672      	cpsid	i
100079b8:	4a1a      	ldr	r2, [pc, #104]	; (10007a24 <hardware_alarm_set_callback+0x78>)
100079ba:	6813      	ldr	r3, [r2, #0]
100079bc:	2b00      	cmp	r3, #0
100079be:	d0fc      	beq.n	100079ba <hardware_alarm_set_callback+0xe>
100079c0:	f3bf 8f5f 	dmb	sy
100079c4:	2d00      	cmp	r5, #0
100079c6:	d01b      	beq.n	10007a00 <hardware_alarm_set_callback+0x54>
100079c8:	0020      	movs	r0, r4
100079ca:	f7ff fb25 	bl	10007018 <irq_get_vtable_handler>
100079ce:	4916      	ldr	r1, [pc, #88]	; (10007a28 <hardware_alarm_set_callback+0x7c>)
100079d0:	4281      	cmp	r1, r0
100079d2:	d00a      	beq.n	100079ea <hardware_alarm_set_callback+0x3e>
100079d4:	0020      	movs	r0, r4
100079d6:	f7ff fb27 	bl	10007028 <irq_set_exclusive_handler>
100079da:	2101      	movs	r1, #1
100079dc:	0020      	movs	r0, r4
100079de:	f7ff fb09 	bl	10006ff4 <irq_set_enabled>
100079e2:	2301      	movs	r3, #1
100079e4:	40a3      	lsls	r3, r4
100079e6:	4a11      	ldr	r2, [pc, #68]	; (10007a2c <hardware_alarm_set_callback+0x80>)
100079e8:	6013      	str	r3, [r2, #0]
100079ea:	4b11      	ldr	r3, [pc, #68]	; (10007a30 <hardware_alarm_set_callback+0x84>)
100079ec:	00a4      	lsls	r4, r4, #2
100079ee:	50e5      	str	r5, [r4, r3]
100079f0:	f3bf 8f5f 	dmb	sy
100079f4:	2200      	movs	r2, #0
100079f6:	4b0b      	ldr	r3, [pc, #44]	; (10007a24 <hardware_alarm_set_callback+0x78>)
100079f8:	601a      	str	r2, [r3, #0]
100079fa:	f386 8810 	msr	PRIMASK, r6
100079fe:	bd70      	pop	{r4, r5, r6, pc}
10007a00:	4b0b      	ldr	r3, [pc, #44]	; (10007a30 <hardware_alarm_set_callback+0x84>)
10007a02:	00a2      	lsls	r2, r4, #2
10007a04:	50d5      	str	r5, [r2, r3]
10007a06:	2201      	movs	r2, #1
10007a08:	40a2      	lsls	r2, r4
10007a0a:	490a      	ldr	r1, [pc, #40]	; (10007a34 <hardware_alarm_set_callback+0x88>)
10007a0c:	0020      	movs	r0, r4
10007a0e:	780b      	ldrb	r3, [r1, #0]
10007a10:	4393      	bics	r3, r2
10007a12:	700b      	strb	r3, [r1, #0]
10007a14:	4904      	ldr	r1, [pc, #16]	; (10007a28 <hardware_alarm_set_callback+0x7c>)
10007a16:	f7ff fb31 	bl	1000707c <irq_remove_handler>
10007a1a:	2100      	movs	r1, #0
10007a1c:	0020      	movs	r0, r4
10007a1e:	f7ff fae9 	bl	10006ff4 <irq_set_enabled>
10007a22:	e7e5      	b.n	100079f0 <hardware_alarm_set_callback+0x44>
10007a24:	d0000128 	.word	0xd0000128
10007a28:	100078a9 	.word	0x100078a9
10007a2c:	40056038 	.word	0x40056038
10007a30:	2000118c 	.word	0x2000118c
10007a34:	20001347 	.word	0x20001347

10007a38 <hardware_alarm_set_target>:
10007a38:	b5f0      	push	{r4, r5, r6, r7, lr}
10007a3a:	464f      	mov	r7, r9
10007a3c:	46d6      	mov	lr, sl
10007a3e:	4646      	mov	r6, r8
10007a40:	b5c0      	push	{r6, r7, lr}
10007a42:	0007      	movs	r7, r0
10007a44:	4c2f      	ldr	r4, [pc, #188]	; (10007b04 <hardware_alarm_set_target+0xcc>)
10007a46:	6a61      	ldr	r1, [r4, #36]	; 0x24
10007a48:	000d      	movs	r5, r1
10007a4a:	6aa6      	ldr	r6, [r4, #40]	; 0x28
10007a4c:	6a61      	ldr	r1, [r4, #36]	; 0x24
10007a4e:	42a9      	cmp	r1, r5
10007a50:	d1fa      	bne.n	10007a48 <hardware_alarm_set_target+0x10>
10007a52:	428b      	cmp	r3, r1
10007a54:	d808      	bhi.n	10007a68 <hardware_alarm_set_target+0x30>
10007a56:	d005      	beq.n	10007a64 <hardware_alarm_set_target+0x2c>
10007a58:	2001      	movs	r0, #1
10007a5a:	bce0      	pop	{r5, r6, r7}
10007a5c:	46ba      	mov	sl, r7
10007a5e:	46b1      	mov	r9, r6
10007a60:	46a8      	mov	r8, r5
10007a62:	bdf0      	pop	{r4, r5, r6, r7, pc}
10007a64:	42b2      	cmp	r2, r6
10007a66:	d9f7      	bls.n	10007a58 <hardware_alarm_set_target+0x20>
10007a68:	f3ef 8a10 	mrs	sl, PRIMASK
10007a6c:	b672      	cpsid	i
10007a6e:	4826      	ldr	r0, [pc, #152]	; (10007b08 <hardware_alarm_set_target+0xd0>)
10007a70:	6801      	ldr	r1, [r0, #0]
10007a72:	2900      	cmp	r1, #0
10007a74:	d0fc      	beq.n	10007a70 <hardware_alarm_set_target+0x38>
10007a76:	f3bf 8f5f 	dmb	sy
10007a7a:	2501      	movs	r5, #1
10007a7c:	40bd      	lsls	r5, r7
10007a7e:	4923      	ldr	r1, [pc, #140]	; (10007b0c <hardware_alarm_set_target+0xd4>)
10007a80:	4c20      	ldr	r4, [pc, #128]	; (10007b04 <hardware_alarm_set_target+0xcc>)
10007a82:	4688      	mov	r8, r1
10007a84:	7809      	ldrb	r1, [r1, #0]
10007a86:	4689      	mov	r9, r1
10007a88:	4329      	orrs	r1, r5
10007a8a:	b2c9      	uxtb	r1, r1
10007a8c:	468c      	mov	ip, r1
10007a8e:	4641      	mov	r1, r8
10007a90:	4660      	mov	r0, ip
10007a92:	7008      	strb	r0, [r1, #0]
10007a94:	1d39      	adds	r1, r7, #4
10007a96:	481e      	ldr	r0, [pc, #120]	; (10007b10 <hardware_alarm_set_target+0xd8>)
10007a98:	0089      	lsls	r1, r1, #2
10007a9a:	6365      	str	r5, [r4, #52]	; 0x34
10007a9c:	510a      	str	r2, [r1, r4]
10007a9e:	00b9      	lsls	r1, r7, #2
10007aa0:	500b      	str	r3, [r1, r0]
10007aa2:	6a21      	ldr	r1, [r4, #32]
10007aa4:	2000      	movs	r0, #0
10007aa6:	4229      	tst	r1, r5
10007aa8:	d019      	beq.n	10007ade <hardware_alarm_set_target+0xa6>
10007aaa:	6a61      	ldr	r1, [r4, #36]	; 0x24
10007aac:	0008      	movs	r0, r1
10007aae:	6aa6      	ldr	r6, [r4, #40]	; 0x28
10007ab0:	6a61      	ldr	r1, [r4, #36]	; 0x24
10007ab2:	4281      	cmp	r1, r0
10007ab4:	d1fa      	bne.n	10007aac <hardware_alarm_set_target+0x74>
10007ab6:	428b      	cmp	r3, r1
10007ab8:	d819      	bhi.n	10007aee <hardware_alarm_set_target+0xb6>
10007aba:	d101      	bne.n	10007ac0 <hardware_alarm_set_target+0x88>
10007abc:	42b2      	cmp	r2, r6
10007abe:	d816      	bhi.n	10007aee <hardware_alarm_set_target+0xb6>
10007ac0:	45cc      	cmp	ip, r9
10007ac2:	d01d      	beq.n	10007b00 <hardware_alarm_set_target+0xc8>
10007ac4:	4b0f      	ldr	r3, [pc, #60]	; (10007b04 <hardware_alarm_set_target+0xcc>)
10007ac6:	201f      	movs	r0, #31
10007ac8:	621d      	str	r5, [r3, #32]
10007aca:	635d      	str	r5, [r3, #52]	; 0x34
10007acc:	2301      	movs	r3, #1
10007ace:	4007      	ands	r7, r0
10007ad0:	40bb      	lsls	r3, r7
10007ad2:	4a10      	ldr	r2, [pc, #64]	; (10007b14 <hardware_alarm_set_target+0xdc>)
10007ad4:	381e      	subs	r0, #30
10007ad6:	6013      	str	r3, [r2, #0]
10007ad8:	4643      	mov	r3, r8
10007ada:	464a      	mov	r2, r9
10007adc:	701a      	strb	r2, [r3, #0]
10007ade:	f3bf 8f5f 	dmb	sy
10007ae2:	2200      	movs	r2, #0
10007ae4:	4b08      	ldr	r3, [pc, #32]	; (10007b08 <hardware_alarm_set_target+0xd0>)
10007ae6:	601a      	str	r2, [r3, #0]
10007ae8:	f38a 8810 	msr	PRIMASK, sl
10007aec:	e7b5      	b.n	10007a5a <hardware_alarm_set_target+0x22>
10007aee:	2000      	movs	r0, #0
10007af0:	f3bf 8f5f 	dmb	sy
10007af4:	2200      	movs	r2, #0
10007af6:	4b04      	ldr	r3, [pc, #16]	; (10007b08 <hardware_alarm_set_target+0xd0>)
10007af8:	601a      	str	r2, [r3, #0]
10007afa:	f38a 8810 	msr	PRIMASK, sl
10007afe:	e7ac      	b.n	10007a5a <hardware_alarm_set_target+0x22>
10007b00:	2001      	movs	r0, #1
10007b02:	e7ec      	b.n	10007ade <hardware_alarm_set_target+0xa6>
10007b04:	40054000 	.word	0x40054000
10007b08:	d0000128 	.word	0xd0000128
10007b0c:	20001347 	.word	0x20001347
10007b10:	20001334 	.word	0x20001334
10007b14:	e000e280 	.word	0xe000e280

10007b18 <hardware_alarm_cancel>:
10007b18:	f3ef 8c10 	mrs	ip, PRIMASK
10007b1c:	b672      	cpsid	i
10007b1e:	490a      	ldr	r1, [pc, #40]	; (10007b48 <hardware_alarm_cancel+0x30>)
10007b20:	680b      	ldr	r3, [r1, #0]
10007b22:	2b00      	cmp	r3, #0
10007b24:	d0fc      	beq.n	10007b20 <hardware_alarm_cancel+0x8>
10007b26:	f3bf 8f5f 	dmb	sy
10007b2a:	2301      	movs	r3, #1
10007b2c:	4083      	lsls	r3, r0
10007b2e:	4a07      	ldr	r2, [pc, #28]	; (10007b4c <hardware_alarm_cancel+0x34>)
10007b30:	4807      	ldr	r0, [pc, #28]	; (10007b50 <hardware_alarm_cancel+0x38>)
10007b32:	6213      	str	r3, [r2, #32]
10007b34:	7802      	ldrb	r2, [r0, #0]
10007b36:	439a      	bics	r2, r3
10007b38:	7002      	strb	r2, [r0, #0]
10007b3a:	f3bf 8f5f 	dmb	sy
10007b3e:	2300      	movs	r3, #0
10007b40:	600b      	str	r3, [r1, #0]
10007b42:	f38c 8810 	msr	PRIMASK, ip
10007b46:	4770      	bx	lr
10007b48:	d0000128 	.word	0xd0000128
10007b4c:	40054000 	.word	0x40054000
10007b50:	20001347 	.word	0x20001347

10007b54 <ph_merge_nodes>:
10007b54:	b570      	push	{r4, r5, r6, lr}
10007b56:	0005      	movs	r5, r0
10007b58:	0014      	movs	r4, r2
10007b5a:	0016      	movs	r6, r2
10007b5c:	2900      	cmp	r1, #0
10007b5e:	d015      	beq.n	10007b8c <ph_merge_nodes+0x38>
10007b60:	000c      	movs	r4, r1
10007b62:	2a00      	cmp	r2, #0
10007b64:	d012      	beq.n	10007b8c <ph_merge_nodes+0x38>
10007b66:	6880      	ldr	r0, [r0, #8]
10007b68:	686b      	ldr	r3, [r5, #4]
10007b6a:	4798      	blx	r3
10007b6c:	6829      	ldr	r1, [r5, #0]
10007b6e:	2800      	cmp	r0, #0
10007b70:	d00e      	beq.n	10007b90 <ph_merge_nodes+0x3c>
10007b72:	0073      	lsls	r3, r6, #1
10007b74:	199b      	adds	r3, r3, r6
10007b76:	0062      	lsls	r2, r4, #1
10007b78:	3b03      	subs	r3, #3
10007b7a:	1912      	adds	r2, r2, r4
10007b7c:	18cb      	adds	r3, r1, r3
10007b7e:	3a03      	subs	r2, #3
10007b80:	709c      	strb	r4, [r3, #2]
10007b82:	1888      	adds	r0, r1, r2
10007b84:	5c8a      	ldrb	r2, [r1, r2]
10007b86:	2a00      	cmp	r2, #0
10007b88:	d115      	bne.n	10007bb6 <ph_merge_nodes+0x62>
10007b8a:	7006      	strb	r6, [r0, #0]
10007b8c:	0020      	movs	r0, r4
10007b8e:	bd70      	pop	{r4, r5, r6, pc}
10007b90:	0063      	lsls	r3, r4, #1
10007b92:	191b      	adds	r3, r3, r4
10007b94:	0072      	lsls	r2, r6, #1
10007b96:	3b03      	subs	r3, #3
10007b98:	1992      	adds	r2, r2, r6
10007b9a:	18cb      	adds	r3, r1, r3
10007b9c:	3a03      	subs	r2, #3
10007b9e:	709e      	strb	r6, [r3, #2]
10007ba0:	1888      	adds	r0, r1, r2
10007ba2:	5c8a      	ldrb	r2, [r1, r2]
10007ba4:	2a00      	cmp	r2, #0
10007ba6:	d102      	bne.n	10007bae <ph_merge_nodes+0x5a>
10007ba8:	7004      	strb	r4, [r0, #0]
10007baa:	0034      	movs	r4, r6
10007bac:	e7ee      	b.n	10007b8c <ph_merge_nodes+0x38>
10007bae:	705a      	strb	r2, [r3, #1]
10007bb0:	7004      	strb	r4, [r0, #0]
10007bb2:	0034      	movs	r4, r6
10007bb4:	e7ea      	b.n	10007b8c <ph_merge_nodes+0x38>
10007bb6:	705a      	strb	r2, [r3, #1]
10007bb8:	7006      	strb	r6, [r0, #0]
10007bba:	e7e7      	b.n	10007b8c <ph_merge_nodes+0x38>

10007bbc <ph_post_alloc_init>:
10007bbc:	b530      	push	{r4, r5, lr}
10007bbe:	6083      	str	r3, [r0, #8]
10007bc0:	2300      	movs	r3, #0
10007bc2:	b2cc      	uxtb	r4, r1
10007bc4:	7343      	strb	r3, [r0, #13]
10007bc6:	3301      	adds	r3, #1
10007bc8:	7304      	strb	r4, [r0, #12]
10007bca:	6042      	str	r2, [r0, #4]
10007bcc:	7383      	strb	r3, [r0, #14]
10007bce:	73c4      	strb	r4, [r0, #15]
10007bd0:	000d      	movs	r5, r1
10007bd2:	6800      	ldr	r0, [r0, #0]
10007bd4:	2c01      	cmp	r4, #1
10007bd6:	d906      	bls.n	10007be6 <ph_post_alloc_init+0x2a>
10007bd8:	1c42      	adds	r2, r0, #1
10007bda:	3301      	adds	r3, #1
10007bdc:	b2db      	uxtb	r3, r3
10007bde:	7013      	strb	r3, [r2, #0]
10007be0:	3203      	adds	r2, #3
10007be2:	429c      	cmp	r4, r3
10007be4:	d1f9      	bne.n	10007bda <ph_post_alloc_init+0x1e>
10007be6:	21ff      	movs	r1, #255	; 0xff
10007be8:	4029      	ands	r1, r5
10007bea:	004b      	lsls	r3, r1, #1
10007bec:	1859      	adds	r1, r3, r1
10007bee:	2300      	movs	r3, #0
10007bf0:	1840      	adds	r0, r0, r1
10007bf2:	3803      	subs	r0, #3
10007bf4:	7043      	strb	r3, [r0, #1]
10007bf6:	bd30      	pop	{r4, r5, pc}

10007bf8 <ph_merge_two_pass>:
10007bf8:	b5f8      	push	{r3, r4, r5, r6, r7, lr}
10007bfa:	46ce      	mov	lr, r9
10007bfc:	4647      	mov	r7, r8
10007bfe:	0006      	movs	r6, r0
10007c00:	000c      	movs	r4, r1
10007c02:	b580      	push	{r7, lr}
10007c04:	2900      	cmp	r1, #0
10007c06:	d007      	beq.n	10007c18 <ph_merge_two_pass+0x20>
10007c08:	004d      	lsls	r5, r1, #1
10007c0a:	6803      	ldr	r3, [r0, #0]
10007c0c:	186d      	adds	r5, r5, r1
10007c0e:	3d03      	subs	r5, #3
10007c10:	195a      	adds	r2, r3, r5
10007c12:	7857      	ldrb	r7, [r2, #1]
10007c14:	2f00      	cmp	r7, #0
10007c16:	d104      	bne.n	10007c22 <ph_merge_two_pass+0x2a>
10007c18:	0020      	movs	r0, r4
10007c1a:	bcc0      	pop	{r6, r7}
10007c1c:	46b9      	mov	r9, r7
10007c1e:	46b0      	mov	r8, r6
10007c20:	bdf8      	pop	{r3, r4, r5, r6, r7, pc}
10007c22:	0079      	lsls	r1, r7, #1
10007c24:	19c9      	adds	r1, r1, r7
10007c26:	3903      	subs	r1, #3
10007c28:	4688      	mov	r8, r1
10007c2a:	4443      	add	r3, r8
10007c2c:	7859      	ldrb	r1, [r3, #1]
10007c2e:	4689      	mov	r9, r1
10007c30:	2100      	movs	r1, #0
10007c32:	7059      	strb	r1, [r3, #1]
10007c34:	7051      	strb	r1, [r2, #1]
10007c36:	6873      	ldr	r3, [r6, #4]
10007c38:	003a      	movs	r2, r7
10007c3a:	0021      	movs	r1, r4
10007c3c:	6880      	ldr	r0, [r0, #8]
10007c3e:	4798      	blx	r3
10007c40:	6833      	ldr	r3, [r6, #0]
10007c42:	2800      	cmp	r0, #0
10007c44:	d014      	beq.n	10007c70 <ph_merge_two_pass+0x78>
10007c46:	4642      	mov	r2, r8
10007c48:	189a      	adds	r2, r3, r2
10007c4a:	7094      	strb	r4, [r2, #2]
10007c4c:	1959      	adds	r1, r3, r5
10007c4e:	5d5b      	ldrb	r3, [r3, r5]
10007c50:	2b00      	cmp	r3, #0
10007c52:	d000      	beq.n	10007c56 <ph_merge_two_pass+0x5e>
10007c54:	7053      	strb	r3, [r2, #1]
10007c56:	700f      	strb	r7, [r1, #0]
10007c58:	0027      	movs	r7, r4
10007c5a:	4649      	mov	r1, r9
10007c5c:	0030      	movs	r0, r6
10007c5e:	f7ff ffcb 	bl	10007bf8 <ph_merge_two_pass>
10007c62:	0039      	movs	r1, r7
10007c64:	0002      	movs	r2, r0
10007c66:	0030      	movs	r0, r6
10007c68:	f7ff ff74 	bl	10007b54 <ph_merge_nodes>
10007c6c:	0004      	movs	r4, r0
10007c6e:	e7d3      	b.n	10007c18 <ph_merge_two_pass+0x20>
10007c70:	4642      	mov	r2, r8
10007c72:	4641      	mov	r1, r8
10007c74:	195d      	adds	r5, r3, r5
10007c76:	70af      	strb	r7, [r5, #2]
10007c78:	189a      	adds	r2, r3, r2
10007c7a:	5c5b      	ldrb	r3, [r3, r1]
10007c7c:	2b00      	cmp	r3, #0
10007c7e:	d000      	beq.n	10007c82 <ph_merge_two_pass+0x8a>
10007c80:	706b      	strb	r3, [r5, #1]
10007c82:	7014      	strb	r4, [r2, #0]
10007c84:	e7e9      	b.n	10007c5a <ph_merge_two_pass+0x62>
10007c86:	46c0      	nop			; (mov r8, r8)

10007c88 <ph_remove_any_head>:
10007c88:	b5f0      	push	{r4, r5, r6, r7, lr}
10007c8a:	4657      	mov	r7, sl
10007c8c:	4645      	mov	r5, r8
10007c8e:	46de      	mov	lr, fp
10007c90:	464e      	mov	r6, r9
10007c92:	b5e0      	push	{r5, r6, r7, lr}
10007c94:	000d      	movs	r5, r1
10007c96:	006b      	lsls	r3, r5, #1
10007c98:	6801      	ldr	r1, [r0, #0]
10007c9a:	195b      	adds	r3, r3, r5
10007c9c:	1edf      	subs	r7, r3, #3
10007c9e:	0004      	movs	r4, r0
10007ca0:	5dc8      	ldrb	r0, [r1, r7]
10007ca2:	b083      	sub	sp, #12
10007ca4:	9201      	str	r2, [sp, #4]
10007ca6:	19ca      	adds	r2, r1, r7
10007ca8:	2800      	cmp	r0, #0
10007caa:	d04c      	beq.n	10007d46 <ph_remove_any_head+0xbe>
10007cac:	0043      	lsls	r3, r0, #1
10007cae:	181b      	adds	r3, r3, r0
10007cb0:	3b03      	subs	r3, #3
10007cb2:	18cb      	adds	r3, r1, r3
10007cb4:	785e      	ldrb	r6, [r3, #1]
10007cb6:	46b4      	mov	ip, r6
10007cb8:	2e00      	cmp	r6, #0
10007cba:	d116      	bne.n	10007cea <ph_remove_any_head+0x62>
10007cbc:	9e01      	ldr	r6, [sp, #4]
10007cbe:	2e00      	cmp	r6, #0
10007cc0:	d03e      	beq.n	10007d40 <ph_remove_any_head+0xb8>
10007cc2:	7be6      	ldrb	r6, [r4, #15]
10007cc4:	2e00      	cmp	r6, #0
10007cc6:	d004      	beq.n	10007cd2 <ph_remove_any_head+0x4a>
10007cc8:	0073      	lsls	r3, r6, #1
10007cca:	199b      	adds	r3, r3, r6
10007ccc:	18cb      	adds	r3, r1, r3
10007cce:	3b03      	subs	r3, #3
10007cd0:	705d      	strb	r5, [r3, #1]
10007cd2:	73e5      	strb	r5, [r4, #15]
10007cd4:	2800      	cmp	r0, #0
10007cd6:	d12f      	bne.n	10007d38 <ph_remove_any_head+0xb0>
10007cd8:	2300      	movs	r3, #0
10007cda:	7053      	strb	r3, [r2, #1]
10007cdc:	b003      	add	sp, #12
10007cde:	bcf0      	pop	{r4, r5, r6, r7}
10007ce0:	46bb      	mov	fp, r7
10007ce2:	46b2      	mov	sl, r6
10007ce4:	46a9      	mov	r9, r5
10007ce6:	46a0      	mov	r8, r4
10007ce8:	bdf0      	pop	{r4, r5, r6, r7, pc}
10007cea:	0072      	lsls	r2, r6, #1
10007cec:	4462      	add	r2, ip
10007cee:	3a03      	subs	r2, #3
10007cf0:	1889      	adds	r1, r1, r2
10007cf2:	784a      	ldrb	r2, [r1, #1]
10007cf4:	4690      	mov	r8, r2
10007cf6:	2200      	movs	r2, #0
10007cf8:	704a      	strb	r2, [r1, #1]
10007cfa:	4691      	mov	r9, r2
10007cfc:	705a      	strb	r2, [r3, #1]
10007cfe:	0001      	movs	r1, r0
10007d00:	0032      	movs	r2, r6
10007d02:	0020      	movs	r0, r4
10007d04:	f7ff ff26 	bl	10007b54 <ph_merge_nodes>
10007d08:	4643      	mov	r3, r8
10007d0a:	4682      	mov	sl, r0
10007d0c:	2b00      	cmp	r3, #0
10007d0e:	d007      	beq.n	10007d20 <ph_remove_any_head+0x98>
10007d10:	005b      	lsls	r3, r3, #1
10007d12:	6821      	ldr	r1, [r4, #0]
10007d14:	4443      	add	r3, r8
10007d16:	3b03      	subs	r3, #3
10007d18:	18cb      	adds	r3, r1, r3
10007d1a:	785a      	ldrb	r2, [r3, #1]
10007d1c:	2a00      	cmp	r2, #0
10007d1e:	d116      	bne.n	10007d4e <ph_remove_any_head+0xc6>
10007d20:	4642      	mov	r2, r8
10007d22:	4651      	mov	r1, sl
10007d24:	0020      	movs	r0, r4
10007d26:	f7ff ff15 	bl	10007b54 <ph_merge_nodes>
10007d2a:	6821      	ldr	r1, [r4, #0]
10007d2c:	9b01      	ldr	r3, [sp, #4]
10007d2e:	19ca      	adds	r2, r1, r7
10007d30:	2b00      	cmp	r3, #0
10007d32:	d1c6      	bne.n	10007cc2 <ph_remove_any_head+0x3a>
10007d34:	2800      	cmp	r0, #0
10007d36:	d0cf      	beq.n	10007cd8 <ph_remove_any_head+0x50>
10007d38:	0043      	lsls	r3, r0, #1
10007d3a:	181b      	adds	r3, r3, r0
10007d3c:	3b03      	subs	r3, #3
10007d3e:	18cb      	adds	r3, r1, r3
10007d40:	2100      	movs	r1, #0
10007d42:	7099      	strb	r1, [r3, #2]
10007d44:	e7c8      	b.n	10007cd8 <ph_remove_any_head+0x50>
10007d46:	9b01      	ldr	r3, [sp, #4]
10007d48:	2b00      	cmp	r3, #0
10007d4a:	d1ba      	bne.n	10007cc2 <ph_remove_any_head+0x3a>
10007d4c:	e7c4      	b.n	10007cd8 <ph_remove_any_head+0x50>
10007d4e:	0050      	lsls	r0, r2, #1
10007d50:	1880      	adds	r0, r0, r2
10007d52:	3803      	subs	r0, #3
10007d54:	1809      	adds	r1, r1, r0
10007d56:	7848      	ldrb	r0, [r1, #1]
10007d58:	4683      	mov	fp, r0
10007d5a:	4648      	mov	r0, r9
10007d5c:	7048      	strb	r0, [r1, #1]
10007d5e:	7058      	strb	r0, [r3, #1]
10007d60:	4641      	mov	r1, r8
10007d62:	0020      	movs	r0, r4
10007d64:	f7ff fef6 	bl	10007b54 <ph_merge_nodes>
10007d68:	4659      	mov	r1, fp
10007d6a:	4680      	mov	r8, r0
10007d6c:	0020      	movs	r0, r4
10007d6e:	f7ff ff43 	bl	10007bf8 <ph_merge_two_pass>
10007d72:	4641      	mov	r1, r8
10007d74:	0002      	movs	r2, r0
10007d76:	0020      	movs	r0, r4
10007d78:	f7ff feec 	bl	10007b54 <ph_merge_nodes>
10007d7c:	4680      	mov	r8, r0
10007d7e:	e7cf      	b.n	10007d20 <ph_remove_any_head+0x98>

10007d80 <ph_remove_head>:
10007d80:	b5f0      	push	{r4, r5, r6, r7, lr}
10007d82:	4657      	mov	r7, sl
10007d84:	4645      	mov	r5, r8
10007d86:	46de      	mov	lr, fp
10007d88:	464e      	mov	r6, r9
10007d8a:	b5e0      	push	{r5, r6, r7, lr}
10007d8c:	b083      	sub	sp, #12
10007d8e:	9101      	str	r1, [sp, #4]
10007d90:	7b45      	ldrb	r5, [r0, #13]
10007d92:	0004      	movs	r4, r0
10007d94:	006b      	lsls	r3, r5, #1
10007d96:	6800      	ldr	r0, [r0, #0]
10007d98:	195b      	adds	r3, r3, r5
10007d9a:	1edf      	subs	r7, r3, #3
10007d9c:	5dc1      	ldrb	r1, [r0, r7]
10007d9e:	19c2      	adds	r2, r0, r7
10007da0:	2900      	cmp	r1, #0
10007da2:	d04e      	beq.n	10007e42 <ph_remove_head+0xc2>
10007da4:	004b      	lsls	r3, r1, #1
10007da6:	185b      	adds	r3, r3, r1
10007da8:	3b03      	subs	r3, #3
10007daa:	18c3      	adds	r3, r0, r3
10007dac:	785e      	ldrb	r6, [r3, #1]
10007dae:	46b4      	mov	ip, r6
10007db0:	2e00      	cmp	r6, #0
10007db2:	d118      	bne.n	10007de6 <ph_remove_head+0x66>
10007db4:	9e01      	ldr	r6, [sp, #4]
10007db6:	2e00      	cmp	r6, #0
10007db8:	d040      	beq.n	10007e3c <ph_remove_head+0xbc>
10007dba:	7be6      	ldrb	r6, [r4, #15]
10007dbc:	2e00      	cmp	r6, #0
10007dbe:	d004      	beq.n	10007dca <ph_remove_head+0x4a>
10007dc0:	0073      	lsls	r3, r6, #1
10007dc2:	199b      	adds	r3, r3, r6
10007dc4:	18c3      	adds	r3, r0, r3
10007dc6:	3b03      	subs	r3, #3
10007dc8:	705d      	strb	r5, [r3, #1]
10007dca:	73e5      	strb	r5, [r4, #15]
10007dcc:	2900      	cmp	r1, #0
10007dce:	d131      	bne.n	10007e34 <ph_remove_head+0xb4>
10007dd0:	2300      	movs	r3, #0
10007dd2:	0028      	movs	r0, r5
10007dd4:	7053      	strb	r3, [r2, #1]
10007dd6:	7361      	strb	r1, [r4, #13]
10007dd8:	b003      	add	sp, #12
10007dda:	bcf0      	pop	{r4, r5, r6, r7}
10007ddc:	46bb      	mov	fp, r7
10007dde:	46b2      	mov	sl, r6
10007de0:	46a9      	mov	r9, r5
10007de2:	46a0      	mov	r8, r4
10007de4:	bdf0      	pop	{r4, r5, r6, r7, pc}
10007de6:	0072      	lsls	r2, r6, #1
10007de8:	4462      	add	r2, ip
10007dea:	3a03      	subs	r2, #3
10007dec:	1880      	adds	r0, r0, r2
10007dee:	7842      	ldrb	r2, [r0, #1]
10007df0:	4690      	mov	r8, r2
10007df2:	2200      	movs	r2, #0
10007df4:	7042      	strb	r2, [r0, #1]
10007df6:	4691      	mov	r9, r2
10007df8:	705a      	strb	r2, [r3, #1]
10007dfa:	0020      	movs	r0, r4
10007dfc:	0032      	movs	r2, r6
10007dfe:	f7ff fea9 	bl	10007b54 <ph_merge_nodes>
10007e02:	4643      	mov	r3, r8
10007e04:	4682      	mov	sl, r0
10007e06:	2b00      	cmp	r3, #0
10007e08:	d007      	beq.n	10007e1a <ph_remove_head+0x9a>
10007e0a:	005b      	lsls	r3, r3, #1
10007e0c:	6821      	ldr	r1, [r4, #0]
10007e0e:	4443      	add	r3, r8
10007e10:	3b03      	subs	r3, #3
10007e12:	18cb      	adds	r3, r1, r3
10007e14:	785a      	ldrb	r2, [r3, #1]
10007e16:	2a00      	cmp	r2, #0
10007e18:	d117      	bne.n	10007e4a <ph_remove_head+0xca>
10007e1a:	4642      	mov	r2, r8
10007e1c:	4651      	mov	r1, sl
10007e1e:	0020      	movs	r0, r4
10007e20:	f7ff fe98 	bl	10007b54 <ph_merge_nodes>
10007e24:	9b01      	ldr	r3, [sp, #4]
10007e26:	0001      	movs	r1, r0
10007e28:	6820      	ldr	r0, [r4, #0]
10007e2a:	19c2      	adds	r2, r0, r7
10007e2c:	2b00      	cmp	r3, #0
10007e2e:	d1c4      	bne.n	10007dba <ph_remove_head+0x3a>
10007e30:	2900      	cmp	r1, #0
10007e32:	d0cd      	beq.n	10007dd0 <ph_remove_head+0x50>
10007e34:	004b      	lsls	r3, r1, #1
10007e36:	185b      	adds	r3, r3, r1
10007e38:	3b03      	subs	r3, #3
10007e3a:	18c3      	adds	r3, r0, r3
10007e3c:	2000      	movs	r0, #0
10007e3e:	7098      	strb	r0, [r3, #2]
10007e40:	e7c6      	b.n	10007dd0 <ph_remove_head+0x50>
10007e42:	9b01      	ldr	r3, [sp, #4]
10007e44:	2b00      	cmp	r3, #0
10007e46:	d1b8      	bne.n	10007dba <ph_remove_head+0x3a>
10007e48:	e7c2      	b.n	10007dd0 <ph_remove_head+0x50>
10007e4a:	0050      	lsls	r0, r2, #1
10007e4c:	1880      	adds	r0, r0, r2
10007e4e:	3803      	subs	r0, #3
10007e50:	1809      	adds	r1, r1, r0
10007e52:	7848      	ldrb	r0, [r1, #1]
10007e54:	4683      	mov	fp, r0
10007e56:	4648      	mov	r0, r9
10007e58:	7048      	strb	r0, [r1, #1]
10007e5a:	7058      	strb	r0, [r3, #1]
10007e5c:	4641      	mov	r1, r8
10007e5e:	0020      	movs	r0, r4
10007e60:	f7ff fe78 	bl	10007b54 <ph_merge_nodes>
10007e64:	4659      	mov	r1, fp
10007e66:	4680      	mov	r8, r0
10007e68:	0020      	movs	r0, r4
10007e6a:	f7ff fec5 	bl	10007bf8 <ph_merge_two_pass>
10007e6e:	4641      	mov	r1, r8
10007e70:	0002      	movs	r2, r0
10007e72:	0020      	movs	r0, r4
10007e74:	f7ff fe6e 	bl	10007b54 <ph_merge_nodes>
10007e78:	4680      	mov	r8, r0
10007e7a:	e7ce      	b.n	10007e1a <ph_remove_head+0x9a>

10007e7c <ph_remove_and_free_node>:
10007e7c:	b570      	push	{r4, r5, r6, lr}
10007e7e:	0004      	movs	r4, r0
10007e80:	2900      	cmp	r1, #0
10007e82:	d02c      	beq.n	10007ede <ph_remove_and_free_node+0x62>
10007e84:	7b43      	ldrb	r3, [r0, #13]
10007e86:	428b      	cmp	r3, r1
10007e88:	d02e      	beq.n	10007ee8 <ph_remove_and_free_node+0x6c>
10007e8a:	6805      	ldr	r5, [r0, #0]
10007e8c:	0048      	lsls	r0, r1, #1
10007e8e:	1840      	adds	r0, r0, r1
10007e90:	3803      	subs	r0, #3
10007e92:	1828      	adds	r0, r5, r0
10007e94:	7882      	ldrb	r2, [r0, #2]
10007e96:	2a00      	cmp	r2, #0
10007e98:	d021      	beq.n	10007ede <ph_remove_and_free_node+0x62>
10007e9a:	0053      	lsls	r3, r2, #1
10007e9c:	189b      	adds	r3, r3, r2
10007e9e:	3b03      	subs	r3, #3
10007ea0:	5cea      	ldrb	r2, [r5, r3]
10007ea2:	18ee      	adds	r6, r5, r3
10007ea4:	428a      	cmp	r2, r1
10007ea6:	d102      	bne.n	10007eae <ph_remove_and_free_node+0x32>
10007ea8:	e01b      	b.n	10007ee2 <ph_remove_and_free_node+0x66>
10007eaa:	2a00      	cmp	r2, #0
10007eac:	d008      	beq.n	10007ec0 <ph_remove_and_free_node+0x44>
10007eae:	0053      	lsls	r3, r2, #1
10007eb0:	189b      	adds	r3, r3, r2
10007eb2:	3b03      	subs	r3, #3
10007eb4:	18eb      	adds	r3, r5, r3
10007eb6:	785a      	ldrb	r2, [r3, #1]
10007eb8:	428a      	cmp	r2, r1
10007eba:	d1f6      	bne.n	10007eaa <ph_remove_and_free_node+0x2e>
10007ebc:	7842      	ldrb	r2, [r0, #1]
10007ebe:	705a      	strb	r2, [r3, #1]
10007ec0:	2300      	movs	r3, #0
10007ec2:	2201      	movs	r2, #1
10007ec4:	7083      	strb	r3, [r0, #2]
10007ec6:	7043      	strb	r3, [r0, #1]
10007ec8:	0020      	movs	r0, r4
10007eca:	f7ff fedd 	bl	10007c88 <ph_remove_any_head>
10007ece:	7b61      	ldrb	r1, [r4, #13]
10007ed0:	0002      	movs	r2, r0
10007ed2:	0020      	movs	r0, r4
10007ed4:	f7ff fe3e 	bl	10007b54 <ph_merge_nodes>
10007ed8:	7360      	strb	r0, [r4, #13]
10007eda:	2001      	movs	r0, #1
10007edc:	e000      	b.n	10007ee0 <ph_remove_and_free_node+0x64>
10007ede:	2000      	movs	r0, #0
10007ee0:	bd70      	pop	{r4, r5, r6, pc}
10007ee2:	7843      	ldrb	r3, [r0, #1]
10007ee4:	7033      	strb	r3, [r6, #0]
10007ee6:	e7eb      	b.n	10007ec0 <ph_remove_and_free_node+0x44>
10007ee8:	2201      	movs	r2, #1
10007eea:	0019      	movs	r1, r3
10007eec:	f7ff fecc 	bl	10007c88 <ph_remove_any_head>
10007ef0:	7360      	strb	r0, [r4, #13]
10007ef2:	2001      	movs	r0, #1
10007ef4:	e7f4      	b.n	10007ee0 <ph_remove_and_free_node+0x64>
10007ef6:	46c0      	nop			; (mov r8, r8)

10007ef8 <mutex_init>:
10007ef8:	b510      	push	{r4, lr}
10007efa:	0004      	movs	r4, r0
10007efc:	f7ff f86e 	bl	10006fdc <next_striped_spin_lock_num>
10007f00:	0001      	movs	r1, r0
10007f02:	0020      	movs	r0, r4
10007f04:	f7ff fa00 	bl	10007308 <lock_init>
10007f08:	23ff      	movs	r3, #255	; 0xff
10007f0a:	7123      	strb	r3, [r4, #4]
10007f0c:	f3bf 8f5f 	dmb	sy
10007f10:	bd10      	pop	{r4, pc}
10007f12:	46c0      	nop			; (mov r8, r8)

10007f14 <recursive_mutex_init>:
10007f14:	b510      	push	{r4, lr}
10007f16:	0004      	movs	r4, r0
10007f18:	f7ff f860 	bl	10006fdc <next_striped_spin_lock_num>
10007f1c:	0001      	movs	r1, r0
10007f1e:	0020      	movs	r0, r4
10007f20:	f7ff f9f2 	bl	10007308 <lock_init>
10007f24:	23ff      	movs	r3, #255	; 0xff
10007f26:	80a3      	strh	r3, [r4, #4]
10007f28:	f3bf 8f5f 	dmb	sy
10007f2c:	bd10      	pop	{r4, pc}
10007f2e:	46c0      	nop			; (mov r8, r8)

10007f30 <runtime_init>:
10007f30:	4b2c      	ldr	r3, [pc, #176]	; (10007fe4 <runtime_init+0xb4>)
10007f32:	4a2d      	ldr	r2, [pc, #180]	; (10007fe8 <runtime_init+0xb8>)
10007f34:	b570      	push	{r4, r5, r6, lr}
10007f36:	601a      	str	r2, [r3, #0]
10007f38:	4a2c      	ldr	r2, [pc, #176]	; (10007fec <runtime_init+0xbc>)
10007f3a:	4b2d      	ldr	r3, [pc, #180]	; (10007ff0 <runtime_init+0xc0>)
10007f3c:	492d      	ldr	r1, [pc, #180]	; (10007ff4 <runtime_init+0xc4>)
10007f3e:	601a      	str	r2, [r3, #0]
10007f40:	0014      	movs	r4, r2
10007f42:	688b      	ldr	r3, [r1, #8]
10007f44:	439c      	bics	r4, r3
10007f46:	d1fb      	bne.n	10007f40 <runtime_init+0x10>
10007f48:	4d2b      	ldr	r5, [pc, #172]	; (10007ff8 <runtime_init+0xc8>)
10007f4a:	4e2c      	ldr	r6, [pc, #176]	; (10007ffc <runtime_init+0xcc>)
10007f4c:	42b5      	cmp	r5, r6
10007f4e:	d208      	bcs.n	10007f62 <runtime_init+0x32>
10007f50:	3e01      	subs	r6, #1
10007f52:	1b76      	subs	r6, r6, r5
10007f54:	08b6      	lsrs	r6, r6, #2
10007f56:	cd08      	ldmia	r5!, {r3}
10007f58:	4798      	blx	r3
10007f5a:	0023      	movs	r3, r4
10007f5c:	3401      	adds	r4, #1
10007f5e:	42b3      	cmp	r3, r6
10007f60:	d1f9      	bne.n	10007f56 <runtime_init+0x26>
10007f62:	f000 f897 	bl	10008094 <clocks_init>
10007f66:	4a26      	ldr	r2, [pc, #152]	; (10008000 <runtime_init+0xd0>)
10007f68:	4b21      	ldr	r3, [pc, #132]	; (10007ff0 <runtime_init+0xc0>)
10007f6a:	601a      	str	r2, [r3, #0]
10007f6c:	4a21      	ldr	r2, [pc, #132]	; (10007ff4 <runtime_init+0xc4>)
10007f6e:	6893      	ldr	r3, [r2, #8]
10007f70:	43db      	mvns	r3, r3
10007f72:	01db      	lsls	r3, r3, #7
10007f74:	09dd      	lsrs	r5, r3, #7
10007f76:	2b00      	cmp	r3, #0
10007f78:	d1f9      	bne.n	10007f6e <runtime_init+0x3e>
10007f7a:	2240      	movs	r2, #64	; 0x40
10007f7c:	4b21      	ldr	r3, [pc, #132]	; (10008004 <runtime_init+0xd4>)
10007f7e:	4c22      	ldr	r4, [pc, #136]	; (10008008 <runtime_init+0xd8>)
10007f80:	4e22      	ldr	r6, [pc, #136]	; (1000800c <runtime_init+0xdc>)
10007f82:	679a      	str	r2, [r3, #120]	; 0x78
10007f84:	675a      	str	r2, [r3, #116]	; 0x74
10007f86:	671a      	str	r2, [r3, #112]	; 0x70
10007f88:	66da      	str	r2, [r3, #108]	; 0x6c
10007f8a:	42b4      	cmp	r4, r6
10007f8c:	d208      	bcs.n	10007fa0 <runtime_init+0x70>
10007f8e:	6823      	ldr	r3, [r4, #0]
10007f90:	0020      	movs	r0, r4
10007f92:	2b00      	cmp	r3, #0
10007f94:	d020      	beq.n	10007fd8 <runtime_init+0xa8>
10007f96:	3408      	adds	r4, #8
10007f98:	f7ff ffbc 	bl	10007f14 <recursive_mutex_init>
10007f9c:	42b4      	cmp	r4, r6
10007f9e:	d3f6      	bcc.n	10007f8e <runtime_init+0x5e>
10007fa0:	4e1b      	ldr	r6, [pc, #108]	; (10008010 <runtime_init+0xe0>)
10007fa2:	4c1c      	ldr	r4, [pc, #112]	; (10008014 <runtime_init+0xe4>)
10007fa4:	22c0      	movs	r2, #192	; 0xc0
10007fa6:	68a1      	ldr	r1, [r4, #8]
10007fa8:	0030      	movs	r0, r6
10007faa:	f000 fc25 	bl	100087f8 <__wrap___aeabi_memcpy>
10007fae:	60a6      	str	r6, [r4, #8]
10007fb0:	f7ff f806 	bl	10006fc0 <spin_locks_reset>
10007fb4:	f7ff f996 	bl	100072e4 <irq_init_priorities>
10007fb8:	f7ff fbd2 	bl	10007760 <alarm_pool_init_default>
10007fbc:	4c16      	ldr	r4, [pc, #88]	; (10008018 <runtime_init+0xe8>)
10007fbe:	4e17      	ldr	r6, [pc, #92]	; (1000801c <runtime_init+0xec>)
10007fc0:	42b4      	cmp	r4, r6
10007fc2:	d208      	bcs.n	10007fd6 <runtime_init+0xa6>
10007fc4:	3e01      	subs	r6, #1
10007fc6:	1b36      	subs	r6, r6, r4
10007fc8:	08b6      	lsrs	r6, r6, #2
10007fca:	cc08      	ldmia	r4!, {r3}
10007fcc:	4798      	blx	r3
10007fce:	002b      	movs	r3, r5
10007fd0:	3501      	adds	r5, #1
10007fd2:	429e      	cmp	r6, r3
10007fd4:	d1f9      	bne.n	10007fca <runtime_init+0x9a>
10007fd6:	bd70      	pop	{r4, r5, r6, pc}
10007fd8:	3408      	adds	r4, #8
10007fda:	f7ff ff8d 	bl	10007ef8 <mutex_init>
10007fde:	42b4      	cmp	r4, r6
10007fe0:	d3d5      	bcc.n	10007f8e <runtime_init+0x5e>
10007fe2:	e7dd      	b.n	10007fa0 <runtime_init+0x70>
10007fe4:	4000e000 	.word	0x4000e000
10007fe8:	fefbcdbf 	.word	0xfefbcdbf
10007fec:	003c7ffe 	.word	0x003c7ffe
10007ff0:	4000f000 	.word	0x4000f000
10007ff4:	4000c000 	.word	0x4000c000
10007ff8:	20000e08 	.word	0x20000e08
10007ffc:	20000e18 	.word	0x20000e18
10008000:	01ffffff 	.word	0x01ffffff
10008004:	4001f000 	.word	0x4001f000
10008008:	20000e00 	.word	0x20000e00
1000800c:	20000e08 	.word	0x20000e08
10008010:	20000000 	.word	0x20000000
10008014:	e000ed00 	.word	0xe000ed00
10008018:	20000e18 	.word	0x20000e18
1000801c:	20000e24 	.word	0x20000e24

10008020 <_sbrk>:
10008020:	4a09      	ldr	r2, [pc, #36]	; (10008048 <_sbrk+0x28>)
10008022:	0003      	movs	r3, r0
10008024:	6810      	ldr	r0, [r2, #0]
10008026:	2800      	cmp	r0, #0
10008028:	d005      	beq.n	10008036 <_sbrk+0x16>
1000802a:	4908      	ldr	r1, [pc, #32]	; (1000804c <_sbrk+0x2c>)
1000802c:	18c3      	adds	r3, r0, r3
1000802e:	428b      	cmp	r3, r1
10008030:	d807      	bhi.n	10008042 <_sbrk+0x22>
10008032:	6013      	str	r3, [r2, #0]
10008034:	4770      	bx	lr
10008036:	4806      	ldr	r0, [pc, #24]	; (10008050 <_sbrk+0x30>)
10008038:	4904      	ldr	r1, [pc, #16]	; (1000804c <_sbrk+0x2c>)
1000803a:	18c3      	adds	r3, r0, r3
1000803c:	6010      	str	r0, [r2, #0]
1000803e:	428b      	cmp	r3, r1
10008040:	d9f7      	bls.n	10008032 <_sbrk+0x12>
10008042:	2001      	movs	r0, #1
10008044:	4240      	negs	r0, r0
10008046:	e7f5      	b.n	10008034 <_sbrk+0x14>
10008048:	2000130c 	.word	0x2000130c
1000804c:	20040000 	.word	0x20040000
10008050:	20001348 	.word	0x20001348

10008054 <exit>:
10008054:	be00      	bkpt	0x0000
10008056:	e7fd      	b.n	10008054 <exit>

10008058 <panic>:
10008058:	b40f      	push	{r0, r1, r2, r3}
1000805a:	b500      	push	{lr}
1000805c:	4808      	ldr	r0, [pc, #32]	; (10008080 <panic+0x28>)
1000805e:	b083      	sub	sp, #12
10008060:	f000 fd04 	bl	10008a6c <__wrap_puts>
10008064:	9b04      	ldr	r3, [sp, #16]
10008066:	2b00      	cmp	r3, #0
10008068:	d007      	beq.n	1000807a <panic+0x22>
1000806a:	a905      	add	r1, sp, #20
1000806c:	0018      	movs	r0, r3
1000806e:	9101      	str	r1, [sp, #4]
10008070:	f000 f9f0 	bl	10008454 <weak_raw_vprintf>
10008074:	4803      	ldr	r0, [pc, #12]	; (10008084 <panic+0x2c>)
10008076:	f000 fcf9 	bl	10008a6c <__wrap_puts>
1000807a:	be00      	bkpt	0x0000
1000807c:	e7fd      	b.n	1000807a <panic+0x22>
1000807e:	46c0      	nop			; (mov r8, r8)
10008080:	1000a3f0 	.word	0x1000a3f0
10008084:	1000a400 	.word	0x1000a400

10008088 <hard_assertion_failure>:
10008088:	b510      	push	{r4, lr}
1000808a:	4801      	ldr	r0, [pc, #4]	; (10008090 <hard_assertion_failure+0x8>)
1000808c:	f7ff ffe4 	bl	10008058 <panic>
10008090:	1000a404 	.word	0x1000a404

10008094 <clocks_init>:
10008094:	b530      	push	{r4, r5, lr}
10008096:	200c      	movs	r0, #12
10008098:	b083      	sub	sp, #12
1000809a:	f000 f9b7 	bl	1000840c <watchdog_start_tick>
1000809e:	f7fe ff87 	bl	10006fb0 <running_on_fpga>
100080a2:	2800      	cmp	r0, #0
100080a4:	d00e      	beq.n	100080c4 <clocks_init+0x30>
100080a6:	4b94      	ldr	r3, [pc, #592]	; (100082f8 <clocks_init+0x264>)
100080a8:	4a94      	ldr	r2, [pc, #592]	; (100082fc <clocks_init+0x268>)
100080aa:	601a      	str	r2, [r3, #0]
100080ac:	605a      	str	r2, [r3, #4]
100080ae:	609a      	str	r2, [r3, #8]
100080b0:	60da      	str	r2, [r3, #12]
100080b2:	611a      	str	r2, [r3, #16]
100080b4:	615a      	str	r2, [r3, #20]
100080b6:	619a      	str	r2, [r3, #24]
100080b8:	61da      	str	r2, [r3, #28]
100080ba:	621a      	str	r2, [r3, #32]
100080bc:	4a90      	ldr	r2, [pc, #576]	; (10008300 <clocks_init+0x26c>)
100080be:	625a      	str	r2, [r3, #36]	; 0x24
100080c0:	b003      	add	sp, #12
100080c2:	bd30      	pop	{r4, r5, pc}
100080c4:	4c8f      	ldr	r4, [pc, #572]	; (10008304 <clocks_init+0x270>)
100080c6:	67a0      	str	r0, [r4, #120]	; 0x78
100080c8:	f000 f9a8 	bl	1000841c <xosc_init>
100080cc:	2201      	movs	r2, #1
100080ce:	4b8e      	ldr	r3, [pc, #568]	; (10008308 <clocks_init+0x274>)
100080d0:	601a      	str	r2, [r3, #0]
100080d2:	6c63      	ldr	r3, [r4, #68]	; 0x44
100080d4:	2b01      	cmp	r3, #1
100080d6:	d1fc      	bne.n	100080d2 <clocks_init+0x3e>
100080d8:	2203      	movs	r2, #3
100080da:	4b8c      	ldr	r3, [pc, #560]	; (1000830c <clocks_init+0x278>)
100080dc:	601a      	str	r2, [r3, #0]
100080de:	4a89      	ldr	r2, [pc, #548]	; (10008304 <clocks_init+0x270>)
100080e0:	6b93      	ldr	r3, [r2, #56]	; 0x38
100080e2:	2b01      	cmp	r3, #1
100080e4:	d1fc      	bne.n	100080e0 <clocks_init+0x4c>
100080e6:	3301      	adds	r3, #1
100080e8:	2101      	movs	r1, #1
100080ea:	4a89      	ldr	r2, [pc, #548]	; (10008310 <clocks_init+0x27c>)
100080ec:	4889      	ldr	r0, [pc, #548]	; (10008314 <clocks_init+0x280>)
100080ee:	9300      	str	r3, [sp, #0]
100080f0:	3304      	adds	r3, #4
100080f2:	f000 f933 	bl	1000835c <pll_init>
100080f6:	2305      	movs	r3, #5
100080f8:	4a87      	ldr	r2, [pc, #540]	; (10008318 <clocks_init+0x284>)
100080fa:	9300      	str	r3, [sp, #0]
100080fc:	2101      	movs	r1, #1
100080fe:	4887      	ldr	r0, [pc, #540]	; (1000831c <clocks_init+0x288>)
10008100:	f000 f92c 	bl	1000835c <pll_init>
10008104:	4b86      	ldr	r3, [pc, #536]	; (10008320 <clocks_init+0x28c>)
10008106:	685a      	ldr	r2, [r3, #4]
10008108:	2aff      	cmp	r2, #255	; 0xff
1000810a:	d802      	bhi.n	10008112 <clocks_init+0x7e>
1000810c:	2280      	movs	r2, #128	; 0x80
1000810e:	0052      	lsls	r2, r2, #1
10008110:	605a      	str	r2, [r3, #4]
10008112:	2280      	movs	r2, #128	; 0x80
10008114:	4c78      	ldr	r4, [pc, #480]	; (100082f8 <clocks_init+0x264>)
10008116:	4b7d      	ldr	r3, [pc, #500]	; (1000830c <clocks_init+0x278>)
10008118:	6921      	ldr	r1, [r4, #16]
1000811a:	0112      	lsls	r2, r2, #4
1000811c:	4d80      	ldr	r5, [pc, #512]	; (10008320 <clocks_init+0x28c>)
1000811e:	601a      	str	r2, [r3, #0]
10008120:	2900      	cmp	r1, #0
10008122:	d005      	beq.n	10008130 <clocks_init+0x9c>
10008124:	6960      	ldr	r0, [r4, #20]
10008126:	f000 fa0f 	bl	10008548 <__wrap___aeabi_uidiv>
1000812a:	3001      	adds	r0, #1
1000812c:	3801      	subs	r0, #1
1000812e:	d1fd      	bne.n	1000812c <clocks_init+0x98>
10008130:	21e0      	movs	r1, #224	; 0xe0
10008132:	4b7b      	ldr	r3, [pc, #492]	; (10008320 <clocks_init+0x28c>)
10008134:	2002      	movs	r0, #2
10008136:	681a      	ldr	r2, [r3, #0]
10008138:	4011      	ands	r1, r2
1000813a:	2280      	movs	r2, #128	; 0x80
1000813c:	0152      	lsls	r2, r2, #5
1000813e:	432a      	orrs	r2, r5
10008140:	6011      	str	r1, [r2, #0]
10008142:	6819      	ldr	r1, [r3, #0]
10008144:	4048      	eors	r0, r1
10008146:	2103      	movs	r1, #3
10008148:	4001      	ands	r1, r0
1000814a:	6011      	str	r1, [r2, #0]
1000814c:	2104      	movs	r1, #4
1000814e:	689a      	ldr	r2, [r3, #8]
10008150:	4211      	tst	r1, r2
10008152:	d0fc      	beq.n	1000814e <clocks_init+0xba>
10008154:	2280      	movs	r2, #128	; 0x80
10008156:	2180      	movs	r1, #128	; 0x80
10008158:	0192      	lsls	r2, r2, #6
1000815a:	432a      	orrs	r2, r5
1000815c:	0109      	lsls	r1, r1, #4
1000815e:	6011      	str	r1, [r2, #0]
10008160:	2280      	movs	r2, #128	; 0x80
10008162:	0052      	lsls	r2, r2, #1
10008164:	605a      	str	r2, [r3, #4]
10008166:	4b6f      	ldr	r3, [pc, #444]	; (10008324 <clocks_init+0x290>)
10008168:	6123      	str	r3, [r4, #16]
1000816a:	4b6f      	ldr	r3, [pc, #444]	; (10008328 <clocks_init+0x294>)
1000816c:	6859      	ldr	r1, [r3, #4]
1000816e:	29ff      	cmp	r1, #255	; 0xff
10008170:	d800      	bhi.n	10008174 <clocks_init+0xe0>
10008172:	605a      	str	r2, [r3, #4]
10008174:	2103      	movs	r1, #3
10008176:	4a64      	ldr	r2, [pc, #400]	; (10008308 <clocks_init+0x274>)
10008178:	4b6b      	ldr	r3, [pc, #428]	; (10008328 <clocks_init+0x294>)
1000817a:	6011      	str	r1, [r2, #0]
1000817c:	3902      	subs	r1, #2
1000817e:	689a      	ldr	r2, [r3, #8]
10008180:	4211      	tst	r1, r2
10008182:	d0fc      	beq.n	1000817e <clocks_init+0xea>
10008184:	20e0      	movs	r0, #224	; 0xe0
10008186:	681a      	ldr	r2, [r3, #0]
10008188:	4010      	ands	r0, r2
1000818a:	2280      	movs	r2, #128	; 0x80
1000818c:	0152      	lsls	r2, r2, #5
1000818e:	431a      	orrs	r2, r3
10008190:	6010      	str	r0, [r2, #0]
10008192:	6818      	ldr	r0, [r3, #0]
10008194:	4048      	eors	r0, r1
10008196:	2103      	movs	r1, #3
10008198:	4001      	ands	r1, r0
1000819a:	2002      	movs	r0, #2
1000819c:	6011      	str	r1, [r2, #0]
1000819e:	4962      	ldr	r1, [pc, #392]	; (10008328 <clocks_init+0x294>)
100081a0:	688a      	ldr	r2, [r1, #8]
100081a2:	4210      	tst	r0, r2
100081a4:	d0fc      	beq.n	100081a0 <clocks_init+0x10c>
100081a6:	2280      	movs	r2, #128	; 0x80
100081a8:	0192      	lsls	r2, r2, #6
100081aa:	4313      	orrs	r3, r2
100081ac:	2280      	movs	r2, #128	; 0x80
100081ae:	0112      	lsls	r2, r2, #4
100081b0:	601a      	str	r2, [r3, #0]
100081b2:	2280      	movs	r2, #128	; 0x80
100081b4:	4b5d      	ldr	r3, [pc, #372]	; (1000832c <clocks_init+0x298>)
100081b6:	0052      	lsls	r2, r2, #1
100081b8:	604a      	str	r2, [r1, #4]
100081ba:	6163      	str	r3, [r4, #20]
100081bc:	4b5c      	ldr	r3, [pc, #368]	; (10008330 <clocks_init+0x29c>)
100081be:	6859      	ldr	r1, [r3, #4]
100081c0:	29ff      	cmp	r1, #255	; 0xff
100081c2:	d800      	bhi.n	100081c6 <clocks_init+0x132>
100081c4:	605a      	str	r2, [r3, #4]
100081c6:	2280      	movs	r2, #128	; 0x80
100081c8:	4b5a      	ldr	r3, [pc, #360]	; (10008334 <clocks_init+0x2a0>)
100081ca:	69e1      	ldr	r1, [r4, #28]
100081cc:	0112      	lsls	r2, r2, #4
100081ce:	4d58      	ldr	r5, [pc, #352]	; (10008330 <clocks_init+0x29c>)
100081d0:	601a      	str	r2, [r3, #0]
100081d2:	2900      	cmp	r1, #0
100081d4:	d005      	beq.n	100081e2 <clocks_init+0x14e>
100081d6:	6960      	ldr	r0, [r4, #20]
100081d8:	f000 f9b6 	bl	10008548 <__wrap___aeabi_uidiv>
100081dc:	3001      	adds	r0, #1
100081de:	3801      	subs	r0, #1
100081e0:	d1fd      	bne.n	100081de <clocks_init+0x14a>
100081e2:	22e0      	movs	r2, #224	; 0xe0
100081e4:	4952      	ldr	r1, [pc, #328]	; (10008330 <clocks_init+0x29c>)
100081e6:	680b      	ldr	r3, [r1, #0]
100081e8:	401a      	ands	r2, r3
100081ea:	2380      	movs	r3, #128	; 0x80
100081ec:	015b      	lsls	r3, r3, #5
100081ee:	432b      	orrs	r3, r5
100081f0:	601a      	str	r2, [r3, #0]
100081f2:	2380      	movs	r3, #128	; 0x80
100081f4:	2280      	movs	r2, #128	; 0x80
100081f6:	019b      	lsls	r3, r3, #6
100081f8:	432b      	orrs	r3, r5
100081fa:	0112      	lsls	r2, r2, #4
100081fc:	601a      	str	r2, [r3, #0]
100081fe:	2280      	movs	r2, #128	; 0x80
10008200:	4b3e      	ldr	r3, [pc, #248]	; (100082fc <clocks_init+0x268>)
10008202:	0052      	lsls	r2, r2, #1
10008204:	604a      	str	r2, [r1, #4]
10008206:	61e3      	str	r3, [r4, #28]
10008208:	4b4b      	ldr	r3, [pc, #300]	; (10008338 <clocks_init+0x2a4>)
1000820a:	6859      	ldr	r1, [r3, #4]
1000820c:	29ff      	cmp	r1, #255	; 0xff
1000820e:	d800      	bhi.n	10008212 <clocks_init+0x17e>
10008210:	605a      	str	r2, [r3, #4]
10008212:	2280      	movs	r2, #128	; 0x80
10008214:	4b49      	ldr	r3, [pc, #292]	; (1000833c <clocks_init+0x2a8>)
10008216:	6a21      	ldr	r1, [r4, #32]
10008218:	0112      	lsls	r2, r2, #4
1000821a:	4d47      	ldr	r5, [pc, #284]	; (10008338 <clocks_init+0x2a4>)
1000821c:	601a      	str	r2, [r3, #0]
1000821e:	2900      	cmp	r1, #0
10008220:	d005      	beq.n	1000822e <clocks_init+0x19a>
10008222:	6960      	ldr	r0, [r4, #20]
10008224:	f000 f990 	bl	10008548 <__wrap___aeabi_uidiv>
10008228:	3001      	adds	r0, #1
1000822a:	3801      	subs	r0, #1
1000822c:	d1fd      	bne.n	1000822a <clocks_init+0x196>
1000822e:	22e0      	movs	r2, #224	; 0xe0
10008230:	4941      	ldr	r1, [pc, #260]	; (10008338 <clocks_init+0x2a4>)
10008232:	680b      	ldr	r3, [r1, #0]
10008234:	401a      	ands	r2, r3
10008236:	2380      	movs	r3, #128	; 0x80
10008238:	015b      	lsls	r3, r3, #5
1000823a:	432b      	orrs	r3, r5
1000823c:	601a      	str	r2, [r3, #0]
1000823e:	2380      	movs	r3, #128	; 0x80
10008240:	2280      	movs	r2, #128	; 0x80
10008242:	019b      	lsls	r3, r3, #6
10008244:	432b      	orrs	r3, r5
10008246:	0112      	lsls	r2, r2, #4
10008248:	601a      	str	r2, [r3, #0]
1000824a:	2380      	movs	r3, #128	; 0x80
1000824c:	2280      	movs	r2, #128	; 0x80
1000824e:	005b      	lsls	r3, r3, #1
10008250:	604b      	str	r3, [r1, #4]
10008252:	4b2a      	ldr	r3, [pc, #168]	; (100082fc <clocks_init+0x268>)
10008254:	02d2      	lsls	r2, r2, #11
10008256:	6223      	str	r3, [r4, #32]
10008258:	4b39      	ldr	r3, [pc, #228]	; (10008340 <clocks_init+0x2ac>)
1000825a:	6859      	ldr	r1, [r3, #4]
1000825c:	4291      	cmp	r1, r2
1000825e:	d200      	bcs.n	10008262 <clocks_init+0x1ce>
10008260:	605a      	str	r2, [r3, #4]
10008262:	2280      	movs	r2, #128	; 0x80
10008264:	4b37      	ldr	r3, [pc, #220]	; (10008344 <clocks_init+0x2b0>)
10008266:	6a61      	ldr	r1, [r4, #36]	; 0x24
10008268:	0112      	lsls	r2, r2, #4
1000826a:	4d35      	ldr	r5, [pc, #212]	; (10008340 <clocks_init+0x2ac>)
1000826c:	601a      	str	r2, [r3, #0]
1000826e:	2900      	cmp	r1, #0
10008270:	d005      	beq.n	1000827e <clocks_init+0x1ea>
10008272:	6960      	ldr	r0, [r4, #20]
10008274:	f000 f968 	bl	10008548 <__wrap___aeabi_uidiv>
10008278:	3001      	adds	r0, #1
1000827a:	3801      	subs	r0, #1
1000827c:	d1fd      	bne.n	1000827a <clocks_init+0x1e6>
1000827e:	22e0      	movs	r2, #224	; 0xe0
10008280:	492f      	ldr	r1, [pc, #188]	; (10008340 <clocks_init+0x2ac>)
10008282:	680b      	ldr	r3, [r1, #0]
10008284:	401a      	ands	r2, r3
10008286:	2380      	movs	r3, #128	; 0x80
10008288:	015b      	lsls	r3, r3, #5
1000828a:	432b      	orrs	r3, r5
1000828c:	601a      	str	r2, [r3, #0]
1000828e:	2380      	movs	r3, #128	; 0x80
10008290:	2280      	movs	r2, #128	; 0x80
10008292:	019b      	lsls	r3, r3, #6
10008294:	432b      	orrs	r3, r5
10008296:	0112      	lsls	r2, r2, #4
10008298:	601a      	str	r2, [r3, #0]
1000829a:	2380      	movs	r3, #128	; 0x80
1000829c:	02db      	lsls	r3, r3, #11
1000829e:	604b      	str	r3, [r1, #4]
100082a0:	4b17      	ldr	r3, [pc, #92]	; (10008300 <clocks_init+0x26c>)
100082a2:	6263      	str	r3, [r4, #36]	; 0x24
100082a4:	4b28      	ldr	r3, [pc, #160]	; (10008348 <clocks_init+0x2b4>)
100082a6:	685a      	ldr	r2, [r3, #4]
100082a8:	2aff      	cmp	r2, #255	; 0xff
100082aa:	d802      	bhi.n	100082b2 <clocks_init+0x21e>
100082ac:	2280      	movs	r2, #128	; 0x80
100082ae:	0052      	lsls	r2, r2, #1
100082b0:	605a      	str	r2, [r3, #4]
100082b2:	2280      	movs	r2, #128	; 0x80
100082b4:	4b25      	ldr	r3, [pc, #148]	; (1000834c <clocks_init+0x2b8>)
100082b6:	69a1      	ldr	r1, [r4, #24]
100082b8:	0112      	lsls	r2, r2, #4
100082ba:	4d23      	ldr	r5, [pc, #140]	; (10008348 <clocks_init+0x2b4>)
100082bc:	601a      	str	r2, [r3, #0]
100082be:	2900      	cmp	r1, #0
100082c0:	d005      	beq.n	100082ce <clocks_init+0x23a>
100082c2:	6960      	ldr	r0, [r4, #20]
100082c4:	f000 f940 	bl	10008548 <__wrap___aeabi_uidiv>
100082c8:	3001      	adds	r0, #1
100082ca:	3801      	subs	r0, #1
100082cc:	d1fd      	bne.n	100082ca <clocks_init+0x236>
100082ce:	22e0      	movs	r2, #224	; 0xe0
100082d0:	491d      	ldr	r1, [pc, #116]	; (10008348 <clocks_init+0x2b4>)
100082d2:	680b      	ldr	r3, [r1, #0]
100082d4:	401a      	ands	r2, r3
100082d6:	2380      	movs	r3, #128	; 0x80
100082d8:	015b      	lsls	r3, r3, #5
100082da:	432b      	orrs	r3, r5
100082dc:	601a      	str	r2, [r3, #0]
100082de:	2380      	movs	r3, #128	; 0x80
100082e0:	2280      	movs	r2, #128	; 0x80
100082e2:	019b      	lsls	r3, r3, #6
100082e4:	432b      	orrs	r3, r5
100082e6:	0112      	lsls	r2, r2, #4
100082e8:	601a      	str	r2, [r3, #0]
100082ea:	2380      	movs	r3, #128	; 0x80
100082ec:	005b      	lsls	r3, r3, #1
100082ee:	604b      	str	r3, [r1, #4]
100082f0:	4b0e      	ldr	r3, [pc, #56]	; (1000832c <clocks_init+0x298>)
100082f2:	61a3      	str	r3, [r4, #24]
100082f4:	e6e4      	b.n	100080c0 <clocks_init+0x2c>
100082f6:	46c0      	nop			; (mov r8, r8)
100082f8:	2000129c 	.word	0x2000129c
100082fc:	02dc6c00 	.word	0x02dc6c00
10008300:	0000b71b 	.word	0x0000b71b
10008304:	40008000 	.word	0x40008000
10008308:	4000b03c 	.word	0x4000b03c
1000830c:	4000b030 	.word	0x4000b030
10008310:	59682f00 	.word	0x59682f00
10008314:	40028000 	.word	0x40028000
10008318:	47868c00 	.word	0x47868c00
1000831c:	4002c000 	.word	0x4002c000
10008320:	40008030 	.word	0x40008030
10008324:	00b71b00 	.word	0x00b71b00
10008328:	4000803c 	.word	0x4000803c
1000832c:	07735940 	.word	0x07735940
10008330:	40008054 	.word	0x40008054
10008334:	4000b054 	.word	0x4000b054
10008338:	40008060 	.word	0x40008060
1000833c:	4000b060 	.word	0x4000b060
10008340:	4000806c 	.word	0x4000806c
10008344:	4000b06c 	.word	0x4000b06c
10008348:	40008048 	.word	0x40008048
1000834c:	4000b048 	.word	0x4000b048

10008350 <clock_get_hz>:
10008350:	4b01      	ldr	r3, [pc, #4]	; (10008358 <clock_get_hz+0x8>)
10008352:	0080      	lsls	r0, r0, #2
10008354:	58c0      	ldr	r0, [r0, r3]
10008356:	4770      	bx	lr
10008358:	2000129c 	.word	0x2000129c

1000835c <pll_init>:
1000835c:	b5f0      	push	{r4, r5, r6, r7, lr}
1000835e:	46c6      	mov	lr, r8
10008360:	0004      	movs	r4, r0
10008362:	b500      	push	{lr}
10008364:	200c      	movs	r0, #12
10008366:	4690      	mov	r8, r2
10008368:	001f      	movs	r7, r3
1000836a:	000e      	movs	r6, r1
1000836c:	f000 f8ec 	bl	10008548 <__wrap___aeabi_uidiv>
10008370:	0141      	lsls	r1, r0, #5
10008372:	1a09      	subs	r1, r1, r0
10008374:	018d      	lsls	r5, r1, #6
10008376:	1a69      	subs	r1, r5, r1
10008378:	00c9      	lsls	r1, r1, #3
1000837a:	1809      	adds	r1, r1, r0
1000837c:	0189      	lsls	r1, r1, #6
1000837e:	4640      	mov	r0, r8
10008380:	f000 f8e2 	bl	10008548 <__wrap___aeabi_uidiv>
10008384:	9b06      	ldr	r3, [sp, #24]
10008386:	043f      	lsls	r7, r7, #16
10008388:	031a      	lsls	r2, r3, #12
1000838a:	6823      	ldr	r3, [r4, #0]
1000838c:	4317      	orrs	r7, r2
1000838e:	2b00      	cmp	r3, #0
10008390:	db22      	blt.n	100083d8 <pll_init+0x7c>
10008392:	4b1a      	ldr	r3, [pc, #104]	; (100083fc <pll_init+0xa0>)
10008394:	4d1a      	ldr	r5, [pc, #104]	; (10008400 <pll_init+0xa4>)
10008396:	18e2      	adds	r2, r4, r3
10008398:	4253      	negs	r3, r2
1000839a:	415a      	adcs	r2, r3
1000839c:	2380      	movs	r3, #128	; 0x80
1000839e:	015b      	lsls	r3, r3, #5
100083a0:	469c      	mov	ip, r3
100083a2:	0312      	lsls	r2, r2, #12
100083a4:	4b17      	ldr	r3, [pc, #92]	; (10008404 <pll_init+0xa8>)
100083a6:	4462      	add	r2, ip
100083a8:	601a      	str	r2, [r3, #0]
100083aa:	4b17      	ldr	r3, [pc, #92]	; (10008408 <pll_init+0xac>)
100083ac:	601a      	str	r2, [r3, #0]
100083ae:	0011      	movs	r1, r2
100083b0:	68ab      	ldr	r3, [r5, #8]
100083b2:	4399      	bics	r1, r3
100083b4:	d1fb      	bne.n	100083ae <pll_init+0x52>
100083b6:	22c0      	movs	r2, #192	; 0xc0
100083b8:	1d23      	adds	r3, r4, #4
100083ba:	0192      	lsls	r2, r2, #6
100083bc:	431a      	orrs	r2, r3
100083be:	2321      	movs	r3, #33	; 0x21
100083c0:	6026      	str	r6, [r4, #0]
100083c2:	60a0      	str	r0, [r4, #8]
100083c4:	6013      	str	r3, [r2, #0]
100083c6:	6823      	ldr	r3, [r4, #0]
100083c8:	2b00      	cmp	r3, #0
100083ca:	dafc      	bge.n	100083c6 <pll_init+0x6a>
100083cc:	2308      	movs	r3, #8
100083ce:	60e7      	str	r7, [r4, #12]
100083d0:	6013      	str	r3, [r2, #0]
100083d2:	bc80      	pop	{r7}
100083d4:	46b8      	mov	r8, r7
100083d6:	bdf0      	pop	{r4, r5, r6, r7, pc}
100083d8:	233f      	movs	r3, #63	; 0x3f
100083da:	6822      	ldr	r2, [r4, #0]
100083dc:	4013      	ands	r3, r2
100083de:	42b3      	cmp	r3, r6
100083e0:	d1d7      	bne.n	10008392 <pll_init+0x36>
100083e2:	68a3      	ldr	r3, [r4, #8]
100083e4:	051b      	lsls	r3, r3, #20
100083e6:	0d1b      	lsrs	r3, r3, #20
100083e8:	4283      	cmp	r3, r0
100083ea:	d1d2      	bne.n	10008392 <pll_init+0x36>
100083ec:	22ee      	movs	r2, #238	; 0xee
100083ee:	68e3      	ldr	r3, [r4, #12]
100083f0:	02d2      	lsls	r2, r2, #11
100083f2:	4013      	ands	r3, r2
100083f4:	42bb      	cmp	r3, r7
100083f6:	d1cc      	bne.n	10008392 <pll_init+0x36>
100083f8:	e7eb      	b.n	100083d2 <pll_init+0x76>
100083fa:	46c0      	nop			; (mov r8, r8)
100083fc:	bffd4000 	.word	0xbffd4000
10008400:	4000c000 	.word	0x4000c000
10008404:	4000e000 	.word	0x4000e000
10008408:	4000f000 	.word	0x4000f000

1000840c <watchdog_start_tick>:
1000840c:	2380      	movs	r3, #128	; 0x80
1000840e:	4a02      	ldr	r2, [pc, #8]	; (10008418 <watchdog_start_tick+0xc>)
10008410:	009b      	lsls	r3, r3, #2
10008412:	4303      	orrs	r3, r0
10008414:	62d3      	str	r3, [r2, #44]	; 0x2c
10008416:	4770      	bx	lr
10008418:	40058000 	.word	0x40058000

1000841c <xosc_init>:
1000841c:	23aa      	movs	r3, #170	; 0xaa
1000841e:	4a06      	ldr	r2, [pc, #24]	; (10008438 <xosc_init+0x1c>)
10008420:	011b      	lsls	r3, r3, #4
10008422:	6013      	str	r3, [r2, #0]
10008424:	232f      	movs	r3, #47	; 0x2f
10008426:	4905      	ldr	r1, [pc, #20]	; (1000843c <xosc_init+0x20>)
10008428:	60d3      	str	r3, [r2, #12]
1000842a:	4b05      	ldr	r3, [pc, #20]	; (10008440 <xosc_init+0x24>)
1000842c:	6019      	str	r1, [r3, #0]
1000842e:	6853      	ldr	r3, [r2, #4]
10008430:	2b00      	cmp	r3, #0
10008432:	dafc      	bge.n	1000842e <xosc_init+0x12>
10008434:	4770      	bx	lr
10008436:	46c0      	nop			; (mov r8, r8)
10008438:	40024000 	.word	0x40024000
1000843c:	00fab000 	.word	0x00fab000
10008440:	40026000 	.word	0x40026000

10008444 <_out_char>:
10008444:	b510      	push	{r4, lr}
10008446:	2800      	cmp	r0, #0
10008448:	d100      	bne.n	1000844c <_out_char+0x8>
1000844a:	bd10      	pop	{r4, pc}
1000844c:	f000 fabe 	bl	100089cc <__wrap_putchar>
10008450:	e7fb      	b.n	1000844a <_out_char+0x6>
10008452:	46c0      	nop			; (mov r8, r8)

10008454 <weak_raw_vprintf>:
10008454:	b510      	push	{r4, lr}
10008456:	4a09      	ldr	r2, [pc, #36]	; (1000847c <weak_raw_vprintf+0x28>)
10008458:	0003      	movs	r3, r0
1000845a:	6814      	ldr	r4, [r2, #0]
1000845c:	b084      	sub	sp, #16
1000845e:	2c00      	cmp	r4, #0
10008460:	d008      	beq.n	10008474 <weak_raw_vprintf+0x20>
10008462:	2201      	movs	r2, #1
10008464:	9100      	str	r1, [sp, #0]
10008466:	4806      	ldr	r0, [pc, #24]	; (10008480 <weak_raw_vprintf+0x2c>)
10008468:	4252      	negs	r2, r2
1000846a:	a903      	add	r1, sp, #12
1000846c:	47a0      	blx	r4
1000846e:	2001      	movs	r0, #1
10008470:	b004      	add	sp, #16
10008472:	bd10      	pop	{r4, pc}
10008474:	f000 fafa 	bl	10008a6c <__wrap_puts>
10008478:	2000      	movs	r0, #0
1000847a:	e7f9      	b.n	10008470 <weak_raw_vprintf+0x1c>
1000847c:	20001310 	.word	0x20001310
10008480:	10008445 	.word	0x10008445

10008484 <__aeabi_bits_init>:
10008484:	4801      	ldr	r0, [pc, #4]	; (1000848c <__aeabi_bits_init+0x8>)
10008486:	2104      	movs	r1, #4
10008488:	4b01      	ldr	r3, [pc, #4]	; (10008490 <__aeabi_bits_init+0xc>)
1000848a:	4718      	bx	r3
1000848c:	200005a0 	.word	0x200005a0
10008490:	100084b5 	.word	0x100084b5

10008494 <rom_func_lookup>:
10008494:	2314      	movs	r3, #20
10008496:	b510      	push	{r4, lr}
10008498:	0001      	movs	r1, r0
1000849a:	8818      	ldrh	r0, [r3, #0]
1000849c:	3304      	adds	r3, #4
1000849e:	881b      	ldrh	r3, [r3, #0]
100084a0:	4798      	blx	r3
100084a2:	bd10      	pop	{r4, pc}

100084a4 <rom_data_lookup>:
100084a4:	2316      	movs	r3, #22
100084a6:	b510      	push	{r4, lr}
100084a8:	0001      	movs	r1, r0
100084aa:	8818      	ldrh	r0, [r3, #0]
100084ac:	3302      	adds	r3, #2
100084ae:	881b      	ldrh	r3, [r3, #0]
100084b0:	4798      	blx	r3
100084b2:	bd10      	pop	{r4, pc}

100084b4 <rom_funcs_lookup>:
100084b4:	b5f8      	push	{r3, r4, r5, r6, r7, lr}
100084b6:	4647      	mov	r7, r8
100084b8:	46ce      	mov	lr, r9
100084ba:	b580      	push	{r7, lr}
100084bc:	1e0f      	subs	r7, r1, #0
100084be:	d019      	beq.n	100084f4 <rom_funcs_lookup+0x40>
100084c0:	2314      	movs	r3, #20
100084c2:	4699      	mov	r9, r3
100084c4:	3304      	adds	r3, #4
100084c6:	0004      	movs	r4, r0
100084c8:	2500      	movs	r5, #0
100084ca:	2601      	movs	r6, #1
100084cc:	4698      	mov	r8, r3
100084ce:	464b      	mov	r3, r9
100084d0:	8818      	ldrh	r0, [r3, #0]
100084d2:	4643      	mov	r3, r8
100084d4:	6821      	ldr	r1, [r4, #0]
100084d6:	881b      	ldrh	r3, [r3, #0]
100084d8:	4798      	blx	r3
100084da:	c401      	stmia	r4!, {r0}
100084dc:	1e43      	subs	r3, r0, #1
100084de:	4198      	sbcs	r0, r3
100084e0:	3501      	adds	r5, #1
100084e2:	4240      	negs	r0, r0
100084e4:	4006      	ands	r6, r0
100084e6:	42af      	cmp	r7, r5
100084e8:	d1f1      	bne.n	100084ce <rom_funcs_lookup+0x1a>
100084ea:	0030      	movs	r0, r6
100084ec:	bcc0      	pop	{r6, r7}
100084ee:	46b9      	mov	r9, r7
100084f0:	46b0      	mov	r8, r6
100084f2:	bdf8      	pop	{r3, r4, r5, r6, r7, pc}
100084f4:	2601      	movs	r6, #1
100084f6:	e7f8      	b.n	100084ea <rom_funcs_lookup+0x36>

100084f8 <__wrap___aeabi_idiv>:
100084f8:	4a12      	ldr	r2, [pc, #72]	; (10008544 <divmod_s32s32_savestate+0x18>)
100084fa:	6f93      	ldr	r3, [r2, #120]	; 0x78
100084fc:	089b      	lsrs	r3, r3, #2
100084fe:	d215      	bcs.n	1000852c <divmod_s32s32_savestate>

10008500 <divmod_s32s32_unsafe>:
10008500:	6690      	str	r0, [r2, #104]	; 0x68
10008502:	66d1      	str	r1, [r2, #108]	; 0x6c
10008504:	2900      	cmp	r1, #0
10008506:	d005      	beq.n	10008514 <divmod_s32s32_unsafe+0x14>
10008508:	e7ff      	b.n	1000850a <divmod_s32s32_unsafe+0xa>
1000850a:	e7ff      	b.n	1000850c <divmod_s32s32_unsafe+0xc>
1000850c:	e7ff      	b.n	1000850e <divmod_s32s32_unsafe+0xe>
1000850e:	6f51      	ldr	r1, [r2, #116]	; 0x74
10008510:	6f10      	ldr	r0, [r2, #112]	; 0x70
10008512:	4770      	bx	lr
10008514:	b504      	push	{r2, lr}
10008516:	2180      	movs	r1, #128	; 0x80
10008518:	0609      	lsls	r1, r1, #24
1000851a:	17c2      	asrs	r2, r0, #31
1000851c:	4051      	eors	r1, r2
1000851e:	2800      	cmp	r0, #0
10008520:	d000      	beq.n	10008524 <divmod_s32s32_unsafe+0x24>
10008522:	43c8      	mvns	r0, r1
10008524:	f000 fff4 	bl	10009510 <____aeabi_idiv0_veneer>
10008528:	2100      	movs	r1, #0
1000852a:	bd04      	pop	{r2, pc}

1000852c <divmod_s32s32_savestate>:
1000852c:	b5f0      	push	{r4, r5, r6, r7, lr}
1000852e:	6e14      	ldr	r4, [r2, #96]	; 0x60
10008530:	6e55      	ldr	r5, [r2, #100]	; 0x64
10008532:	6f57      	ldr	r7, [r2, #116]	; 0x74
10008534:	6f16      	ldr	r6, [r2, #112]	; 0x70
10008536:	f7ff ffe3 	bl	10008500 <divmod_s32s32_unsafe>
1000853a:	6614      	str	r4, [r2, #96]	; 0x60
1000853c:	6655      	str	r5, [r2, #100]	; 0x64
1000853e:	6757      	str	r7, [r2, #116]	; 0x74
10008540:	6716      	str	r6, [r2, #112]	; 0x70
10008542:	bdf0      	pop	{r4, r5, r6, r7, pc}
10008544:	d0000000 	.word	0xd0000000

10008548 <__wrap___aeabi_uidiv>:
10008548:	4a11      	ldr	r2, [pc, #68]	; (10008590 <divmod_u32u32_savestate+0x18>)
1000854a:	6f93      	ldr	r3, [r2, #120]	; 0x78
1000854c:	089b      	lsrs	r3, r3, #2
1000854e:	d213      	bcs.n	10008578 <divmod_u32u32_savestate>

10008550 <divmod_u32u32_unsafe>:
10008550:	6610      	str	r0, [r2, #96]	; 0x60
10008552:	6651      	str	r1, [r2, #100]	; 0x64
10008554:	2900      	cmp	r1, #0
10008556:	d005      	beq.n	10008564 <divmod_u32u32_unsafe+0x14>
10008558:	e7ff      	b.n	1000855a <divmod_u32u32_unsafe+0xa>
1000855a:	e7ff      	b.n	1000855c <divmod_u32u32_unsafe+0xc>
1000855c:	e7ff      	b.n	1000855e <divmod_u32u32_unsafe+0xe>
1000855e:	6f51      	ldr	r1, [r2, #116]	; 0x74
10008560:	6f10      	ldr	r0, [r2, #112]	; 0x70
10008562:	4770      	bx	lr
10008564:	b504      	push	{r2, lr}
10008566:	2800      	cmp	r0, #0
10008568:	d001      	beq.n	1000856e <divmod_u32u32_unsafe+0x1e>
1000856a:	2000      	movs	r0, #0
1000856c:	43c0      	mvns	r0, r0
1000856e:	f000 ffcf 	bl	10009510 <____aeabi_idiv0_veneer>
10008572:	2100      	movs	r1, #0
10008574:	bd04      	pop	{r2, pc}
10008576:	46c0      	nop			; (mov r8, r8)

10008578 <divmod_u32u32_savestate>:
10008578:	b5f0      	push	{r4, r5, r6, r7, lr}
1000857a:	6e14      	ldr	r4, [r2, #96]	; 0x60
1000857c:	6e55      	ldr	r5, [r2, #100]	; 0x64
1000857e:	6f57      	ldr	r7, [r2, #116]	; 0x74
10008580:	6f16      	ldr	r6, [r2, #112]	; 0x70
10008582:	f7ff ffe5 	bl	10008550 <divmod_u32u32_unsafe>
10008586:	6614      	str	r4, [r2, #96]	; 0x60
10008588:	6655      	str	r5, [r2, #100]	; 0x64
1000858a:	6757      	str	r7, [r2, #116]	; 0x74
1000858c:	6716      	str	r6, [r2, #112]	; 0x70
1000858e:	bdf0      	pop	{r4, r5, r6, r7, pc}
10008590:	d0000000 	.word	0xd0000000

10008594 <__aeabi_double_init>:
10008594:	2313      	movs	r3, #19
10008596:	b570      	push	{r4, r5, r6, lr}
10008598:	781d      	ldrb	r5, [r3, #0]
1000859a:	2d01      	cmp	r5, #1
1000859c:	d015      	beq.n	100085ca <__aeabi_double_init+0x36>
1000859e:	dd10      	ble.n	100085c2 <__aeabi_double_init+0x2e>
100085a0:	481c      	ldr	r0, [pc, #112]	; (10008614 <__aeabi_double_init+0x80>)
100085a2:	f7ff ff7f 	bl	100084a4 <rom_data_lookup>
100085a6:	4c1c      	ldr	r4, [pc, #112]	; (10008618 <__aeabi_double_init+0x84>)
100085a8:	0001      	movs	r1, r0
100085aa:	2280      	movs	r2, #128	; 0x80
100085ac:	0020      	movs	r0, r4
100085ae:	f000 f923 	bl	100087f8 <__wrap___aeabi_memcpy>
100085b2:	2d02      	cmp	r5, #2
100085b4:	d006      	beq.n	100085c4 <__aeabi_double_init+0x30>
100085b6:	4819      	ldr	r0, [pc, #100]	; (1000861c <__aeabi_double_init+0x88>)
100085b8:	f7ff ff6c 	bl	10008494 <rom_func_lookup>
100085bc:	4b18      	ldr	r3, [pc, #96]	; (10008620 <__aeabi_double_init+0x8c>)
100085be:	6018      	str	r0, [r3, #0]
100085c0:	bd70      	pop	{r4, r5, r6, pc}
100085c2:	4c15      	ldr	r4, [pc, #84]	; (10008618 <__aeabi_double_init+0x84>)
100085c4:	4b17      	ldr	r3, [pc, #92]	; (10008624 <__aeabi_double_init+0x90>)
100085c6:	64a3      	str	r3, [r4, #72]	; 0x48
100085c8:	e7f5      	b.n	100085b6 <__aeabi_double_init+0x22>
100085ca:	4b16      	ldr	r3, [pc, #88]	; (10008624 <__aeabi_double_init+0x90>)
100085cc:	4c12      	ldr	r4, [pc, #72]	; (10008618 <__aeabi_double_init+0x84>)
100085ce:	6023      	str	r3, [r4, #0]
100085d0:	6063      	str	r3, [r4, #4]
100085d2:	60a3      	str	r3, [r4, #8]
100085d4:	60e3      	str	r3, [r4, #12]
100085d6:	6123      	str	r3, [r4, #16]
100085d8:	6163      	str	r3, [r4, #20]
100085da:	61a3      	str	r3, [r4, #24]
100085dc:	61e3      	str	r3, [r4, #28]
100085de:	6223      	str	r3, [r4, #32]
100085e0:	6263      	str	r3, [r4, #36]	; 0x24
100085e2:	62a3      	str	r3, [r4, #40]	; 0x28
100085e4:	62e3      	str	r3, [r4, #44]	; 0x2c
100085e6:	6323      	str	r3, [r4, #48]	; 0x30
100085e8:	6363      	str	r3, [r4, #52]	; 0x34
100085ea:	63a3      	str	r3, [r4, #56]	; 0x38
100085ec:	63e3      	str	r3, [r4, #60]	; 0x3c
100085ee:	6423      	str	r3, [r4, #64]	; 0x40
100085f0:	6463      	str	r3, [r4, #68]	; 0x44
100085f2:	64a3      	str	r3, [r4, #72]	; 0x48
100085f4:	64e3      	str	r3, [r4, #76]	; 0x4c
100085f6:	6523      	str	r3, [r4, #80]	; 0x50
100085f8:	6563      	str	r3, [r4, #84]	; 0x54
100085fa:	65a3      	str	r3, [r4, #88]	; 0x58
100085fc:	65e3      	str	r3, [r4, #92]	; 0x5c
100085fe:	6623      	str	r3, [r4, #96]	; 0x60
10008600:	6663      	str	r3, [r4, #100]	; 0x64
10008602:	66a3      	str	r3, [r4, #104]	; 0x68
10008604:	66e3      	str	r3, [r4, #108]	; 0x6c
10008606:	6723      	str	r3, [r4, #112]	; 0x70
10008608:	6763      	str	r3, [r4, #116]	; 0x74
1000860a:	67a3      	str	r3, [r4, #120]	; 0x78
1000860c:	67e3      	str	r3, [r4, #124]	; 0x7c
1000860e:	64a3      	str	r3, [r4, #72]	; 0x48
10008610:	e7d1      	b.n	100085b6 <__aeabi_double_init+0x22>
10008612:	46c0      	nop			; (mov r8, r8)
10008614:	00004453 	.word	0x00004453
10008618:	20000f28 	.word	0x20000f28
1000861c:	0000334c 	.word	0x0000334c
10008620:	2000132c 	.word	0x2000132c
10008624:	10008629 	.word	0x10008629

10008628 <double_table_shim_on_use_helper>:
10008628:	b507      	push	{r0, r1, r2, lr}
1000862a:	4660      	mov	r0, ip
1000862c:	8801      	ldrh	r1, [r0, #0]
1000862e:	0a0a      	lsrs	r2, r1, #8
10008630:	3002      	adds	r0, #2
10008632:	2adf      	cmp	r2, #223	; 0xdf
10008634:	d1fa      	bne.n	1000862c <double_table_shim_on_use_helper+0x4>
10008636:	b2c9      	uxtb	r1, r1
10008638:	0882      	lsrs	r2, r0, #2
1000863a:	d304      	bcc.n	10008646 <double_table_shim_on_use_helper+0x1e>
1000863c:	8802      	ldrh	r2, [r0, #0]
1000863e:	8840      	ldrh	r0, [r0, #2]
10008640:	0400      	lsls	r0, r0, #16
10008642:	4310      	orrs	r0, r2
10008644:	e000      	b.n	10008648 <double_table_shim_on_use_helper+0x20>
10008646:	6800      	ldr	r0, [r0, #0]
10008648:	4a01      	ldr	r2, [pc, #4]	; (10008650 <double_table_shim_on_use_helper+0x28>)
1000864a:	5050      	str	r0, [r2, r1]
1000864c:	9003      	str	r0, [sp, #12]
1000864e:	bd07      	pop	{r0, r1, r2, pc}
10008650:	20000f28 	.word	0x20000f28

10008654 <__wrap___aeabi_lmul>:
10008654:	4351      	muls	r1, r2
10008656:	4343      	muls	r3, r0
10008658:	18c9      	adds	r1, r1, r3
1000865a:	468c      	mov	ip, r1
1000865c:	0c11      	lsrs	r1, r2, #16
1000865e:	b283      	uxth	r3, r0
10008660:	434b      	muls	r3, r1
10008662:	b410      	push	{r4}
10008664:	0c04      	lsrs	r4, r0, #16
10008666:	4361      	muls	r1, r4
10008668:	b292      	uxth	r2, r2
1000866a:	b280      	uxth	r0, r0
1000866c:	4350      	muls	r0, r2
1000866e:	4362      	muls	r2, r4
10008670:	041c      	lsls	r4, r3, #16
10008672:	0c1b      	lsrs	r3, r3, #16
10008674:	1900      	adds	r0, r0, r4
10008676:	bc10      	pop	{r4}
10008678:	4159      	adcs	r1, r3
1000867a:	0413      	lsls	r3, r2, #16
1000867c:	0c12      	lsrs	r2, r2, #16
1000867e:	18c0      	adds	r0, r0, r3
10008680:	4151      	adcs	r1, r2
10008682:	4461      	add	r1, ip
10008684:	4770      	bx	lr
	...

10008688 <__wrap___aeabi_frsub>:
10008688:	4048      	eors	r0, r1
1000868a:	4041      	eors	r1, r0
1000868c:	4048      	eors	r0, r1

1000868e <__wrap___aeabi_fsub>:
1000868e:	4b0e      	ldr	r3, [pc, #56]	; (100086c8 <__wrap___aeabi_fmul+0x6>)
10008690:	685b      	ldr	r3, [r3, #4]
10008692:	4718      	bx	r3

10008694 <__wrap___aeabi_fadd>:
10008694:	4b0c      	ldr	r3, [pc, #48]	; (100086c8 <__wrap___aeabi_fmul+0x6>)
10008696:	681b      	ldr	r3, [r3, #0]
10008698:	4718      	bx	r3

1000869a <__wrap___aeabi_fdiv>:
1000869a:	4a0c      	ldr	r2, [pc, #48]	; (100086cc <__wrap___aeabi_fmul+0xa>)
1000869c:	6f93      	ldr	r3, [r2, #120]	; 0x78
1000869e:	089b      	lsrs	r3, r3, #2
100086a0:	d202      	bcs.n	100086a8 <fdiv_save_state>

100086a2 <fdiv_shim_call>:
100086a2:	4b09      	ldr	r3, [pc, #36]	; (100086c8 <__wrap___aeabi_fmul+0x6>)
100086a4:	68db      	ldr	r3, [r3, #12]
100086a6:	4718      	bx	r3

100086a8 <fdiv_save_state>:
100086a8:	b5f0      	push	{r4, r5, r6, r7, lr}
100086aa:	6e14      	ldr	r4, [r2, #96]	; 0x60
100086ac:	6e55      	ldr	r5, [r2, #100]	; 0x64
100086ae:	6f57      	ldr	r7, [r2, #116]	; 0x74
100086b0:	6f16      	ldr	r6, [r2, #112]	; 0x70
100086b2:	f7ff fff6 	bl	100086a2 <fdiv_shim_call>
100086b6:	4a05      	ldr	r2, [pc, #20]	; (100086cc <__wrap___aeabi_fmul+0xa>)
100086b8:	6614      	str	r4, [r2, #96]	; 0x60
100086ba:	6655      	str	r5, [r2, #100]	; 0x64
100086bc:	6757      	str	r7, [r2, #116]	; 0x74
100086be:	6716      	str	r6, [r2, #112]	; 0x70
100086c0:	bdf0      	pop	{r4, r5, r6, r7, pc}

100086c2 <__wrap___aeabi_fmul>:
100086c2:	4b01      	ldr	r3, [pc, #4]	; (100086c8 <__wrap___aeabi_fmul+0x6>)
100086c4:	689b      	ldr	r3, [r3, #8]
100086c6:	4718      	bx	r3
100086c8:	20001028 	.word	0x20001028
100086cc:	d0000000 	.word	0xd0000000

100086d0 <__wrap___aeabi_i2f>:
100086d0:	0fc1      	lsrs	r1, r0, #31
100086d2:	07c9      	lsls	r1, r1, #31
100086d4:	d500      	bpl.n	100086d8 <__wrap___aeabi_i2f+0x8>
100086d6:	4240      	negs	r0, r0
100086d8:	2800      	cmp	r0, #0
100086da:	d017      	beq.n	1000870c <__aeabi_i2f_main+0x30>

100086dc <__aeabi_i2f_main>:
100086dc:	46f4      	mov	ip, lr
100086de:	b403      	push	{r0, r1}
100086e0:	4b0b      	ldr	r3, [pc, #44]	; (10008710 <__aeabi_i2f_main+0x34>)
100086e2:	681b      	ldr	r3, [r3, #0]
100086e4:	4798      	blx	r3
100086e6:	bc06      	pop	{r1, r2}
100086e8:	4081      	lsls	r1, r0
100086ea:	389e      	subs	r0, #158	; 0x9e
100086ec:	4240      	negs	r0, r0
100086ee:	3180      	adds	r1, #128	; 0x80
100086f0:	d207      	bcs.n	10008702 <__aeabi_i2f_main+0x26>
100086f2:	060b      	lsls	r3, r1, #24
100086f4:	d007      	beq.n	10008706 <__aeabi_i2f_main+0x2a>
100086f6:	0049      	lsls	r1, r1, #1
100086f8:	0a49      	lsrs	r1, r1, #9
100086fa:	05c0      	lsls	r0, r0, #23
100086fc:	4310      	orrs	r0, r2
100086fe:	4308      	orrs	r0, r1
10008700:	4760      	bx	ip
10008702:	3001      	adds	r0, #1
10008704:	e7f8      	b.n	100086f8 <__aeabi_i2f_main+0x1c>
10008706:	0a49      	lsrs	r1, r1, #9
10008708:	0289      	lsls	r1, r1, #10
1000870a:	e7f5      	b.n	100086f8 <__aeabi_i2f_main+0x1c>
1000870c:	4770      	bx	lr
1000870e:	0000      	.short	0x0000
10008710:	2000132c 	.word	0x2000132c

10008714 <__wrap___aeabi_f2uiz>:
10008714:	4b01      	ldr	r3, [pc, #4]	; (1000871c <__wrap___aeabi_f2uiz+0x8>)
10008716:	6a5b      	ldr	r3, [r3, #36]	; 0x24
10008718:	4718      	bx	r3
1000871a:	0000      	.short	0x0000
1000871c:	20001028 	.word	0x20001028

10008720 <__aeabi_float_init>:
10008720:	2313      	movs	r3, #19
10008722:	b510      	push	{r4, lr}
10008724:	4812      	ldr	r0, [pc, #72]	; (10008770 <__aeabi_float_init+0x50>)
10008726:	781c      	ldrb	r4, [r3, #0]
10008728:	f7ff febc 	bl	100084a4 <rom_data_lookup>
1000872c:	0001      	movs	r1, r0
1000872e:	2c01      	cmp	r4, #1
10008730:	d00a      	beq.n	10008748 <__aeabi_float_init+0x28>
10008732:	dd03      	ble.n	1000873c <__aeabi_float_init+0x1c>
10008734:	2280      	movs	r2, #128	; 0x80
10008736:	480f      	ldr	r0, [pc, #60]	; (10008774 <__aeabi_float_init+0x54>)
10008738:	f000 f85e 	bl	100087f8 <__wrap___aeabi_memcpy>
1000873c:	480e      	ldr	r0, [pc, #56]	; (10008778 <__aeabi_float_init+0x58>)
1000873e:	f7ff fea9 	bl	10008494 <rom_func_lookup>
10008742:	4b0e      	ldr	r3, [pc, #56]	; (1000877c <__aeabi_float_init+0x5c>)
10008744:	6018      	str	r0, [r3, #0]
10008746:	bd10      	pop	{r4, pc}
10008748:	4c0a      	ldr	r4, [pc, #40]	; (10008774 <__aeabi_float_init+0x54>)
1000874a:	2254      	movs	r2, #84	; 0x54
1000874c:	0020      	movs	r0, r4
1000874e:	f000 f853 	bl	100087f8 <__wrap___aeabi_memcpy>
10008752:	4b0b      	ldr	r3, [pc, #44]	; (10008780 <__aeabi_float_init+0x60>)
10008754:	6563      	str	r3, [r4, #84]	; 0x54
10008756:	65a3      	str	r3, [r4, #88]	; 0x58
10008758:	65e3      	str	r3, [r4, #92]	; 0x5c
1000875a:	6623      	str	r3, [r4, #96]	; 0x60
1000875c:	6663      	str	r3, [r4, #100]	; 0x64
1000875e:	66a3      	str	r3, [r4, #104]	; 0x68
10008760:	66e3      	str	r3, [r4, #108]	; 0x6c
10008762:	6723      	str	r3, [r4, #112]	; 0x70
10008764:	6763      	str	r3, [r4, #116]	; 0x74
10008766:	67a3      	str	r3, [r4, #120]	; 0x78
10008768:	67e3      	str	r3, [r4, #124]	; 0x7c
1000876a:	6223      	str	r3, [r4, #32]
1000876c:	61e3      	str	r3, [r4, #28]
1000876e:	e7e5      	b.n	1000873c <__aeabi_float_init+0x1c>
10008770:	00004653 	.word	0x00004653
10008774:	20001028 	.word	0x20001028
10008778:	0000334c 	.word	0x0000334c
1000877c:	2000132c 	.word	0x2000132c
10008780:	10008785 	.word	0x10008785

10008784 <float_table_shim_on_use_helper>:
10008784:	b507      	push	{r0, r1, r2, lr}
10008786:	4660      	mov	r0, ip
10008788:	8801      	ldrh	r1, [r0, #0]
1000878a:	0a0a      	lsrs	r2, r1, #8
1000878c:	3002      	adds	r0, #2
1000878e:	2adf      	cmp	r2, #223	; 0xdf
10008790:	d1fa      	bne.n	10008788 <float_table_shim_on_use_helper+0x4>
10008792:	b2c9      	uxtb	r1, r1
10008794:	0882      	lsrs	r2, r0, #2
10008796:	d304      	bcc.n	100087a2 <float_table_shim_on_use_helper+0x1e>
10008798:	8802      	ldrh	r2, [r0, #0]
1000879a:	8840      	ldrh	r0, [r0, #2]
1000879c:	0400      	lsls	r0, r0, #16
1000879e:	4310      	orrs	r0, r2
100087a0:	e000      	b.n	100087a4 <float_table_shim_on_use_helper+0x20>
100087a2:	6800      	ldr	r0, [r0, #0]
100087a4:	4a01      	ldr	r2, [pc, #4]	; (100087ac <float_table_shim_on_use_helper+0x28>)
100087a6:	5050      	str	r0, [r2, r1]
100087a8:	9003      	str	r0, [sp, #12]
100087aa:	bd07      	pop	{r0, r1, r2, pc}
100087ac:	20001028 	.word	0x20001028

100087b0 <__wrap_malloc>:
100087b0:	b510      	push	{r4, lr}
100087b2:	0004      	movs	r4, r0
100087b4:	f000 fa50 	bl	10008c58 <malloc>
100087b8:	2800      	cmp	r0, #0
100087ba:	d004      	beq.n	100087c6 <__wrap_malloc+0x16>
100087bc:	4b03      	ldr	r3, [pc, #12]	; (100087cc <__wrap_malloc+0x1c>)
100087be:	1904      	adds	r4, r0, r4
100087c0:	429c      	cmp	r4, r3
100087c2:	d800      	bhi.n	100087c6 <__wrap_malloc+0x16>
100087c4:	bd10      	pop	{r4, pc}
100087c6:	4802      	ldr	r0, [pc, #8]	; (100087d0 <__wrap_malloc+0x20>)
100087c8:	f7ff fc46 	bl	10008058 <panic>
100087cc:	20040000 	.word	0x20040000
100087d0:	1000a410 	.word	0x1000a410

100087d4 <__wrap_free>:
100087d4:	b510      	push	{r4, lr}
100087d6:	f000 fa49 	bl	10008c6c <free>
100087da:	bd10      	pop	{r4, pc}

100087dc <__aeabi_mem_init>:
100087dc:	4801      	ldr	r0, [pc, #4]	; (100087e4 <__aeabi_mem_init+0x8>)
100087de:	2104      	movs	r1, #4
100087e0:	4b01      	ldr	r3, [pc, #4]	; (100087e8 <__aeabi_mem_init+0xc>)
100087e2:	4718      	bx	r3
100087e4:	200005b0 	.word	0x200005b0
100087e8:	100084b5 	.word	0x100084b5

100087ec <__wrap_memset>:
100087ec:	4b01      	ldr	r3, [pc, #4]	; (100087f4 <__wrap_memset+0x8>)
100087ee:	681b      	ldr	r3, [r3, #0]
100087f0:	4718      	bx	r3
100087f2:	0000      	.short	0x0000
100087f4:	200005b0 	.word	0x200005b0

100087f8 <__wrap___aeabi_memcpy>:
100087f8:	4b01      	ldr	r3, [pc, #4]	; (10008800 <__wrap___aeabi_memcpy+0x8>)
100087fa:	685b      	ldr	r3, [r3, #4]
100087fc:	4718      	bx	r3
100087fe:	0000      	.short	0x0000
10008800:	200005b0 	.word	0x200005b0

10008804 <_ZdlPvj>:
10008804:	b510      	push	{r4, lr}
10008806:	f7ff ffe5 	bl	100087d4 <__wrap_free>
1000880a:	bd10      	pop	{r4, pc}

1000880c <stdio_out_chars_no_crlf>:
1000880c:	0003      	movs	r3, r0
1000880e:	b510      	push	{r4, lr}
10008810:	0008      	movs	r0, r1
10008812:	0011      	movs	r1, r2
10008814:	681b      	ldr	r3, [r3, #0]
10008816:	4798      	blx	r3
10008818:	bd10      	pop	{r4, pc}
1000881a:	46c0      	nop			; (mov r8, r8)

1000881c <stdio_out_chars_crlf>:
1000881c:	b5f0      	push	{r4, r5, r6, r7, lr}
1000881e:	4646      	mov	r6, r8
10008820:	464f      	mov	r7, r9
10008822:	46d6      	mov	lr, sl
10008824:	b5c0      	push	{r6, r7, lr}
10008826:	7c43      	ldrb	r3, [r0, #17]
10008828:	4680      	mov	r8, r0
1000882a:	000e      	movs	r6, r1
1000882c:	0017      	movs	r7, r2
1000882e:	2b00      	cmp	r3, #0
10008830:	d046      	beq.n	100088c0 <stdio_out_chars_crlf+0xa4>
10008832:	2a00      	cmp	r2, #0
10008834:	dd3f      	ble.n	100088b6 <stdio_out_chars_crlf+0x9a>
10008836:	1e4b      	subs	r3, r1, #1
10008838:	4699      	mov	r9, r3
1000883a:	4b24      	ldr	r3, [pc, #144]	; (100088cc <stdio_out_chars_crlf+0xb0>)
1000883c:	2501      	movs	r5, #1
1000883e:	2400      	movs	r4, #0
10008840:	2000      	movs	r0, #0
10008842:	469a      	mov	sl, r3
10008844:	e00d      	b.n	10008862 <stdio_out_chars_crlf+0x46>
10008846:	464b      	mov	r3, r9
10008848:	5d1b      	ldrb	r3, [r3, r4]
1000884a:	3b0d      	subs	r3, #13
1000884c:	425a      	negs	r2, r3
1000884e:	4153      	adcs	r3, r2
10008850:	5d32      	ldrb	r2, [r6, r4]
10008852:	b2db      	uxtb	r3, r3
10008854:	2a0a      	cmp	r2, #10
10008856:	d00b      	beq.n	10008870 <stdio_out_chars_crlf+0x54>
10008858:	002b      	movs	r3, r5
1000885a:	3401      	adds	r4, #1
1000885c:	3501      	adds	r5, #1
1000885e:	429f      	cmp	r7, r3
10008860:	dd1a      	ble.n	10008898 <stdio_out_chars_crlf+0x7c>
10008862:	2c00      	cmp	r4, #0
10008864:	d1ef      	bne.n	10008846 <stdio_out_chars_crlf+0x2a>
10008866:	4643      	mov	r3, r8
10008868:	5d32      	ldrb	r2, [r6, r4]
1000886a:	7c1b      	ldrb	r3, [r3, #16]
1000886c:	2a0a      	cmp	r2, #10
1000886e:	d1f3      	bne.n	10008858 <stdio_out_chars_crlf+0x3c>
10008870:	2b00      	cmp	r3, #0
10008872:	d1f1      	bne.n	10008858 <stdio_out_chars_crlf+0x3c>
10008874:	42a0      	cmp	r0, r4
10008876:	da04      	bge.n	10008882 <stdio_out_chars_crlf+0x66>
10008878:	4643      	mov	r3, r8
1000887a:	1a21      	subs	r1, r4, r0
1000887c:	681b      	ldr	r3, [r3, #0]
1000887e:	1830      	adds	r0, r6, r0
10008880:	4798      	blx	r3
10008882:	4643      	mov	r3, r8
10008884:	4650      	mov	r0, sl
10008886:	681b      	ldr	r3, [r3, #0]
10008888:	2102      	movs	r1, #2
1000888a:	4798      	blx	r3
1000888c:	3401      	adds	r4, #1
1000888e:	0028      	movs	r0, r5
10008890:	002b      	movs	r3, r5
10008892:	3501      	adds	r5, #1
10008894:	429f      	cmp	r7, r3
10008896:	dce4      	bgt.n	10008862 <stdio_out_chars_crlf+0x46>
10008898:	4287      	cmp	r7, r0
1000889a:	dd04      	ble.n	100088a6 <stdio_out_chars_crlf+0x8a>
1000889c:	4643      	mov	r3, r8
1000889e:	1a39      	subs	r1, r7, r0
100088a0:	681b      	ldr	r3, [r3, #0]
100088a2:	1830      	adds	r0, r6, r0
100088a4:	4798      	blx	r3
100088a6:	19f6      	adds	r6, r6, r7
100088a8:	3e01      	subs	r6, #1
100088aa:	7833      	ldrb	r3, [r6, #0]
100088ac:	3b0d      	subs	r3, #13
100088ae:	425a      	negs	r2, r3
100088b0:	4153      	adcs	r3, r2
100088b2:	4642      	mov	r2, r8
100088b4:	7413      	strb	r3, [r2, #16]
100088b6:	bce0      	pop	{r5, r6, r7}
100088b8:	46ba      	mov	sl, r7
100088ba:	46b1      	mov	r9, r6
100088bc:	46a8      	mov	r8, r5
100088be:	bdf0      	pop	{r4, r5, r6, r7, pc}
100088c0:	6803      	ldr	r3, [r0, #0]
100088c2:	0011      	movs	r1, r2
100088c4:	0030      	movs	r0, r6
100088c6:	4798      	blx	r3
100088c8:	e7f5      	b.n	100088b6 <stdio_out_chars_crlf+0x9a>
100088ca:	46c0      	nop			; (mov r8, r8)
100088cc:	1000a480 	.word	0x1000a480

100088d0 <stdio_put_string.isra.0>:
100088d0:	b5f0      	push	{r4, r5, r6, r7, lr}
100088d2:	4657      	mov	r7, sl
100088d4:	464e      	mov	r6, r9
100088d6:	4645      	mov	r5, r8
100088d8:	46de      	mov	lr, fp
100088da:	001c      	movs	r4, r3
100088dc:	23d0      	movs	r3, #208	; 0xd0
100088de:	b5e0      	push	{r5, r6, r7, lr}
100088e0:	061b      	lsls	r3, r3, #24
100088e2:	681f      	ldr	r7, [r3, #0]
100088e4:	4b34      	ldr	r3, [pc, #208]	; (100089b8 <stdio_put_string.isra.0+0xe8>)
100088e6:	b083      	sub	sp, #12
100088e8:	0006      	movs	r6, r0
100088ea:	000d      	movs	r5, r1
100088ec:	0018      	movs	r0, r3
100088ee:	a901      	add	r1, sp, #4
100088f0:	4691      	mov	r9, r2
100088f2:	469a      	mov	sl, r3
100088f4:	f000 fe14 	bl	10009520 <__mutex_try_enter_veneer>
100088f8:	4680      	mov	r8, r0
100088fa:	2800      	cmp	r0, #0
100088fc:	d108      	bne.n	10008910 <stdio_put_string.isra.0+0x40>
100088fe:	9b01      	ldr	r3, [sp, #4]
10008900:	b27f      	sxtb	r7, r7
10008902:	429f      	cmp	r7, r3
10008904:	d004      	beq.n	10008910 <stdio_put_string.isra.0+0x40>
10008906:	4650      	mov	r0, sl
10008908:	f000 fe32 	bl	10009570 <__mutex_enter_blocking_veneer>
1000890c:	2301      	movs	r3, #1
1000890e:	4698      	mov	r8, r3
10008910:	1c6b      	adds	r3, r5, #1
10008912:	d103      	bne.n	1000891c <stdio_put_string.isra.0+0x4c>
10008914:	0030      	movs	r0, r6
10008916:	f000 fc83 	bl	10009220 <strlen>
1000891a:	0005      	movs	r5, r0
1000891c:	2c00      	cmp	r4, #0
1000891e:	d127      	bne.n	10008970 <stdio_put_string.isra.0+0xa0>
10008920:	4f26      	ldr	r7, [pc, #152]	; (100089bc <stdio_put_string.isra.0+0xec>)
10008922:	4b27      	ldr	r3, [pc, #156]	; (100089c0 <stdio_put_string.isra.0+0xf0>)
10008924:	681c      	ldr	r4, [r3, #0]
10008926:	2c00      	cmp	r4, #0
10008928:	d018      	beq.n	1000895c <stdio_put_string.isra.0+0x8c>
1000892a:	464b      	mov	r3, r9
1000892c:	2b00      	cmp	r3, #0
1000892e:	d121      	bne.n	10008974 <stdio_put_string.isra.0+0xa4>
10008930:	4b24      	ldr	r3, [pc, #144]	; (100089c4 <stdio_put_string.isra.0+0xf4>)
10008932:	4699      	mov	r9, r3
10008934:	e002      	b.n	1000893c <stdio_put_string.isra.0+0x6c>
10008936:	68e4      	ldr	r4, [r4, #12]
10008938:	2c00      	cmp	r4, #0
1000893a:	d00f      	beq.n	1000895c <stdio_put_string.isra.0+0x8c>
1000893c:	6823      	ldr	r3, [r4, #0]
1000893e:	2b00      	cmp	r3, #0
10008940:	d0f9      	beq.n	10008936 <stdio_put_string.isra.0+0x66>
10008942:	464b      	mov	r3, r9
10008944:	681b      	ldr	r3, [r3, #0]
10008946:	2b00      	cmp	r3, #0
10008948:	d001      	beq.n	1000894e <stdio_put_string.isra.0+0x7e>
1000894a:	42a3      	cmp	r3, r4
1000894c:	d1f3      	bne.n	10008936 <stdio_put_string.isra.0+0x66>
1000894e:	0020      	movs	r0, r4
10008950:	002a      	movs	r2, r5
10008952:	0031      	movs	r1, r6
10008954:	47b8      	blx	r7
10008956:	68e4      	ldr	r4, [r4, #12]
10008958:	2c00      	cmp	r4, #0
1000895a:	d1ef      	bne.n	1000893c <stdio_put_string.isra.0+0x6c>
1000895c:	4643      	mov	r3, r8
1000895e:	2b00      	cmp	r3, #0
10008960:	d125      	bne.n	100089ae <stdio_put_string.isra.0+0xde>
10008962:	b003      	add	sp, #12
10008964:	bcf0      	pop	{r4, r5, r6, r7}
10008966:	46bb      	mov	fp, r7
10008968:	46b2      	mov	sl, r6
1000896a:	46a9      	mov	r9, r5
1000896c:	46a0      	mov	r8, r4
1000896e:	bdf0      	pop	{r4, r5, r6, r7, pc}
10008970:	4f15      	ldr	r7, [pc, #84]	; (100089c8 <stdio_put_string.isra.0+0xf8>)
10008972:	e7d6      	b.n	10008922 <stdio_put_string.isra.0+0x52>
10008974:	4b13      	ldr	r3, [pc, #76]	; (100089c4 <stdio_put_string.isra.0+0xf4>)
10008976:	4699      	mov	r9, r3
10008978:	230a      	movs	r3, #10
1000897a:	469b      	mov	fp, r3
1000897c:	e002      	b.n	10008984 <stdio_put_string.isra.0+0xb4>
1000897e:	68e4      	ldr	r4, [r4, #12]
10008980:	2c00      	cmp	r4, #0
10008982:	d0eb      	beq.n	1000895c <stdio_put_string.isra.0+0x8c>
10008984:	6823      	ldr	r3, [r4, #0]
10008986:	2b00      	cmp	r3, #0
10008988:	d0f9      	beq.n	1000897e <stdio_put_string.isra.0+0xae>
1000898a:	464b      	mov	r3, r9
1000898c:	681b      	ldr	r3, [r3, #0]
1000898e:	2b00      	cmp	r3, #0
10008990:	d001      	beq.n	10008996 <stdio_put_string.isra.0+0xc6>
10008992:	42a3      	cmp	r3, r4
10008994:	d1f3      	bne.n	1000897e <stdio_put_string.isra.0+0xae>
10008996:	002a      	movs	r2, r5
10008998:	0031      	movs	r1, r6
1000899a:	0020      	movs	r0, r4
1000899c:	47b8      	blx	r7
1000899e:	465a      	mov	r2, fp
100089a0:	466b      	mov	r3, sp
100089a2:	0020      	movs	r0, r4
100089a4:	711a      	strb	r2, [r3, #4]
100089a6:	a901      	add	r1, sp, #4
100089a8:	2201      	movs	r2, #1
100089aa:	47b8      	blx	r7
100089ac:	e7e7      	b.n	1000897e <stdio_put_string.isra.0+0xae>
100089ae:	4650      	mov	r0, sl
100089b0:	f000 fda6 	bl	10009500 <__mutex_exit_veneer>
100089b4:	e7d5      	b.n	10008962 <stdio_put_string.isra.0+0x92>
100089b6:	46c0      	nop			; (mov r8, r8)
100089b8:	20000e00 	.word	0x20000e00
100089bc:	1000881d 	.word	0x1000881d
100089c0:	20001304 	.word	0x20001304
100089c4:	20001308 	.word	0x20001308
100089c8:	1000880d 	.word	0x1000880d

100089cc <__wrap_putchar>:
100089cc:	b5f0      	push	{r4, r5, r6, r7, lr}
100089ce:	46ce      	mov	lr, r9
100089d0:	4647      	mov	r7, r8
100089d2:	b580      	push	{r7, lr}
100089d4:	b083      	sub	sp, #12
100089d6:	466b      	mov	r3, sp
100089d8:	1cde      	adds	r6, r3, #3
100089da:	23d0      	movs	r3, #208	; 0xd0
100089dc:	7030      	strb	r0, [r6, #0]
100089de:	061b      	lsls	r3, r3, #24
100089e0:	681c      	ldr	r4, [r3, #0]
100089e2:	4b1f      	ldr	r3, [pc, #124]	; (10008a60 <__wrap_putchar+0x94>)
100089e4:	4680      	mov	r8, r0
100089e6:	a901      	add	r1, sp, #4
100089e8:	0018      	movs	r0, r3
100089ea:	4699      	mov	r9, r3
100089ec:	f000 fd98 	bl	10009520 <__mutex_try_enter_veneer>
100089f0:	1e07      	subs	r7, r0, #0
100089f2:	d020      	beq.n	10008a36 <__wrap_putchar+0x6a>
100089f4:	4b1b      	ldr	r3, [pc, #108]	; (10008a64 <__wrap_putchar+0x98>)
100089f6:	681c      	ldr	r4, [r3, #0]
100089f8:	2c00      	cmp	r4, #0
100089fa:	d028      	beq.n	10008a4e <__wrap_putchar+0x82>
100089fc:	4d1a      	ldr	r5, [pc, #104]	; (10008a68 <__wrap_putchar+0x9c>)
100089fe:	e002      	b.n	10008a06 <__wrap_putchar+0x3a>
10008a00:	68e4      	ldr	r4, [r4, #12]
10008a02:	2c00      	cmp	r4, #0
10008a04:	d00f      	beq.n	10008a26 <__wrap_putchar+0x5a>
10008a06:	6823      	ldr	r3, [r4, #0]
10008a08:	2b00      	cmp	r3, #0
10008a0a:	d0f9      	beq.n	10008a00 <__wrap_putchar+0x34>
10008a0c:	682b      	ldr	r3, [r5, #0]
10008a0e:	2b00      	cmp	r3, #0
10008a10:	d001      	beq.n	10008a16 <__wrap_putchar+0x4a>
10008a12:	42a3      	cmp	r3, r4
10008a14:	d1f4      	bne.n	10008a00 <__wrap_putchar+0x34>
10008a16:	0020      	movs	r0, r4
10008a18:	2201      	movs	r2, #1
10008a1a:	0031      	movs	r1, r6
10008a1c:	f7ff fefe 	bl	1000881c <stdio_out_chars_crlf>
10008a20:	68e4      	ldr	r4, [r4, #12]
10008a22:	2c00      	cmp	r4, #0
10008a24:	d1ef      	bne.n	10008a06 <__wrap_putchar+0x3a>
10008a26:	2f00      	cmp	r7, #0
10008a28:	d111      	bne.n	10008a4e <__wrap_putchar+0x82>
10008a2a:	4640      	mov	r0, r8
10008a2c:	b003      	add	sp, #12
10008a2e:	bcc0      	pop	{r6, r7}
10008a30:	46b9      	mov	r9, r7
10008a32:	46b0      	mov	r8, r6
10008a34:	bdf0      	pop	{r4, r5, r6, r7, pc}
10008a36:	9b01      	ldr	r3, [sp, #4]
10008a38:	b264      	sxtb	r4, r4
10008a3a:	429c      	cmp	r4, r3
10008a3c:	d00b      	beq.n	10008a56 <__wrap_putchar+0x8a>
10008a3e:	4648      	mov	r0, r9
10008a40:	f000 fd96 	bl	10009570 <__mutex_enter_blocking_veneer>
10008a44:	4b07      	ldr	r3, [pc, #28]	; (10008a64 <__wrap_putchar+0x98>)
10008a46:	2701      	movs	r7, #1
10008a48:	681c      	ldr	r4, [r3, #0]
10008a4a:	2c00      	cmp	r4, #0
10008a4c:	d1d6      	bne.n	100089fc <__wrap_putchar+0x30>
10008a4e:	4648      	mov	r0, r9
10008a50:	f000 fd56 	bl	10009500 <__mutex_exit_veneer>
10008a54:	e7e9      	b.n	10008a2a <__wrap_putchar+0x5e>
10008a56:	4b03      	ldr	r3, [pc, #12]	; (10008a64 <__wrap_putchar+0x98>)
10008a58:	681c      	ldr	r4, [r3, #0]
10008a5a:	2c00      	cmp	r4, #0
10008a5c:	d1ce      	bne.n	100089fc <__wrap_putchar+0x30>
10008a5e:	e7e4      	b.n	10008a2a <__wrap_putchar+0x5e>
10008a60:	20000e00 	.word	0x20000e00
10008a64:	20001304 	.word	0x20001304
10008a68:	20001308 	.word	0x20001308

10008a6c <__wrap_puts>:
10008a6c:	b570      	push	{r4, r5, r6, lr}
10008a6e:	0004      	movs	r4, r0
10008a70:	f000 fbd6 	bl	10009220 <strlen>
10008a74:	2300      	movs	r3, #0
10008a76:	0001      	movs	r1, r0
10008a78:	0005      	movs	r5, r0
10008a7a:	2201      	movs	r2, #1
10008a7c:	0020      	movs	r0, r4
10008a7e:	f7ff ff27 	bl	100088d0 <stdio_put_string.isra.0>
10008a82:	4b08      	ldr	r3, [pc, #32]	; (10008aa4 <__wrap_puts+0x38>)
10008a84:	681c      	ldr	r4, [r3, #0]
10008a86:	2c00      	cmp	r4, #0
10008a88:	d006      	beq.n	10008a98 <__wrap_puts+0x2c>
10008a8a:	6863      	ldr	r3, [r4, #4]
10008a8c:	2b00      	cmp	r3, #0
10008a8e:	d005      	beq.n	10008a9c <__wrap_puts+0x30>
10008a90:	4798      	blx	r3
10008a92:	68e4      	ldr	r4, [r4, #12]
10008a94:	2c00      	cmp	r4, #0
10008a96:	d1f8      	bne.n	10008a8a <__wrap_puts+0x1e>
10008a98:	0028      	movs	r0, r5
10008a9a:	bd70      	pop	{r4, r5, r6, pc}
10008a9c:	68e4      	ldr	r4, [r4, #12]
10008a9e:	2c00      	cmp	r4, #0
10008aa0:	d1f3      	bne.n	10008a8a <__wrap_puts+0x1e>
10008aa2:	e7f9      	b.n	10008a98 <__wrap_puts+0x2c>
10008aa4:	20001304 	.word	0x20001304

10008aa8 <_retrieve_unique_id_on_boot>:
10008aa8:	b510      	push	{r4, lr}
10008aaa:	4802      	ldr	r0, [pc, #8]	; (10008ab4 <_retrieve_unique_id_on_boot+0xc>)
10008aac:	f000 f804 	bl	10008ab8 <flash_get_unique_id>
10008ab0:	bd10      	pop	{r4, pc}
10008ab2:	46c0      	nop			; (mov r8, r8)
10008ab4:	20001324 	.word	0x20001324

10008ab8 <flash_get_unique_id>:
10008ab8:	b530      	push	{r4, r5, lr}
10008aba:	2500      	movs	r5, #0
10008abc:	b089      	sub	sp, #36	; 0x24
10008abe:	0004      	movs	r4, r0
10008ac0:	2209      	movs	r2, #9
10008ac2:	2100      	movs	r1, #0
10008ac4:	a801      	add	r0, sp, #4
10008ac6:	9500      	str	r5, [sp, #0]
10008ac8:	f7ff fe90 	bl	100087ec <__wrap_memset>
10008acc:	2209      	movs	r2, #9
10008ace:	2100      	movs	r1, #0
10008ad0:	a805      	add	r0, sp, #20
10008ad2:	9504      	str	r5, [sp, #16]
10008ad4:	f7ff fe8a 	bl	100087ec <__wrap_memset>
10008ad8:	234b      	movs	r3, #75	; 0x4b
10008ada:	466a      	mov	r2, sp
10008adc:	4668      	mov	r0, sp
10008ade:	7013      	strb	r3, [r2, #0]
10008ae0:	a904      	add	r1, sp, #16
10008ae2:	220d      	movs	r2, #13
10008ae4:	f000 fcfc 	bl	100094e0 <__flash_do_cmd_veneer>
10008ae8:	2115      	movs	r1, #21
10008aea:	2208      	movs	r2, #8
10008aec:	0020      	movs	r0, r4
10008aee:	4469      	add	r1, sp
10008af0:	f7ff fe82 	bl	100087f8 <__wrap___aeabi_memcpy>
10008af4:	b009      	add	sp, #36	; 0x24
10008af6:	bd30      	pop	{r4, r5, pc}

10008af8 <spi_init>:
10008af8:	b5f8      	push	{r3, r4, r5, r6, r7, lr}
10008afa:	4657      	mov	r7, sl
10008afc:	4682      	mov	sl, r0
10008afe:	4b38      	ldr	r3, [pc, #224]	; (10008be0 <spi_init+0xe8>)
10008b00:	4645      	mov	r5, r8
10008b02:	4453      	add	r3, sl
10008b04:	425a      	negs	r2, r3
10008b06:	4153      	adcs	r3, r2
10008b08:	2280      	movs	r2, #128	; 0x80
10008b0a:	0292      	lsls	r2, r2, #10
10008b0c:	4694      	mov	ip, r2
10008b0e:	46de      	mov	lr, fp
10008b10:	464e      	mov	r6, r9
10008b12:	425b      	negs	r3, r3
10008b14:	0c1b      	lsrs	r3, r3, #16
10008b16:	4a33      	ldr	r2, [pc, #204]	; (10008be4 <spi_init+0xec>)
10008b18:	041b      	lsls	r3, r3, #16
10008b1a:	4463      	add	r3, ip
10008b1c:	b5e0      	push	{r5, r6, r7, lr}
10008b1e:	6013      	str	r3, [r2, #0]
10008b20:	4a31      	ldr	r2, [pc, #196]	; (10008be8 <spi_init+0xf0>)
10008b22:	000d      	movs	r5, r1
10008b24:	4931      	ldr	r1, [pc, #196]	; (10008bec <spi_init+0xf4>)
10008b26:	6013      	str	r3, [r2, #0]
10008b28:	0018      	movs	r0, r3
10008b2a:	688a      	ldr	r2, [r1, #8]
10008b2c:	4390      	bics	r0, r2
10008b2e:	4681      	mov	r9, r0
10008b30:	d1fa      	bne.n	10008b28 <spi_init+0x30>
10008b32:	2006      	movs	r0, #6
10008b34:	f7ff fc0c 	bl	10008350 <clock_get_hz>
10008b38:	4680      	mov	r8, r0
10008b3a:	2080      	movs	r0, #128	; 0x80
10008b3c:	2102      	movs	r1, #2
10008b3e:	0def      	lsrs	r7, r5, #23
10008b40:	026e      	lsls	r6, r5, #9
10008b42:	0dab      	lsrs	r3, r5, #22
10008b44:	02aa      	lsls	r2, r5, #10
10008b46:	0040      	lsls	r0, r0, #1
10008b48:	e005      	b.n	10008b56 <spi_init+0x5e>
10008b4a:	4590      	cmp	r8, r2
10008b4c:	d307      	bcc.n	10008b5e <spi_init+0x66>
10008b4e:	1992      	adds	r2, r2, r6
10008b50:	417b      	adcs	r3, r7
10008b52:	4281      	cmp	r1, r0
10008b54:	d03f      	beq.n	10008bd6 <spi_init+0xde>
10008b56:	000c      	movs	r4, r1
10008b58:	3102      	adds	r1, #2
10008b5a:	2b00      	cmp	r3, #0
10008b5c:	d0f5      	beq.n	10008b4a <spi_init+0x52>
10008b5e:	2680      	movs	r6, #128	; 0x80
10008b60:	0227      	lsls	r7, r4, #8
10008b62:	1b3f      	subs	r7, r7, r4
10008b64:	0076      	lsls	r6, r6, #1
10008b66:	e002      	b.n	10008b6e <spi_init+0x76>
10008b68:	1b3f      	subs	r7, r7, r4
10008b6a:	2e01      	cmp	r6, #1
10008b6c:	d035      	beq.n	10008bda <spi_init+0xe2>
10008b6e:	0039      	movs	r1, r7
10008b70:	4640      	mov	r0, r8
10008b72:	46b3      	mov	fp, r6
10008b74:	3e01      	subs	r6, #1
10008b76:	f7ff fce7 	bl	10008548 <__wrap___aeabi_uidiv>
10008b7a:	4285      	cmp	r5, r0
10008b7c:	d2f4      	bcs.n	10008b68 <spi_init+0x70>
10008b7e:	4659      	mov	r1, fp
10008b80:	0233      	lsls	r3, r6, #8
10008b82:	4699      	mov	r9, r3
10008b84:	4361      	muls	r1, r4
10008b86:	4653      	mov	r3, sl
10008b88:	464a      	mov	r2, r9
10008b8a:	611c      	str	r4, [r3, #16]
10008b8c:	681b      	ldr	r3, [r3, #0]
10008b8e:	4650      	mov	r0, sl
10008b90:	4053      	eors	r3, r2
10008b92:	22ff      	movs	r2, #255	; 0xff
10008b94:	0212      	lsls	r2, r2, #8
10008b96:	4013      	ands	r3, r2
10008b98:	2280      	movs	r2, #128	; 0x80
10008b9a:	0152      	lsls	r2, r2, #5
10008b9c:	4302      	orrs	r2, r0
10008b9e:	6013      	str	r3, [r2, #0]
10008ba0:	6803      	ldr	r3, [r0, #0]
10008ba2:	2007      	movs	r0, #7
10008ba4:	4058      	eors	r0, r3
10008ba6:	23cf      	movs	r3, #207	; 0xcf
10008ba8:	4003      	ands	r3, r0
10008baa:	6013      	str	r3, [r2, #0]
10008bac:	4652      	mov	r2, sl
10008bae:	2380      	movs	r3, #128	; 0x80
10008bb0:	2003      	movs	r0, #3
10008bb2:	019b      	lsls	r3, r3, #6
10008bb4:	3224      	adds	r2, #36	; 0x24
10008bb6:	431a      	orrs	r2, r3
10008bb8:	6010      	str	r0, [r2, #0]
10008bba:	4652      	mov	r2, sl
10008bbc:	1d10      	adds	r0, r2, #4
10008bbe:	4318      	orrs	r0, r3
10008bc0:	2302      	movs	r3, #2
10008bc2:	6003      	str	r3, [r0, #0]
10008bc4:	4640      	mov	r0, r8
10008bc6:	f7ff fcbf 	bl	10008548 <__wrap___aeabi_uidiv>
10008bca:	bcf0      	pop	{r4, r5, r6, r7}
10008bcc:	46bb      	mov	fp, r7
10008bce:	46b2      	mov	sl, r6
10008bd0:	46a9      	mov	r9, r5
10008bd2:	46a0      	mov	r8, r4
10008bd4:	bdf8      	pop	{r3, r4, r5, r6, r7, pc}
10008bd6:	000c      	movs	r4, r1
10008bd8:	e7c1      	b.n	10008b5e <spi_init+0x66>
10008bda:	0021      	movs	r1, r4
10008bdc:	e7d3      	b.n	10008b86 <spi_init+0x8e>
10008bde:	46c0      	nop			; (mov r8, r8)
10008be0:	bffc4000 	.word	0xbffc4000
10008be4:	4000e000 	.word	0x4000e000
10008be8:	4000f000 	.word	0x4000f000
10008bec:	4000c000 	.word	0x4000c000

10008bf0 <spi_deinit>:
10008bf0:	23c0      	movs	r3, #192	; 0xc0
10008bf2:	2102      	movs	r1, #2
10008bf4:	1d02      	adds	r2, r0, #4
10008bf6:	019b      	lsls	r3, r3, #6
10008bf8:	431a      	orrs	r2, r3
10008bfa:	6011      	str	r1, [r2, #0]
10008bfc:	0002      	movs	r2, r0
10008bfe:	3224      	adds	r2, #36	; 0x24
10008c00:	4313      	orrs	r3, r2
10008c02:	2203      	movs	r2, #3
10008c04:	601a      	str	r2, [r3, #0]
10008c06:	4b07      	ldr	r3, [pc, #28]	; (10008c24 <spi_deinit+0x34>)
10008c08:	2280      	movs	r2, #128	; 0x80
10008c0a:	469c      	mov	ip, r3
10008c0c:	4460      	add	r0, ip
10008c0e:	4243      	negs	r3, r0
10008c10:	4158      	adcs	r0, r3
10008c12:	0292      	lsls	r2, r2, #10
10008c14:	4694      	mov	ip, r2
10008c16:	4243      	negs	r3, r0
10008c18:	0c1b      	lsrs	r3, r3, #16
10008c1a:	4a03      	ldr	r2, [pc, #12]	; (10008c28 <spi_deinit+0x38>)
10008c1c:	041b      	lsls	r3, r3, #16
10008c1e:	4463      	add	r3, ip
10008c20:	6013      	str	r3, [r2, #0]
10008c22:	4770      	bx	lr
10008c24:	bffc4000 	.word	0xbffc4000
10008c28:	4000e000 	.word	0x4000e000

10008c2c <_GLOBAL__sub_I__ZN9__gnu_cxx9__freeresEv>:
10008c2c:	b570      	push	{r4, r5, r6, lr}
10008c2e:	259e      	movs	r5, #158	; 0x9e
10008c30:	4c08      	ldr	r4, [pc, #32]	; (10008c54 <_GLOBAL__sub_I__ZN9__gnu_cxx9__freeresEv+0x28>)
10008c32:	012d      	lsls	r5, r5, #4
10008c34:	0028      	movs	r0, r5
10008c36:	60e5      	str	r5, [r4, #12]
10008c38:	f7ff fdba 	bl	100087b0 <__wrap_malloc>
10008c3c:	60a0      	str	r0, [r4, #8]
10008c3e:	2800      	cmp	r0, #0
10008c40:	d004      	beq.n	10008c4c <_GLOBAL__sub_I__ZN9__gnu_cxx9__freeresEv+0x20>
10008c42:	2300      	movs	r3, #0
10008c44:	6060      	str	r0, [r4, #4]
10008c46:	6005      	str	r5, [r0, #0]
10008c48:	6043      	str	r3, [r0, #4]
10008c4a:	bd70      	pop	{r4, r5, r6, pc}
10008c4c:	60e0      	str	r0, [r4, #12]
10008c4e:	6060      	str	r0, [r4, #4]
10008c50:	e7fb      	b.n	10008c4a <_GLOBAL__sub_I__ZN9__gnu_cxx9__freeresEv+0x1e>
10008c52:	46c0      	nop			; (mov r8, r8)
10008c54:	2000117c 	.word	0x2000117c

10008c58 <malloc>:
10008c58:	b510      	push	{r4, lr}
10008c5a:	4b03      	ldr	r3, [pc, #12]	; (10008c68 <malloc+0x10>)
10008c5c:	0001      	movs	r1, r0
10008c5e:	6818      	ldr	r0, [r3, #0]
10008c60:	f000 f80e 	bl	10008c80 <_malloc_r>
10008c64:	bd10      	pop	{r4, pc}
10008c66:	46c0      	nop			; (mov r8, r8)
10008c68:	200005c0 	.word	0x200005c0

10008c6c <free>:
10008c6c:	b510      	push	{r4, lr}
10008c6e:	4b03      	ldr	r3, [pc, #12]	; (10008c7c <free+0x10>)
10008c70:	0001      	movs	r1, r0
10008c72:	6818      	ldr	r0, [r3, #0]
10008c74:	f000 fb50 	bl	10009318 <_free_r>
10008c78:	bd10      	pop	{r4, pc}
10008c7a:	46c0      	nop			; (mov r8, r8)
10008c7c:	200005c0 	.word	0x200005c0

10008c80 <_malloc_r>:
10008c80:	b5f0      	push	{r4, r5, r6, r7, lr}
10008c82:	464e      	mov	r6, r9
10008c84:	4645      	mov	r5, r8
10008c86:	46de      	mov	lr, fp
10008c88:	4657      	mov	r7, sl
10008c8a:	b5e0      	push	{r5, r6, r7, lr}
10008c8c:	000d      	movs	r5, r1
10008c8e:	350b      	adds	r5, #11
10008c90:	0006      	movs	r6, r0
10008c92:	b083      	sub	sp, #12
10008c94:	2d16      	cmp	r5, #22
10008c96:	d822      	bhi.n	10008cde <_malloc_r+0x5e>
10008c98:	2910      	cmp	r1, #16
10008c9a:	d900      	bls.n	10008c9e <_malloc_r+0x1e>
10008c9c:	e0b2      	b.n	10008e04 <_malloc_r+0x184>
10008c9e:	f000 faa9 	bl	100091f4 <__malloc_lock>
10008ca2:	2510      	movs	r5, #16
10008ca4:	2318      	movs	r3, #24
10008ca6:	2002      	movs	r0, #2
10008ca8:	4fcc      	ldr	r7, [pc, #816]	; (10008fdc <_malloc_r+0x35c>)
10008caa:	18fb      	adds	r3, r7, r3
10008cac:	001a      	movs	r2, r3
10008cae:	685c      	ldr	r4, [r3, #4]
10008cb0:	3a08      	subs	r2, #8
10008cb2:	4294      	cmp	r4, r2
10008cb4:	d100      	bne.n	10008cb8 <_malloc_r+0x38>
10008cb6:	e0b5      	b.n	10008e24 <_malloc_r+0x1a4>
10008cb8:	2303      	movs	r3, #3
10008cba:	6862      	ldr	r2, [r4, #4]
10008cbc:	439a      	bics	r2, r3
10008cbe:	0013      	movs	r3, r2
10008cc0:	68e2      	ldr	r2, [r4, #12]
10008cc2:	68a1      	ldr	r1, [r4, #8]
10008cc4:	60ca      	str	r2, [r1, #12]
10008cc6:	6091      	str	r1, [r2, #8]
10008cc8:	2201      	movs	r2, #1
10008cca:	18e3      	adds	r3, r4, r3
10008ccc:	6859      	ldr	r1, [r3, #4]
10008cce:	0030      	movs	r0, r6
10008cd0:	430a      	orrs	r2, r1
10008cd2:	605a      	str	r2, [r3, #4]
10008cd4:	f000 fa90 	bl	100091f8 <__malloc_unlock>
10008cd8:	0020      	movs	r0, r4
10008cda:	3008      	adds	r0, #8
10008cdc:	e095      	b.n	10008e0a <_malloc_r+0x18a>
10008cde:	2307      	movs	r3, #7
10008ce0:	439d      	bics	r5, r3
10008ce2:	d500      	bpl.n	10008ce6 <_malloc_r+0x66>
10008ce4:	e08e      	b.n	10008e04 <_malloc_r+0x184>
10008ce6:	42a9      	cmp	r1, r5
10008ce8:	d900      	bls.n	10008cec <_malloc_r+0x6c>
10008cea:	e08b      	b.n	10008e04 <_malloc_r+0x184>
10008cec:	f000 fa82 	bl	100091f4 <__malloc_lock>
10008cf0:	23fc      	movs	r3, #252	; 0xfc
10008cf2:	005b      	lsls	r3, r3, #1
10008cf4:	429d      	cmp	r5, r3
10008cf6:	d200      	bcs.n	10008cfa <_malloc_r+0x7a>
10008cf8:	e1a1      	b.n	1000903e <_malloc_r+0x3be>
10008cfa:	0a68      	lsrs	r0, r5, #9
10008cfc:	d100      	bne.n	10008d00 <_malloc_r+0x80>
10008cfe:	e08b      	b.n	10008e18 <_malloc_r+0x198>
10008d00:	2804      	cmp	r0, #4
10008d02:	d900      	bls.n	10008d06 <_malloc_r+0x86>
10008d04:	e174      	b.n	10008ff0 <_malloc_r+0x370>
10008d06:	2338      	movs	r3, #56	; 0x38
10008d08:	4698      	mov	r8, r3
10008d0a:	09a8      	lsrs	r0, r5, #6
10008d0c:	4480      	add	r8, r0
10008d0e:	3039      	adds	r0, #57	; 0x39
10008d10:	00c1      	lsls	r1, r0, #3
10008d12:	4fb2      	ldr	r7, [pc, #712]	; (10008fdc <_malloc_r+0x35c>)
10008d14:	1879      	adds	r1, r7, r1
10008d16:	684c      	ldr	r4, [r1, #4]
10008d18:	3908      	subs	r1, #8
10008d1a:	42a1      	cmp	r1, r4
10008d1c:	d00e      	beq.n	10008d3c <_malloc_r+0xbc>
10008d1e:	2303      	movs	r3, #3
10008d20:	469c      	mov	ip, r3
10008d22:	e004      	b.n	10008d2e <_malloc_r+0xae>
10008d24:	2a00      	cmp	r2, #0
10008d26:	dacb      	bge.n	10008cc0 <_malloc_r+0x40>
10008d28:	68e4      	ldr	r4, [r4, #12]
10008d2a:	42a1      	cmp	r1, r4
10008d2c:	d006      	beq.n	10008d3c <_malloc_r+0xbc>
10008d2e:	4662      	mov	r2, ip
10008d30:	6863      	ldr	r3, [r4, #4]
10008d32:	4393      	bics	r3, r2
10008d34:	1b5a      	subs	r2, r3, r5
10008d36:	2a0f      	cmp	r2, #15
10008d38:	ddf4      	ble.n	10008d24 <_malloc_r+0xa4>
10008d3a:	4640      	mov	r0, r8
10008d3c:	003a      	movs	r2, r7
10008d3e:	693c      	ldr	r4, [r7, #16]
10008d40:	3208      	adds	r2, #8
10008d42:	4294      	cmp	r4, r2
10008d44:	d100      	bne.n	10008d48 <_malloc_r+0xc8>
10008d46:	e078      	b.n	10008e3a <_malloc_r+0x1ba>
10008d48:	2303      	movs	r3, #3
10008d4a:	6861      	ldr	r1, [r4, #4]
10008d4c:	4399      	bics	r1, r3
10008d4e:	4689      	mov	r9, r1
10008d50:	000b      	movs	r3, r1
10008d52:	1b49      	subs	r1, r1, r5
10008d54:	290f      	cmp	r1, #15
10008d56:	dd00      	ble.n	10008d5a <_malloc_r+0xda>
10008d58:	e175      	b.n	10009046 <_malloc_r+0x3c6>
10008d5a:	617a      	str	r2, [r7, #20]
10008d5c:	613a      	str	r2, [r7, #16]
10008d5e:	2900      	cmp	r1, #0
10008d60:	dab2      	bge.n	10008cc8 <_malloc_r+0x48>
10008d62:	2280      	movs	r2, #128	; 0x80
10008d64:	0092      	lsls	r2, r2, #2
10008d66:	4591      	cmp	r9, r2
10008d68:	d300      	bcc.n	10008d6c <_malloc_r+0xec>
10008d6a:	e110      	b.n	10008f8e <_malloc_r+0x30e>
10008d6c:	0959      	lsrs	r1, r3, #5
10008d6e:	08da      	lsrs	r2, r3, #3
10008d70:	2301      	movs	r3, #1
10008d72:	408b      	lsls	r3, r1
10008d74:	00d2      	lsls	r2, r2, #3
10008d76:	6879      	ldr	r1, [r7, #4]
10008d78:	19d2      	adds	r2, r2, r7
10008d7a:	430b      	orrs	r3, r1
10008d7c:	6891      	ldr	r1, [r2, #8]
10008d7e:	607b      	str	r3, [r7, #4]
10008d80:	60e2      	str	r2, [r4, #12]
10008d82:	60a1      	str	r1, [r4, #8]
10008d84:	6094      	str	r4, [r2, #8]
10008d86:	60cc      	str	r4, [r1, #12]
10008d88:	2101      	movs	r1, #1
10008d8a:	1082      	asrs	r2, r0, #2
10008d8c:	4091      	lsls	r1, r2
10008d8e:	4299      	cmp	r1, r3
10008d90:	d859      	bhi.n	10008e46 <_malloc_r+0x1c6>
10008d92:	420b      	tst	r3, r1
10008d94:	d105      	bne.n	10008da2 <_malloc_r+0x122>
10008d96:	2203      	movs	r2, #3
10008d98:	4390      	bics	r0, r2
10008d9a:	0049      	lsls	r1, r1, #1
10008d9c:	3004      	adds	r0, #4
10008d9e:	420b      	tst	r3, r1
10008da0:	d0fb      	beq.n	10008d9a <_malloc_r+0x11a>
10008da2:	2303      	movs	r3, #3
10008da4:	4698      	mov	r8, r3
10008da6:	00c3      	lsls	r3, r0, #3
10008da8:	4699      	mov	r9, r3
10008daa:	44b9      	add	r9, r7
10008dac:	46cc      	mov	ip, r9
10008dae:	4682      	mov	sl, r0
10008db0:	4663      	mov	r3, ip
10008db2:	68dc      	ldr	r4, [r3, #12]
10008db4:	45a4      	cmp	ip, r4
10008db6:	d107      	bne.n	10008dc8 <_malloc_r+0x148>
10008db8:	e126      	b.n	10009008 <_malloc_r+0x388>
10008dba:	2a00      	cmp	r2, #0
10008dbc:	db00      	blt.n	10008dc0 <_malloc_r+0x140>
10008dbe:	e12f      	b.n	10009020 <_malloc_r+0x3a0>
10008dc0:	68e4      	ldr	r4, [r4, #12]
10008dc2:	45a4      	cmp	ip, r4
10008dc4:	d100      	bne.n	10008dc8 <_malloc_r+0x148>
10008dc6:	e11f      	b.n	10009008 <_malloc_r+0x388>
10008dc8:	4642      	mov	r2, r8
10008dca:	6863      	ldr	r3, [r4, #4]
10008dcc:	4393      	bics	r3, r2
10008dce:	1b5a      	subs	r2, r3, r5
10008dd0:	2a0f      	cmp	r2, #15
10008dd2:	ddf2      	ble.n	10008dba <_malloc_r+0x13a>
10008dd4:	2001      	movs	r0, #1
10008dd6:	4680      	mov	r8, r0
10008dd8:	1961      	adds	r1, r4, r5
10008dda:	4305      	orrs	r5, r0
10008ddc:	6065      	str	r5, [r4, #4]
10008dde:	68a0      	ldr	r0, [r4, #8]
10008de0:	68e5      	ldr	r5, [r4, #12]
10008de2:	3708      	adds	r7, #8
10008de4:	60c5      	str	r5, [r0, #12]
10008de6:	60a8      	str	r0, [r5, #8]
10008de8:	4640      	mov	r0, r8
10008dea:	4310      	orrs	r0, r2
10008dec:	60f9      	str	r1, [r7, #12]
10008dee:	60b9      	str	r1, [r7, #8]
10008df0:	6048      	str	r0, [r1, #4]
10008df2:	60cf      	str	r7, [r1, #12]
10008df4:	0030      	movs	r0, r6
10008df6:	608f      	str	r7, [r1, #8]
10008df8:	50e2      	str	r2, [r4, r3]
10008dfa:	f000 f9fd 	bl	100091f8 <__malloc_unlock>
10008dfe:	0020      	movs	r0, r4
10008e00:	3008      	adds	r0, #8
10008e02:	e002      	b.n	10008e0a <_malloc_r+0x18a>
10008e04:	230c      	movs	r3, #12
10008e06:	2000      	movs	r0, #0
10008e08:	6033      	str	r3, [r6, #0]
10008e0a:	b003      	add	sp, #12
10008e0c:	bcf0      	pop	{r4, r5, r6, r7}
10008e0e:	46bb      	mov	fp, r7
10008e10:	46b2      	mov	sl, r6
10008e12:	46a9      	mov	r9, r5
10008e14:	46a0      	mov	r8, r4
10008e16:	bdf0      	pop	{r4, r5, r6, r7, pc}
10008e18:	2180      	movs	r1, #128	; 0x80
10008e1a:	233f      	movs	r3, #63	; 0x3f
10008e1c:	2040      	movs	r0, #64	; 0x40
10008e1e:	4698      	mov	r8, r3
10008e20:	0089      	lsls	r1, r1, #2
10008e22:	e776      	b.n	10008d12 <_malloc_r+0x92>
10008e24:	68dc      	ldr	r4, [r3, #12]
10008e26:	3002      	adds	r0, #2
10008e28:	42a3      	cmp	r3, r4
10008e2a:	d000      	beq.n	10008e2e <_malloc_r+0x1ae>
10008e2c:	e744      	b.n	10008cb8 <_malloc_r+0x38>
10008e2e:	003a      	movs	r2, r7
10008e30:	693c      	ldr	r4, [r7, #16]
10008e32:	3208      	adds	r2, #8
10008e34:	4294      	cmp	r4, r2
10008e36:	d000      	beq.n	10008e3a <_malloc_r+0x1ba>
10008e38:	e786      	b.n	10008d48 <_malloc_r+0xc8>
10008e3a:	2101      	movs	r1, #1
10008e3c:	687b      	ldr	r3, [r7, #4]
10008e3e:	1082      	asrs	r2, r0, #2
10008e40:	4091      	lsls	r1, r2
10008e42:	4299      	cmp	r1, r3
10008e44:	d9a5      	bls.n	10008d92 <_malloc_r+0x112>
10008e46:	2303      	movs	r3, #3
10008e48:	68bc      	ldr	r4, [r7, #8]
10008e4a:	6862      	ldr	r2, [r4, #4]
10008e4c:	439a      	bics	r2, r3
10008e4e:	4691      	mov	r9, r2
10008e50:	4295      	cmp	r5, r2
10008e52:	d803      	bhi.n	10008e5c <_malloc_r+0x1dc>
10008e54:	1b53      	subs	r3, r2, r5
10008e56:	2b0f      	cmp	r3, #15
10008e58:	dd00      	ble.n	10008e5c <_malloc_r+0x1dc>
10008e5a:	e08a      	b.n	10008f72 <_malloc_r+0x2f2>
10008e5c:	0023      	movs	r3, r4
10008e5e:	444b      	add	r3, r9
10008e60:	4a5f      	ldr	r2, [pc, #380]	; (10008fe0 <_malloc_r+0x360>)
10008e62:	9301      	str	r3, [sp, #4]
10008e64:	4b5f      	ldr	r3, [pc, #380]	; (10008fe4 <_malloc_r+0x364>)
10008e66:	4693      	mov	fp, r2
10008e68:	469a      	mov	sl, r3
10008e6a:	6812      	ldr	r2, [r2, #0]
10008e6c:	681b      	ldr	r3, [r3, #0]
10008e6e:	18eb      	adds	r3, r5, r3
10008e70:	3201      	adds	r2, #1
10008e72:	d100      	bne.n	10008e76 <_malloc_r+0x1f6>
10008e74:	e136      	b.n	100090e4 <_malloc_r+0x464>
10008e76:	4a5c      	ldr	r2, [pc, #368]	; (10008fe8 <_malloc_r+0x368>)
10008e78:	4694      	mov	ip, r2
10008e7a:	4463      	add	r3, ip
10008e7c:	0b1b      	lsrs	r3, r3, #12
10008e7e:	031b      	lsls	r3, r3, #12
10008e80:	9300      	str	r3, [sp, #0]
10008e82:	0030      	movs	r0, r6
10008e84:	9900      	ldr	r1, [sp, #0]
10008e86:	f000 f9b9 	bl	100091fc <_sbrk_r>
10008e8a:	0003      	movs	r3, r0
10008e8c:	4680      	mov	r8, r0
10008e8e:	3301      	adds	r3, #1
10008e90:	d100      	bne.n	10008e94 <_malloc_r+0x214>
10008e92:	e0f3      	b.n	1000907c <_malloc_r+0x3fc>
10008e94:	9b01      	ldr	r3, [sp, #4]
10008e96:	4283      	cmp	r3, r0
10008e98:	d900      	bls.n	10008e9c <_malloc_r+0x21c>
10008e9a:	e0ed      	b.n	10009078 <_malloc_r+0x3f8>
10008e9c:	4652      	mov	r2, sl
10008e9e:	9800      	ldr	r0, [sp, #0]
10008ea0:	6852      	ldr	r2, [r2, #4]
10008ea2:	0003      	movs	r3, r0
10008ea4:	4694      	mov	ip, r2
10008ea6:	4651      	mov	r1, sl
10008ea8:	4463      	add	r3, ip
10008eaa:	604b      	str	r3, [r1, #4]
10008eac:	9901      	ldr	r1, [sp, #4]
10008eae:	001a      	movs	r2, r3
10008eb0:	4541      	cmp	r1, r8
10008eb2:	d100      	bne.n	10008eb6 <_malloc_r+0x236>
10008eb4:	e14b      	b.n	1000914e <_malloc_r+0x4ce>
10008eb6:	465b      	mov	r3, fp
10008eb8:	681b      	ldr	r3, [r3, #0]
10008eba:	3301      	adds	r3, #1
10008ebc:	d100      	bne.n	10008ec0 <_malloc_r+0x240>
10008ebe:	e150      	b.n	10009162 <_malloc_r+0x4e2>
10008ec0:	4643      	mov	r3, r8
10008ec2:	9901      	ldr	r1, [sp, #4]
10008ec4:	1a5b      	subs	r3, r3, r1
10008ec6:	189a      	adds	r2, r3, r2
10008ec8:	4653      	mov	r3, sl
10008eca:	605a      	str	r2, [r3, #4]
10008ecc:	2307      	movs	r3, #7
10008ece:	4642      	mov	r2, r8
10008ed0:	4641      	mov	r1, r8
10008ed2:	401a      	ands	r2, r3
10008ed4:	9201      	str	r2, [sp, #4]
10008ed6:	4219      	tst	r1, r3
10008ed8:	d100      	bne.n	10008edc <_malloc_r+0x25c>
10008eda:	e10d      	b.n	100090f8 <_malloc_r+0x478>
10008edc:	2308      	movs	r3, #8
10008ede:	4698      	mov	r8, r3
10008ee0:	1a88      	subs	r0, r1, r2
10008ee2:	4b42      	ldr	r3, [pc, #264]	; (10008fec <_malloc_r+0x36c>)
10008ee4:	9900      	ldr	r1, [sp, #0]
10008ee6:	4480      	add	r8, r0
10008ee8:	4441      	add	r1, r8
10008eea:	1a9b      	subs	r3, r3, r2
10008eec:	1a5b      	subs	r3, r3, r1
10008eee:	051b      	lsls	r3, r3, #20
10008ef0:	0d1b      	lsrs	r3, r3, #20
10008ef2:	9100      	str	r1, [sp, #0]
10008ef4:	0030      	movs	r0, r6
10008ef6:	0019      	movs	r1, r3
10008ef8:	469b      	mov	fp, r3
10008efa:	f000 f97f 	bl	100091fc <_sbrk_r>
10008efe:	1c43      	adds	r3, r0, #1
10008f00:	d100      	bne.n	10008f04 <_malloc_r+0x284>
10008f02:	e14a      	b.n	1000919a <_malloc_r+0x51a>
10008f04:	4643      	mov	r3, r8
10008f06:	1ac0      	subs	r0, r0, r3
10008f08:	0003      	movs	r3, r0
10008f0a:	445b      	add	r3, fp
10008f0c:	9300      	str	r3, [sp, #0]
10008f0e:	4653      	mov	r3, sl
10008f10:	4652      	mov	r2, sl
10008f12:	685b      	ldr	r3, [r3, #4]
10008f14:	2101      	movs	r1, #1
10008f16:	445b      	add	r3, fp
10008f18:	6053      	str	r3, [r2, #4]
10008f1a:	4642      	mov	r2, r8
10008f1c:	4640      	mov	r0, r8
10008f1e:	60ba      	str	r2, [r7, #8]
10008f20:	9a00      	ldr	r2, [sp, #0]
10008f22:	430a      	orrs	r2, r1
10008f24:	6042      	str	r2, [r0, #4]
10008f26:	42bc      	cmp	r4, r7
10008f28:	d100      	bne.n	10008f2c <_malloc_r+0x2ac>
10008f2a:	e11e      	b.n	1000916a <_malloc_r+0x4ea>
10008f2c:	464a      	mov	r2, r9
10008f2e:	2a0f      	cmp	r2, #15
10008f30:	d800      	bhi.n	10008f34 <_malloc_r+0x2b4>
10008f32:	e11c      	b.n	1000916e <_malloc_r+0x4ee>
10008f34:	2007      	movs	r0, #7
10008f36:	3a0c      	subs	r2, #12
10008f38:	4382      	bics	r2, r0
10008f3a:	6860      	ldr	r0, [r4, #4]
10008f3c:	4001      	ands	r1, r0
10008f3e:	2005      	movs	r0, #5
10008f40:	4311      	orrs	r1, r2
10008f42:	6061      	str	r1, [r4, #4]
10008f44:	18a1      	adds	r1, r4, r2
10008f46:	6048      	str	r0, [r1, #4]
10008f48:	6088      	str	r0, [r1, #8]
10008f4a:	2a0f      	cmp	r2, #15
10008f4c:	d900      	bls.n	10008f50 <_malloc_r+0x2d0>
10008f4e:	e12f      	b.n	100091b0 <_malloc_r+0x530>
10008f50:	4642      	mov	r2, r8
10008f52:	4644      	mov	r4, r8
10008f54:	6852      	ldr	r2, [r2, #4]
10008f56:	4651      	mov	r1, sl
10008f58:	6ac9      	ldr	r1, [r1, #44]	; 0x2c
10008f5a:	4299      	cmp	r1, r3
10008f5c:	d201      	bcs.n	10008f62 <_malloc_r+0x2e2>
10008f5e:	4651      	mov	r1, sl
10008f60:	62cb      	str	r3, [r1, #44]	; 0x2c
10008f62:	4651      	mov	r1, sl
10008f64:	6b09      	ldr	r1, [r1, #48]	; 0x30
10008f66:	4299      	cmp	r1, r3
10008f68:	d300      	bcc.n	10008f6c <_malloc_r+0x2ec>
10008f6a:	e089      	b.n	10009080 <_malloc_r+0x400>
10008f6c:	4651      	mov	r1, sl
10008f6e:	630b      	str	r3, [r1, #48]	; 0x30
10008f70:	e086      	b.n	10009080 <_malloc_r+0x400>
10008f72:	2201      	movs	r2, #1
10008f74:	0029      	movs	r1, r5
10008f76:	4313      	orrs	r3, r2
10008f78:	4311      	orrs	r1, r2
10008f7a:	1965      	adds	r5, r4, r5
10008f7c:	6061      	str	r1, [r4, #4]
10008f7e:	0030      	movs	r0, r6
10008f80:	60bd      	str	r5, [r7, #8]
10008f82:	606b      	str	r3, [r5, #4]
10008f84:	f000 f938 	bl	100091f8 <__malloc_unlock>
10008f88:	0020      	movs	r0, r4
10008f8a:	3008      	adds	r0, #8
10008f8c:	e73d      	b.n	10008e0a <_malloc_r+0x18a>
10008f8e:	0a5a      	lsrs	r2, r3, #9
10008f90:	2a04      	cmp	r2, #4
10008f92:	d96b      	bls.n	1000906c <_malloc_r+0x3ec>
10008f94:	2a14      	cmp	r2, #20
10008f96:	d900      	bls.n	10008f9a <_malloc_r+0x31a>
10008f98:	e0be      	b.n	10009118 <_malloc_r+0x498>
10008f9a:	0011      	movs	r1, r2
10008f9c:	325c      	adds	r2, #92	; 0x5c
10008f9e:	315b      	adds	r1, #91	; 0x5b
10008fa0:	00d2      	lsls	r2, r2, #3
10008fa2:	2308      	movs	r3, #8
10008fa4:	425b      	negs	r3, r3
10008fa6:	469c      	mov	ip, r3
10008fa8:	18ba      	adds	r2, r7, r2
10008faa:	4494      	add	ip, r2
10008fac:	4663      	mov	r3, ip
10008fae:	689a      	ldr	r2, [r3, #8]
10008fb0:	2303      	movs	r3, #3
10008fb2:	4698      	mov	r8, r3
10008fb4:	4594      	cmp	ip, r2
10008fb6:	d100      	bne.n	10008fba <_malloc_r+0x33a>
10008fb8:	e097      	b.n	100090ea <_malloc_r+0x46a>
10008fba:	4643      	mov	r3, r8
10008fbc:	6851      	ldr	r1, [r2, #4]
10008fbe:	4399      	bics	r1, r3
10008fc0:	4549      	cmp	r1, r9
10008fc2:	d902      	bls.n	10008fca <_malloc_r+0x34a>
10008fc4:	6892      	ldr	r2, [r2, #8]
10008fc6:	4594      	cmp	ip, r2
10008fc8:	d1f7      	bne.n	10008fba <_malloc_r+0x33a>
10008fca:	68d3      	ldr	r3, [r2, #12]
10008fcc:	469c      	mov	ip, r3
10008fce:	687b      	ldr	r3, [r7, #4]
10008fd0:	4661      	mov	r1, ip
10008fd2:	60a2      	str	r2, [r4, #8]
10008fd4:	60e1      	str	r1, [r4, #12]
10008fd6:	608c      	str	r4, [r1, #8]
10008fd8:	60d4      	str	r4, [r2, #12]
10008fda:	e6d5      	b.n	10008d88 <_malloc_r+0x108>
10008fdc:	200009f8 	.word	0x200009f8
10008fe0:	200009f0 	.word	0x200009f0
10008fe4:	20001144 	.word	0x20001144
10008fe8:	0000100f 	.word	0x0000100f
10008fec:	00001008 	.word	0x00001008
10008ff0:	2814      	cmp	r0, #20
10008ff2:	d952      	bls.n	1000909a <_malloc_r+0x41a>
10008ff4:	2854      	cmp	r0, #84	; 0x54
10008ff6:	d900      	bls.n	10008ffa <_malloc_r+0x37a>
10008ff8:	e096      	b.n	10009128 <_malloc_r+0x4a8>
10008ffa:	236e      	movs	r3, #110	; 0x6e
10008ffc:	4698      	mov	r8, r3
10008ffe:	0b28      	lsrs	r0, r5, #12
10009000:	4480      	add	r8, r0
10009002:	306f      	adds	r0, #111	; 0x6f
10009004:	00c1      	lsls	r1, r0, #3
10009006:	e684      	b.n	10008d12 <_malloc_r+0x92>
10009008:	2308      	movs	r3, #8
1000900a:	469b      	mov	fp, r3
1000900c:	3b07      	subs	r3, #7
1000900e:	44dc      	add	ip, fp
10009010:	469b      	mov	fp, r3
10009012:	44da      	add	sl, fp
10009014:	4643      	mov	r3, r8
10009016:	4652      	mov	r2, sl
10009018:	4213      	tst	r3, r2
1000901a:	d000      	beq.n	1000901e <_malloc_r+0x39e>
1000901c:	e6c8      	b.n	10008db0 <_malloc_r+0x130>
1000901e:	e04c      	b.n	100090ba <_malloc_r+0x43a>
10009020:	2201      	movs	r2, #1
10009022:	18e3      	adds	r3, r4, r3
10009024:	6859      	ldr	r1, [r3, #4]
10009026:	0030      	movs	r0, r6
10009028:	430a      	orrs	r2, r1
1000902a:	605a      	str	r2, [r3, #4]
1000902c:	68e3      	ldr	r3, [r4, #12]
1000902e:	68a2      	ldr	r2, [r4, #8]
10009030:	60d3      	str	r3, [r2, #12]
10009032:	609a      	str	r2, [r3, #8]
10009034:	f000 f8e0 	bl	100091f8 <__malloc_unlock>
10009038:	0020      	movs	r0, r4
1000903a:	3008      	adds	r0, #8
1000903c:	e6e5      	b.n	10008e0a <_malloc_r+0x18a>
1000903e:	002b      	movs	r3, r5
10009040:	08e8      	lsrs	r0, r5, #3
10009042:	3308      	adds	r3, #8
10009044:	e630      	b.n	10008ca8 <_malloc_r+0x28>
10009046:	2301      	movs	r3, #1
10009048:	1960      	adds	r0, r4, r5
1000904a:	431d      	orrs	r5, r3
1000904c:	6065      	str	r5, [r4, #4]
1000904e:	6178      	str	r0, [r7, #20]
10009050:	6138      	str	r0, [r7, #16]
10009052:	60c2      	str	r2, [r0, #12]
10009054:	6082      	str	r2, [r0, #8]
10009056:	001a      	movs	r2, r3
10009058:	464b      	mov	r3, r9
1000905a:	430a      	orrs	r2, r1
1000905c:	6042      	str	r2, [r0, #4]
1000905e:	0030      	movs	r0, r6
10009060:	50e1      	str	r1, [r4, r3]
10009062:	f000 f8c9 	bl	100091f8 <__malloc_unlock>
10009066:	0020      	movs	r0, r4
10009068:	3008      	adds	r0, #8
1000906a:	e6ce      	b.n	10008e0a <_malloc_r+0x18a>
1000906c:	099a      	lsrs	r2, r3, #6
1000906e:	0011      	movs	r1, r2
10009070:	3239      	adds	r2, #57	; 0x39
10009072:	3138      	adds	r1, #56	; 0x38
10009074:	00d2      	lsls	r2, r2, #3
10009076:	e794      	b.n	10008fa2 <_malloc_r+0x322>
10009078:	42bc      	cmp	r4, r7
1000907a:	d060      	beq.n	1000913e <_malloc_r+0x4be>
1000907c:	68bc      	ldr	r4, [r7, #8]
1000907e:	6862      	ldr	r2, [r4, #4]
10009080:	2303      	movs	r3, #3
10009082:	439a      	bics	r2, r3
10009084:	1b53      	subs	r3, r2, r5
10009086:	4295      	cmp	r5, r2
10009088:	d802      	bhi.n	10009090 <_malloc_r+0x410>
1000908a:	2b0f      	cmp	r3, #15
1000908c:	dd00      	ble.n	10009090 <_malloc_r+0x410>
1000908e:	e770      	b.n	10008f72 <_malloc_r+0x2f2>
10009090:	0030      	movs	r0, r6
10009092:	f000 f8b1 	bl	100091f8 <__malloc_unlock>
10009096:	2000      	movs	r0, #0
10009098:	e6b7      	b.n	10008e0a <_malloc_r+0x18a>
1000909a:	235b      	movs	r3, #91	; 0x5b
1000909c:	4698      	mov	r8, r3
1000909e:	4480      	add	r8, r0
100090a0:	305c      	adds	r0, #92	; 0x5c
100090a2:	00c1      	lsls	r1, r0, #3
100090a4:	e635      	b.n	10008d12 <_malloc_r+0x92>
100090a6:	2308      	movs	r3, #8
100090a8:	425b      	negs	r3, r3
100090aa:	469c      	mov	ip, r3
100090ac:	44e1      	add	r9, ip
100090ae:	464b      	mov	r3, r9
100090b0:	689b      	ldr	r3, [r3, #8]
100090b2:	3801      	subs	r0, #1
100090b4:	454b      	cmp	r3, r9
100090b6:	d000      	beq.n	100090ba <_malloc_r+0x43a>
100090b8:	e097      	b.n	100091ea <_malloc_r+0x56a>
100090ba:	4643      	mov	r3, r8
100090bc:	4203      	tst	r3, r0
100090be:	d1f2      	bne.n	100090a6 <_malloc_r+0x426>
100090c0:	687b      	ldr	r3, [r7, #4]
100090c2:	438b      	bics	r3, r1
100090c4:	607b      	str	r3, [r7, #4]
100090c6:	0049      	lsls	r1, r1, #1
100090c8:	4299      	cmp	r1, r3
100090ca:	d900      	bls.n	100090ce <_malloc_r+0x44e>
100090cc:	e6bb      	b.n	10008e46 <_malloc_r+0x1c6>
100090ce:	2900      	cmp	r1, #0
100090d0:	d104      	bne.n	100090dc <_malloc_r+0x45c>
100090d2:	e6b8      	b.n	10008e46 <_malloc_r+0x1c6>
100090d4:	2204      	movs	r2, #4
100090d6:	4694      	mov	ip, r2
100090d8:	0049      	lsls	r1, r1, #1
100090da:	44e2      	add	sl, ip
100090dc:	420b      	tst	r3, r1
100090de:	d0f9      	beq.n	100090d4 <_malloc_r+0x454>
100090e0:	4650      	mov	r0, sl
100090e2:	e660      	b.n	10008da6 <_malloc_r+0x126>
100090e4:	3310      	adds	r3, #16
100090e6:	9300      	str	r3, [sp, #0]
100090e8:	e6cb      	b.n	10008e82 <_malloc_r+0x202>
100090ea:	1089      	asrs	r1, r1, #2
100090ec:	3b02      	subs	r3, #2
100090ee:	408b      	lsls	r3, r1
100090f0:	6879      	ldr	r1, [r7, #4]
100090f2:	430b      	orrs	r3, r1
100090f4:	607b      	str	r3, [r7, #4]
100090f6:	e76b      	b.n	10008fd0 <_malloc_r+0x350>
100090f8:	9b00      	ldr	r3, [sp, #0]
100090fa:	0030      	movs	r0, r6
100090fc:	4443      	add	r3, r8
100090fe:	425b      	negs	r3, r3
10009100:	051b      	lsls	r3, r3, #20
10009102:	0d1b      	lsrs	r3, r3, #20
10009104:	0019      	movs	r1, r3
10009106:	469b      	mov	fp, r3
10009108:	f000 f878 	bl	100091fc <_sbrk_r>
1000910c:	1c43      	adds	r3, r0, #1
1000910e:	d000      	beq.n	10009112 <_malloc_r+0x492>
10009110:	e6f8      	b.n	10008f04 <_malloc_r+0x284>
10009112:	2300      	movs	r3, #0
10009114:	469b      	mov	fp, r3
10009116:	e6fa      	b.n	10008f0e <_malloc_r+0x28e>
10009118:	2a54      	cmp	r2, #84	; 0x54
1000911a:	d82a      	bhi.n	10009172 <_malloc_r+0x4f2>
1000911c:	0b1a      	lsrs	r2, r3, #12
1000911e:	0011      	movs	r1, r2
10009120:	326f      	adds	r2, #111	; 0x6f
10009122:	316e      	adds	r1, #110	; 0x6e
10009124:	00d2      	lsls	r2, r2, #3
10009126:	e73c      	b.n	10008fa2 <_malloc_r+0x322>
10009128:	23aa      	movs	r3, #170	; 0xaa
1000912a:	005b      	lsls	r3, r3, #1
1000912c:	4298      	cmp	r0, r3
1000912e:	d82a      	bhi.n	10009186 <_malloc_r+0x506>
10009130:	3bdd      	subs	r3, #221	; 0xdd
10009132:	4698      	mov	r8, r3
10009134:	0be8      	lsrs	r0, r5, #15
10009136:	4480      	add	r8, r0
10009138:	3078      	adds	r0, #120	; 0x78
1000913a:	00c1      	lsls	r1, r0, #3
1000913c:	e5e9      	b.n	10008d12 <_malloc_r+0x92>
1000913e:	4653      	mov	r3, sl
10009140:	685b      	ldr	r3, [r3, #4]
10009142:	9a00      	ldr	r2, [sp, #0]
10009144:	469c      	mov	ip, r3
10009146:	4653      	mov	r3, sl
10009148:	4462      	add	r2, ip
1000914a:	605a      	str	r2, [r3, #4]
1000914c:	e6b3      	b.n	10008eb6 <_malloc_r+0x236>
1000914e:	0509      	lsls	r1, r1, #20
10009150:	d000      	beq.n	10009154 <_malloc_r+0x4d4>
10009152:	e6b0      	b.n	10008eb6 <_malloc_r+0x236>
10009154:	0002      	movs	r2, r0
10009156:	68bc      	ldr	r4, [r7, #8]
10009158:	444a      	add	r2, r9
1000915a:	3101      	adds	r1, #1
1000915c:	430a      	orrs	r2, r1
1000915e:	6062      	str	r2, [r4, #4]
10009160:	e6f9      	b.n	10008f56 <_malloc_r+0x2d6>
10009162:	465b      	mov	r3, fp
10009164:	4642      	mov	r2, r8
10009166:	601a      	str	r2, [r3, #0]
10009168:	e6b0      	b.n	10008ecc <_malloc_r+0x24c>
1000916a:	4644      	mov	r4, r8
1000916c:	e6f3      	b.n	10008f56 <_malloc_r+0x2d6>
1000916e:	6041      	str	r1, [r0, #4]
10009170:	e78e      	b.n	10009090 <_malloc_r+0x410>
10009172:	21aa      	movs	r1, #170	; 0xaa
10009174:	0049      	lsls	r1, r1, #1
10009176:	428a      	cmp	r2, r1
10009178:	d824      	bhi.n	100091c4 <_malloc_r+0x544>
1000917a:	0bda      	lsrs	r2, r3, #15
1000917c:	0011      	movs	r1, r2
1000917e:	3278      	adds	r2, #120	; 0x78
10009180:	3177      	adds	r1, #119	; 0x77
10009182:	00d2      	lsls	r2, r2, #3
10009184:	e70d      	b.n	10008fa2 <_malloc_r+0x322>
10009186:	4b1a      	ldr	r3, [pc, #104]	; (100091f0 <_malloc_r+0x570>)
10009188:	4298      	cmp	r0, r3
1000918a:	d824      	bhi.n	100091d6 <_malloc_r+0x556>
1000918c:	237c      	movs	r3, #124	; 0x7c
1000918e:	4698      	mov	r8, r3
10009190:	0ca8      	lsrs	r0, r5, #18
10009192:	4480      	add	r8, r0
10009194:	307d      	adds	r0, #125	; 0x7d
10009196:	00c1      	lsls	r1, r0, #3
10009198:	e5bb      	b.n	10008d12 <_malloc_r+0x92>
1000919a:	9a00      	ldr	r2, [sp, #0]
1000919c:	9b01      	ldr	r3, [sp, #4]
1000919e:	4694      	mov	ip, r2
100091a0:	4642      	mov	r2, r8
100091a2:	3b08      	subs	r3, #8
100091a4:	4463      	add	r3, ip
100091a6:	1a9b      	subs	r3, r3, r2
100091a8:	9300      	str	r3, [sp, #0]
100091aa:	2300      	movs	r3, #0
100091ac:	469b      	mov	fp, r3
100091ae:	e6ae      	b.n	10008f0e <_malloc_r+0x28e>
100091b0:	0021      	movs	r1, r4
100091b2:	0030      	movs	r0, r6
100091b4:	3108      	adds	r1, #8
100091b6:	f000 f8af 	bl	10009318 <_free_r>
100091ba:	4653      	mov	r3, sl
100091bc:	68bc      	ldr	r4, [r7, #8]
100091be:	685b      	ldr	r3, [r3, #4]
100091c0:	6862      	ldr	r2, [r4, #4]
100091c2:	e6c8      	b.n	10008f56 <_malloc_r+0x2d6>
100091c4:	490a      	ldr	r1, [pc, #40]	; (100091f0 <_malloc_r+0x570>)
100091c6:	428a      	cmp	r2, r1
100091c8:	d80b      	bhi.n	100091e2 <_malloc_r+0x562>
100091ca:	0c9a      	lsrs	r2, r3, #18
100091cc:	0011      	movs	r1, r2
100091ce:	327d      	adds	r2, #125	; 0x7d
100091d0:	317c      	adds	r1, #124	; 0x7c
100091d2:	00d2      	lsls	r2, r2, #3
100091d4:	e6e5      	b.n	10008fa2 <_malloc_r+0x322>
100091d6:	21fe      	movs	r1, #254	; 0xfe
100091d8:	237e      	movs	r3, #126	; 0x7e
100091da:	207f      	movs	r0, #127	; 0x7f
100091dc:	4698      	mov	r8, r3
100091de:	0089      	lsls	r1, r1, #2
100091e0:	e597      	b.n	10008d12 <_malloc_r+0x92>
100091e2:	22fe      	movs	r2, #254	; 0xfe
100091e4:	217e      	movs	r1, #126	; 0x7e
100091e6:	0092      	lsls	r2, r2, #2
100091e8:	e6db      	b.n	10008fa2 <_malloc_r+0x322>
100091ea:	687b      	ldr	r3, [r7, #4]
100091ec:	e76b      	b.n	100090c6 <_malloc_r+0x446>
100091ee:	46c0      	nop			; (mov r8, r8)
100091f0:	00000554 	.word	0x00000554

100091f4 <__malloc_lock>:
100091f4:	4770      	bx	lr
100091f6:	46c0      	nop			; (mov r8, r8)

100091f8 <__malloc_unlock>:
100091f8:	4770      	bx	lr
100091fa:	46c0      	nop			; (mov r8, r8)

100091fc <_sbrk_r>:
100091fc:	2300      	movs	r3, #0
100091fe:	b570      	push	{r4, r5, r6, lr}
10009200:	4d06      	ldr	r5, [pc, #24]	; (1000921c <_sbrk_r+0x20>)
10009202:	0004      	movs	r4, r0
10009204:	0008      	movs	r0, r1
10009206:	602b      	str	r3, [r5, #0]
10009208:	f7fe ff0a 	bl	10008020 <_sbrk>
1000920c:	1c43      	adds	r3, r0, #1
1000920e:	d000      	beq.n	10009212 <_sbrk_r+0x16>
10009210:	bd70      	pop	{r4, r5, r6, pc}
10009212:	682b      	ldr	r3, [r5, #0]
10009214:	2b00      	cmp	r3, #0
10009216:	d0fb      	beq.n	10009210 <_sbrk_r+0x14>
10009218:	6023      	str	r3, [r4, #0]
1000921a:	e7f9      	b.n	10009210 <_sbrk_r+0x14>
1000921c:	20001178 	.word	0x20001178

10009220 <strlen>:
10009220:	b510      	push	{r4, lr}
10009222:	0783      	lsls	r3, r0, #30
10009224:	d00a      	beq.n	1000923c <strlen+0x1c>
10009226:	0003      	movs	r3, r0
10009228:	2103      	movs	r1, #3
1000922a:	e002      	b.n	10009232 <strlen+0x12>
1000922c:	3301      	adds	r3, #1
1000922e:	420b      	tst	r3, r1
10009230:	d005      	beq.n	1000923e <strlen+0x1e>
10009232:	781a      	ldrb	r2, [r3, #0]
10009234:	2a00      	cmp	r2, #0
10009236:	d1f9      	bne.n	1000922c <strlen+0xc>
10009238:	1a18      	subs	r0, r3, r0
1000923a:	bd10      	pop	{r4, pc}
1000923c:	0003      	movs	r3, r0
1000923e:	6819      	ldr	r1, [r3, #0]
10009240:	4a0c      	ldr	r2, [pc, #48]	; (10009274 <strlen+0x54>)
10009242:	4c0d      	ldr	r4, [pc, #52]	; (10009278 <strlen+0x58>)
10009244:	188a      	adds	r2, r1, r2
10009246:	438a      	bics	r2, r1
10009248:	4222      	tst	r2, r4
1000924a:	d10f      	bne.n	1000926c <strlen+0x4c>
1000924c:	6859      	ldr	r1, [r3, #4]
1000924e:	4a09      	ldr	r2, [pc, #36]	; (10009274 <strlen+0x54>)
10009250:	3304      	adds	r3, #4
10009252:	188a      	adds	r2, r1, r2
10009254:	438a      	bics	r2, r1
10009256:	4222      	tst	r2, r4
10009258:	d108      	bne.n	1000926c <strlen+0x4c>
1000925a:	6859      	ldr	r1, [r3, #4]
1000925c:	4a05      	ldr	r2, [pc, #20]	; (10009274 <strlen+0x54>)
1000925e:	3304      	adds	r3, #4
10009260:	188a      	adds	r2, r1, r2
10009262:	438a      	bics	r2, r1
10009264:	4222      	tst	r2, r4
10009266:	d0f1      	beq.n	1000924c <strlen+0x2c>
10009268:	e000      	b.n	1000926c <strlen+0x4c>
1000926a:	3301      	adds	r3, #1
1000926c:	781a      	ldrb	r2, [r3, #0]
1000926e:	2a00      	cmp	r2, #0
10009270:	d1fb      	bne.n	1000926a <strlen+0x4a>
10009272:	e7e1      	b.n	10009238 <strlen+0x18>
10009274:	fefefeff 	.word	0xfefefeff
10009278:	80808080 	.word	0x80808080

1000927c <_malloc_trim_r>:
1000927c:	b5f8      	push	{r3, r4, r5, r6, r7, lr}
1000927e:	000c      	movs	r4, r1
10009280:	0005      	movs	r5, r0
10009282:	f7ff ffb7 	bl	100091f4 <__malloc_lock>
10009286:	4f20      	ldr	r7, [pc, #128]	; (10009308 <_malloc_trim_r+0x8c>)
10009288:	68bb      	ldr	r3, [r7, #8]
1000928a:	685e      	ldr	r6, [r3, #4]
1000928c:	2303      	movs	r3, #3
1000928e:	439e      	bics	r6, r3
10009290:	4b1e      	ldr	r3, [pc, #120]	; (1000930c <_malloc_trim_r+0x90>)
10009292:	1b34      	subs	r4, r6, r4
10009294:	469c      	mov	ip, r3
10009296:	4464      	add	r4, ip
10009298:	0b24      	lsrs	r4, r4, #12
1000929a:	3c01      	subs	r4, #1
1000929c:	3311      	adds	r3, #17
1000929e:	0324      	lsls	r4, r4, #12
100092a0:	429c      	cmp	r4, r3
100092a2:	db07      	blt.n	100092b4 <_malloc_trim_r+0x38>
100092a4:	2100      	movs	r1, #0
100092a6:	0028      	movs	r0, r5
100092a8:	f7ff ffa8 	bl	100091fc <_sbrk_r>
100092ac:	68bb      	ldr	r3, [r7, #8]
100092ae:	199b      	adds	r3, r3, r6
100092b0:	4298      	cmp	r0, r3
100092b2:	d004      	beq.n	100092be <_malloc_trim_r+0x42>
100092b4:	0028      	movs	r0, r5
100092b6:	f7ff ff9f 	bl	100091f8 <__malloc_unlock>
100092ba:	2000      	movs	r0, #0
100092bc:	bdf8      	pop	{r3, r4, r5, r6, r7, pc}
100092be:	0028      	movs	r0, r5
100092c0:	4261      	negs	r1, r4
100092c2:	f7ff ff9b 	bl	100091fc <_sbrk_r>
100092c6:	1c43      	adds	r3, r0, #1
100092c8:	d00d      	beq.n	100092e6 <_malloc_trim_r+0x6a>
100092ca:	2201      	movs	r2, #1
100092cc:	68bb      	ldr	r3, [r7, #8]
100092ce:	1b36      	subs	r6, r6, r4
100092d0:	4316      	orrs	r6, r2
100092d2:	605e      	str	r6, [r3, #4]
100092d4:	4b0e      	ldr	r3, [pc, #56]	; (10009310 <_malloc_trim_r+0x94>)
100092d6:	0028      	movs	r0, r5
100092d8:	681a      	ldr	r2, [r3, #0]
100092da:	1b14      	subs	r4, r2, r4
100092dc:	601c      	str	r4, [r3, #0]
100092de:	f7ff ff8b 	bl	100091f8 <__malloc_unlock>
100092e2:	2001      	movs	r0, #1
100092e4:	e7ea      	b.n	100092bc <_malloc_trim_r+0x40>
100092e6:	2100      	movs	r1, #0
100092e8:	0028      	movs	r0, r5
100092ea:	f7ff ff87 	bl	100091fc <_sbrk_r>
100092ee:	68ba      	ldr	r2, [r7, #8]
100092f0:	1a83      	subs	r3, r0, r2
100092f2:	2b0f      	cmp	r3, #15
100092f4:	ddde      	ble.n	100092b4 <_malloc_trim_r+0x38>
100092f6:	4907      	ldr	r1, [pc, #28]	; (10009314 <_malloc_trim_r+0x98>)
100092f8:	6809      	ldr	r1, [r1, #0]
100092fa:	1a40      	subs	r0, r0, r1
100092fc:	4904      	ldr	r1, [pc, #16]	; (10009310 <_malloc_trim_r+0x94>)
100092fe:	6008      	str	r0, [r1, #0]
10009300:	2101      	movs	r1, #1
10009302:	430b      	orrs	r3, r1
10009304:	6053      	str	r3, [r2, #4]
10009306:	e7d5      	b.n	100092b4 <_malloc_trim_r+0x38>
10009308:	200009f8 	.word	0x200009f8
1000930c:	00000fef 	.word	0x00000fef
10009310:	20001148 	.word	0x20001148
10009314:	200009f0 	.word	0x200009f0

10009318 <_free_r>:
10009318:	b5f0      	push	{r4, r5, r6, r7, lr}
1000931a:	46c6      	mov	lr, r8
1000931c:	0005      	movs	r5, r0
1000931e:	000c      	movs	r4, r1
10009320:	b500      	push	{lr}
10009322:	2900      	cmp	r1, #0
10009324:	d04f      	beq.n	100093c6 <_free_r+0xae>
10009326:	f7ff ff65 	bl	100091f4 <__malloc_lock>
1000932a:	0021      	movs	r1, r4
1000932c:	3908      	subs	r1, #8
1000932e:	684c      	ldr	r4, [r1, #4]
10009330:	2601      	movs	r6, #1
10009332:	0022      	movs	r2, r4
10009334:	2003      	movs	r0, #3
10009336:	43b2      	bics	r2, r6
10009338:	188f      	adds	r7, r1, r2
1000933a:	687b      	ldr	r3, [r7, #4]
1000933c:	4383      	bics	r3, r0
1000933e:	4862      	ldr	r0, [pc, #392]	; (100094c8 <_free_r+0x1b0>)
10009340:	4698      	mov	r8, r3
10009342:	6883      	ldr	r3, [r0, #8]
10009344:	42bb      	cmp	r3, r7
10009346:	d06a      	beq.n	1000941e <_free_r+0x106>
10009348:	4643      	mov	r3, r8
1000934a:	607b      	str	r3, [r7, #4]
1000934c:	4226      	tst	r6, r4
1000934e:	d11e      	bne.n	1000938e <_free_r+0x76>
10009350:	2308      	movs	r3, #8
10009352:	469c      	mov	ip, r3
10009354:	680c      	ldr	r4, [r1, #0]
10009356:	4484      	add	ip, r0
10009358:	1b09      	subs	r1, r1, r4
1000935a:	1912      	adds	r2, r2, r4
1000935c:	688c      	ldr	r4, [r1, #8]
1000935e:	4564      	cmp	r4, ip
10009360:	d04f      	beq.n	10009402 <_free_r+0xea>
10009362:	68cb      	ldr	r3, [r1, #12]
10009364:	60e3      	str	r3, [r4, #12]
10009366:	609c      	str	r4, [r3, #8]
10009368:	4643      	mov	r3, r8
1000936a:	18fc      	adds	r4, r7, r3
1000936c:	6864      	ldr	r4, [r4, #4]
1000936e:	4234      	tst	r4, r6
10009370:	d111      	bne.n	10009396 <_free_r+0x7e>
10009372:	68bb      	ldr	r3, [r7, #8]
10009374:	4c55      	ldr	r4, [pc, #340]	; (100094cc <_free_r+0x1b4>)
10009376:	4442      	add	r2, r8
10009378:	42a3      	cmp	r3, r4
1000937a:	d100      	bne.n	1000937e <_free_r+0x66>
1000937c:	e07e      	b.n	1000947c <_free_r+0x164>
1000937e:	68fc      	ldr	r4, [r7, #12]
10009380:	60dc      	str	r4, [r3, #12]
10009382:	60a3      	str	r3, [r4, #8]
10009384:	2301      	movs	r3, #1
10009386:	4313      	orrs	r3, r2
10009388:	604b      	str	r3, [r1, #4]
1000938a:	508a      	str	r2, [r1, r2]
1000938c:	e006      	b.n	1000939c <_free_r+0x84>
1000938e:	18fc      	adds	r4, r7, r3
10009390:	6864      	ldr	r4, [r4, #4]
10009392:	4234      	tst	r4, r6
10009394:	d0ed      	beq.n	10009372 <_free_r+0x5a>
10009396:	4316      	orrs	r6, r2
10009398:	604e      	str	r6, [r1, #4]
1000939a:	603a      	str	r2, [r7, #0]
1000939c:	2380      	movs	r3, #128	; 0x80
1000939e:	009b      	lsls	r3, r3, #2
100093a0:	429a      	cmp	r2, r3
100093a2:	d213      	bcs.n	100093cc <_free_r+0xb4>
100093a4:	0954      	lsrs	r4, r2, #5
100093a6:	08d3      	lsrs	r3, r2, #3
100093a8:	2201      	movs	r2, #1
100093aa:	40a2      	lsls	r2, r4
100093ac:	6844      	ldr	r4, [r0, #4]
100093ae:	00db      	lsls	r3, r3, #3
100093b0:	4322      	orrs	r2, r4
100093b2:	6042      	str	r2, [r0, #4]
100093b4:	1818      	adds	r0, r3, r0
100093b6:	6883      	ldr	r3, [r0, #8]
100093b8:	60c8      	str	r0, [r1, #12]
100093ba:	608b      	str	r3, [r1, #8]
100093bc:	6081      	str	r1, [r0, #8]
100093be:	60d9      	str	r1, [r3, #12]
100093c0:	0028      	movs	r0, r5
100093c2:	f7ff ff19 	bl	100091f8 <__malloc_unlock>
100093c6:	bc80      	pop	{r7}
100093c8:	46b8      	mov	r8, r7
100093ca:	bdf0      	pop	{r4, r5, r6, r7, pc}
100093cc:	0a53      	lsrs	r3, r2, #9
100093ce:	2b04      	cmp	r3, #4
100093d0:	d83e      	bhi.n	10009450 <_free_r+0x138>
100093d2:	0994      	lsrs	r4, r2, #6
100093d4:	0026      	movs	r6, r4
100093d6:	3439      	adds	r4, #57	; 0x39
100093d8:	3638      	adds	r6, #56	; 0x38
100093da:	00e4      	lsls	r4, r4, #3
100093dc:	1904      	adds	r4, r0, r4
100093de:	6823      	ldr	r3, [r4, #0]
100093e0:	3c08      	subs	r4, #8
100093e2:	2703      	movs	r7, #3
100093e4:	429c      	cmp	r4, r3
100093e6:	d042      	beq.n	1000946e <_free_r+0x156>
100093e8:	6858      	ldr	r0, [r3, #4]
100093ea:	43b8      	bics	r0, r7
100093ec:	4290      	cmp	r0, r2
100093ee:	d902      	bls.n	100093f6 <_free_r+0xde>
100093f0:	689b      	ldr	r3, [r3, #8]
100093f2:	429c      	cmp	r4, r3
100093f4:	d1f8      	bne.n	100093e8 <_free_r+0xd0>
100093f6:	68dc      	ldr	r4, [r3, #12]
100093f8:	60cc      	str	r4, [r1, #12]
100093fa:	608b      	str	r3, [r1, #8]
100093fc:	60a1      	str	r1, [r4, #8]
100093fe:	60d9      	str	r1, [r3, #12]
10009400:	e7de      	b.n	100093c0 <_free_r+0xa8>
10009402:	4643      	mov	r3, r8
10009404:	18f8      	adds	r0, r7, r3
10009406:	6840      	ldr	r0, [r0, #4]
10009408:	4230      	tst	r0, r6
1000940a:	d157      	bne.n	100094bc <_free_r+0x1a4>
1000940c:	68fb      	ldr	r3, [r7, #12]
1000940e:	68b8      	ldr	r0, [r7, #8]
10009410:	4442      	add	r2, r8
10009412:	4316      	orrs	r6, r2
10009414:	60c3      	str	r3, [r0, #12]
10009416:	6098      	str	r0, [r3, #8]
10009418:	604e      	str	r6, [r1, #4]
1000941a:	508a      	str	r2, [r1, r2]
1000941c:	e7d0      	b.n	100093c0 <_free_r+0xa8>
1000941e:	0013      	movs	r3, r2
10009420:	4443      	add	r3, r8
10009422:	4226      	tst	r6, r4
10009424:	d106      	bne.n	10009434 <_free_r+0x11c>
10009426:	680a      	ldr	r2, [r1, #0]
10009428:	1a89      	subs	r1, r1, r2
1000942a:	688c      	ldr	r4, [r1, #8]
1000942c:	189b      	adds	r3, r3, r2
1000942e:	68ca      	ldr	r2, [r1, #12]
10009430:	60e2      	str	r2, [r4, #12]
10009432:	6094      	str	r4, [r2, #8]
10009434:	2201      	movs	r2, #1
10009436:	431a      	orrs	r2, r3
10009438:	604a      	str	r2, [r1, #4]
1000943a:	4a25      	ldr	r2, [pc, #148]	; (100094d0 <_free_r+0x1b8>)
1000943c:	6081      	str	r1, [r0, #8]
1000943e:	6812      	ldr	r2, [r2, #0]
10009440:	429a      	cmp	r2, r3
10009442:	d8bd      	bhi.n	100093c0 <_free_r+0xa8>
10009444:	4b23      	ldr	r3, [pc, #140]	; (100094d4 <_free_r+0x1bc>)
10009446:	0028      	movs	r0, r5
10009448:	6819      	ldr	r1, [r3, #0]
1000944a:	f7ff ff17 	bl	1000927c <_malloc_trim_r>
1000944e:	e7b7      	b.n	100093c0 <_free_r+0xa8>
10009450:	2b14      	cmp	r3, #20
10009452:	d907      	bls.n	10009464 <_free_r+0x14c>
10009454:	2b54      	cmp	r3, #84	; 0x54
10009456:	d81a      	bhi.n	1000948e <_free_r+0x176>
10009458:	0b14      	lsrs	r4, r2, #12
1000945a:	0026      	movs	r6, r4
1000945c:	346f      	adds	r4, #111	; 0x6f
1000945e:	366e      	adds	r6, #110	; 0x6e
10009460:	00e4      	lsls	r4, r4, #3
10009462:	e7bb      	b.n	100093dc <_free_r+0xc4>
10009464:	001e      	movs	r6, r3
10009466:	335c      	adds	r3, #92	; 0x5c
10009468:	365b      	adds	r6, #91	; 0x5b
1000946a:	00dc      	lsls	r4, r3, #3
1000946c:	e7b6      	b.n	100093dc <_free_r+0xc4>
1000946e:	2201      	movs	r2, #1
10009470:	10b6      	asrs	r6, r6, #2
10009472:	40b2      	lsls	r2, r6
10009474:	6846      	ldr	r6, [r0, #4]
10009476:	4332      	orrs	r2, r6
10009478:	6042      	str	r2, [r0, #4]
1000947a:	e7bd      	b.n	100093f8 <_free_r+0xe0>
1000947c:	60d9      	str	r1, [r3, #12]
1000947e:	6099      	str	r1, [r3, #8]
10009480:	60cb      	str	r3, [r1, #12]
10009482:	608b      	str	r3, [r1, #8]
10009484:	2301      	movs	r3, #1
10009486:	4313      	orrs	r3, r2
10009488:	604b      	str	r3, [r1, #4]
1000948a:	508a      	str	r2, [r1, r2]
1000948c:	e798      	b.n	100093c0 <_free_r+0xa8>
1000948e:	24aa      	movs	r4, #170	; 0xaa
10009490:	0064      	lsls	r4, r4, #1
10009492:	42a3      	cmp	r3, r4
10009494:	d805      	bhi.n	100094a2 <_free_r+0x18a>
10009496:	0bd4      	lsrs	r4, r2, #15
10009498:	0026      	movs	r6, r4
1000949a:	3478      	adds	r4, #120	; 0x78
1000949c:	3677      	adds	r6, #119	; 0x77
1000949e:	00e4      	lsls	r4, r4, #3
100094a0:	e79c      	b.n	100093dc <_free_r+0xc4>
100094a2:	4c0d      	ldr	r4, [pc, #52]	; (100094d8 <_free_r+0x1c0>)
100094a4:	42a3      	cmp	r3, r4
100094a6:	d805      	bhi.n	100094b4 <_free_r+0x19c>
100094a8:	0c94      	lsrs	r4, r2, #18
100094aa:	0026      	movs	r6, r4
100094ac:	347d      	adds	r4, #125	; 0x7d
100094ae:	367c      	adds	r6, #124	; 0x7c
100094b0:	00e4      	lsls	r4, r4, #3
100094b2:	e793      	b.n	100093dc <_free_r+0xc4>
100094b4:	24fe      	movs	r4, #254	; 0xfe
100094b6:	267e      	movs	r6, #126	; 0x7e
100094b8:	00a4      	lsls	r4, r4, #2
100094ba:	e78f      	b.n	100093dc <_free_r+0xc4>
100094bc:	0033      	movs	r3, r6
100094be:	4313      	orrs	r3, r2
100094c0:	604b      	str	r3, [r1, #4]
100094c2:	603a      	str	r2, [r7, #0]
100094c4:	e77c      	b.n	100093c0 <_free_r+0xa8>
100094c6:	46c0      	nop			; (mov r8, r8)
100094c8:	200009f8 	.word	0x200009f8
100094cc:	20000a00 	.word	0x20000a00
100094d0:	200009f4 	.word	0x200009f4
100094d4:	20001144 	.word	0x20001144
100094d8:	00000554 	.word	0x00000554

100094dc <_fini>:
100094dc:	b5f8      	push	{r3, r4, r5, r6, r7, lr}
100094de:	46c0      	nop			; (mov r8, r8)

100094e0 <__flash_do_cmd_veneer>:
100094e0:	b401      	push	{r0}
100094e2:	4802      	ldr	r0, [pc, #8]	; (100094ec <__flash_do_cmd_veneer+0xc>)
100094e4:	4684      	mov	ip, r0
100094e6:	bc01      	pop	{r0}
100094e8:	4760      	bx	ip
100094ea:	bf00      	nop
100094ec:	200001ed 	.word	0x200001ed

100094f0 <__spi_read_blocking_veneer>:
100094f0:	b401      	push	{r0}
100094f2:	4802      	ldr	r0, [pc, #8]	; (100094fc <__spi_read_blocking_veneer+0xc>)
100094f4:	4684      	mov	ip, r0
100094f6:	bc01      	pop	{r0}
100094f8:	4760      	bx	ip
100094fa:	bf00      	nop
100094fc:	20000371 	.word	0x20000371

10009500 <__mutex_exit_veneer>:
10009500:	b401      	push	{r0}
10009502:	4802      	ldr	r0, [pc, #8]	; (1000950c <__mutex_exit_veneer+0xc>)
10009504:	4684      	mov	ip, r0
10009506:	bc01      	pop	{r0}
10009508:	4760      	bx	ip
1000950a:	bf00      	nop
1000950c:	2000014d 	.word	0x2000014d

10009510 <____aeabi_idiv0_veneer>:
10009510:	b401      	push	{r0}
10009512:	4802      	ldr	r0, [pc, #8]	; (1000951c <____aeabi_idiv0_veneer+0xc>)
10009514:	4684      	mov	ip, r0
10009516:	bc01      	pop	{r0}
10009518:	4760      	bx	ip
1000951a:	bf00      	nop
1000951c:	2000051d 	.word	0x2000051d

10009520 <__mutex_try_enter_veneer>:
10009520:	b401      	push	{r0}
10009522:	4802      	ldr	r0, [pc, #8]	; (1000952c <__mutex_try_enter_veneer+0xc>)
10009524:	4684      	mov	ip, r0
10009526:	bc01      	pop	{r0}
10009528:	4760      	bx	ip
1000952a:	bf00      	nop
1000952c:	20000109 	.word	0x20000109

10009530 <__spi_write_blocking_veneer>:
10009530:	b401      	push	{r0}
10009532:	4802      	ldr	r0, [pc, #8]	; (1000953c <__spi_write_blocking_veneer+0xc>)
10009534:	4684      	mov	ip, r0
10009536:	bc01      	pop	{r0}
10009538:	4760      	bx	ip
1000953a:	bf00      	nop
1000953c:	20000325 	.word	0x20000325

10009540 <__spi_write_read_blocking_veneer>:
10009540:	b401      	push	{r0}
10009542:	4802      	ldr	r0, [pc, #8]	; (1000954c <__spi_write_read_blocking_veneer+0xc>)
10009544:	4684      	mov	ip, r0
10009546:	bc01      	pop	{r0}
10009548:	4760      	bx	ip
1000954a:	bf00      	nop
1000954c:	200002b1 	.word	0x200002b1

10009550 <__spi_write16_read16_blocking_veneer>:
10009550:	b401      	push	{r0}
10009552:	4802      	ldr	r0, [pc, #8]	; (1000955c <__spi_write16_read16_blocking_veneer+0xc>)
10009554:	4684      	mov	ip, r0
10009556:	bc01      	pop	{r0}
10009558:	4760      	bx	ip
1000955a:	bf00      	nop
1000955c:	200003e5 	.word	0x200003e5

10009560 <__spi_read16_blocking_veneer>:
10009560:	b401      	push	{r0}
10009562:	4802      	ldr	r0, [pc, #8]	; (1000956c <__spi_read16_blocking_veneer+0xc>)
10009564:	4684      	mov	ip, r0
10009566:	bc01      	pop	{r0}
10009568:	4760      	bx	ip
1000956a:	bf00      	nop
1000956c:	200004a9 	.word	0x200004a9

10009570 <__mutex_enter_blocking_veneer>:
10009570:	b401      	push	{r0}
10009572:	4802      	ldr	r0, [pc, #8]	; (1000957c <__mutex_enter_blocking_veneer+0xc>)
10009574:	4684      	mov	ip, r0
10009576:	bc01      	pop	{r0}
10009578:	4760      	bx	ip
1000957a:	bf00      	nop
1000957c:	200000c1 	.word	0x200000c1

10009580 <__spi_write16_blocking_veneer>:
10009580:	b401      	push	{r0}
10009582:	4802      	ldr	r0, [pc, #8]	; (1000958c <__spi_write16_blocking_veneer+0xc>)
10009584:	4684      	mov	ip, r0
10009586:	bc01      	pop	{r0}
10009588:	4760      	bx	ip
1000958a:	bf00      	nop
1000958c:	20000459 	.word	0x20000459

Disassembly of section .data:

200000c0 <mutex_enter_blocking>:
200000c0:	23d0      	movs	r3, #208	; 0xd0
200000c2:	b530      	push	{r4, r5, lr}
200000c4:	2500      	movs	r5, #0
200000c6:	061b      	lsls	r3, r3, #24
200000c8:	2400      	movs	r4, #0
200000ca:	575d      	ldrsb	r5, [r3, r5]
200000cc:	e006      	b.n	200000dc <mutex_enter_blocking+0x1c>
200000ce:	6803      	ldr	r3, [r0, #0]
200000d0:	f3bf 8f5f 	dmb	sy
200000d4:	601c      	str	r4, [r3, #0]
200000d6:	f381 8810 	msr	PRIMASK, r1
200000da:	bf20      	wfe
200000dc:	6802      	ldr	r2, [r0, #0]
200000de:	f3ef 8110 	mrs	r1, PRIMASK
200000e2:	b672      	cpsid	i
200000e4:	6813      	ldr	r3, [r2, #0]
200000e6:	2b00      	cmp	r3, #0
200000e8:	d0fc      	beq.n	200000e4 <mutex_enter_blocking+0x24>
200000ea:	f3bf 8f5f 	dmb	sy
200000ee:	7903      	ldrb	r3, [r0, #4]
200000f0:	2b7f      	cmp	r3, #127	; 0x7f
200000f2:	d9ec      	bls.n	200000ce <mutex_enter_blocking+0xe>
200000f4:	7105      	strb	r5, [r0, #4]
200000f6:	6803      	ldr	r3, [r0, #0]
200000f8:	f3bf 8f5f 	dmb	sy
200000fc:	2200      	movs	r2, #0
200000fe:	601a      	str	r2, [r3, #0]
20000100:	f381 8810 	msr	PRIMASK, r1
20000104:	bd30      	pop	{r4, r5, pc}
20000106:	46c0      	nop			; (mov r8, r8)

20000108 <mutex_try_enter>:
20000108:	0003      	movs	r3, r0
2000010a:	6800      	ldr	r0, [r0, #0]
2000010c:	f3ef 8c10 	mrs	ip, PRIMASK
20000110:	b672      	cpsid	i
20000112:	6802      	ldr	r2, [r0, #0]
20000114:	2a00      	cmp	r2, #0
20000116:	d0fc      	beq.n	20000112 <mutex_try_enter+0xa>
20000118:	f3bf 8f5f 	dmb	sy
2000011c:	2204      	movs	r2, #4
2000011e:	569a      	ldrsb	r2, [r3, r2]
20000120:	2a00      	cmp	r2, #0
20000122:	db0b      	blt.n	2000013c <mutex_try_enter+0x34>
20000124:	2900      	cmp	r1, #0
20000126:	d00f      	beq.n	20000148 <mutex_try_enter+0x40>
20000128:	2000      	movs	r0, #0
2000012a:	600a      	str	r2, [r1, #0]
2000012c:	681b      	ldr	r3, [r3, #0]
2000012e:	f3bf 8f5f 	dmb	sy
20000132:	2200      	movs	r2, #0
20000134:	601a      	str	r2, [r3, #0]
20000136:	f38c 8810 	msr	PRIMASK, ip
2000013a:	4770      	bx	lr
2000013c:	22d0      	movs	r2, #208	; 0xd0
2000013e:	0612      	lsls	r2, r2, #24
20000140:	6812      	ldr	r2, [r2, #0]
20000142:	2001      	movs	r0, #1
20000144:	711a      	strb	r2, [r3, #4]
20000146:	e7f1      	b.n	2000012c <mutex_try_enter+0x24>
20000148:	2000      	movs	r0, #0
2000014a:	e7ef      	b.n	2000012c <mutex_try_enter+0x24>

2000014c <mutex_exit>:
2000014c:	6802      	ldr	r2, [r0, #0]
2000014e:	f3ef 8110 	mrs	r1, PRIMASK
20000152:	b672      	cpsid	i
20000154:	6813      	ldr	r3, [r2, #0]
20000156:	2b00      	cmp	r3, #0
20000158:	d0fc      	beq.n	20000154 <mutex_exit+0x8>
2000015a:	f3bf 8f5f 	dmb	sy
2000015e:	23ff      	movs	r3, #255	; 0xff
20000160:	7103      	strb	r3, [r0, #4]
20000162:	6803      	ldr	r3, [r0, #0]
20000164:	f3bf 8f5f 	dmb	sy
20000168:	2200      	movs	r2, #0
2000016a:	601a      	str	r2, [r3, #0]
2000016c:	f381 8810 	msr	PRIMASK, r1
20000170:	bf40      	sev
20000172:	4770      	bx	lr

20000174 <flash_init_boot2_copyout>:
20000174:	4808      	ldr	r0, [pc, #32]	; (20000198 <flash_init_boot2_copyout+0x24>)
20000176:	b510      	push	{r4, lr}
20000178:	7803      	ldrb	r3, [r0, #0]
2000017a:	2b00      	cmp	r3, #0
2000017c:	d10a      	bne.n	20000194 <flash_init_boot2_copyout+0x20>
2000017e:	2380      	movs	r3, #128	; 0x80
20000180:	4906      	ldr	r1, [pc, #24]	; (2000019c <flash_init_boot2_copyout+0x28>)
20000182:	4a07      	ldr	r2, [pc, #28]	; (200001a0 <flash_init_boot2_copyout+0x2c>)
20000184:	055b      	lsls	r3, r3, #21
20000186:	681c      	ldr	r4, [r3, #0]
20000188:	50cc      	str	r4, [r1, r3]
2000018a:	3304      	adds	r3, #4
2000018c:	4293      	cmp	r3, r2
2000018e:	d1fa      	bne.n	20000186 <flash_init_boot2_copyout+0x12>
20000190:	2301      	movs	r3, #1
20000192:	7003      	strb	r3, [r0, #0]
20000194:	bd10      	pop	{r4, pc}
20000196:	46c0      	nop			; (mov r8, r8)
20000198:	20001344 	.word	0x20001344
2000019c:	1000119c 	.word	0x1000119c
200001a0:	10000100 	.word	0x10000100

200001a4 <flash_enable_xip_via_boot2>:
200001a4:	b510      	push	{r4, lr}
200001a6:	4b02      	ldr	r3, [pc, #8]	; (200001b0 <flash_enable_xip_via_boot2+0xc>)
200001a8:	3301      	adds	r3, #1
200001aa:	4798      	blx	r3
200001ac:	bd10      	pop	{r4, pc}
200001ae:	46c0      	nop			; (mov r8, r8)
200001b0:	2000119c 	.word	0x2000119c

200001b4 <flash_cs_force.constprop.0>:
200001b4:	4b03      	ldr	r3, [pc, #12]	; (200001c4 <flash_cs_force.constprop.0+0x10>)
200001b6:	681a      	ldr	r2, [r3, #0]
200001b8:	23c0      	movs	r3, #192	; 0xc0
200001ba:	009b      	lsls	r3, r3, #2
200001bc:	4393      	bics	r3, r2
200001be:	4a02      	ldr	r2, [pc, #8]	; (200001c8 <flash_cs_force.constprop.0+0x14>)
200001c0:	6013      	str	r3, [r2, #0]
200001c2:	4770      	bx	lr
200001c4:	4001800c 	.word	0x4001800c
200001c8:	4001900c 	.word	0x4001900c

200001cc <flash_cs_force.constprop.1>:
200001cc:	4b05      	ldr	r3, [pc, #20]	; (200001e4 <flash_cs_force.constprop.1+0x18>)
200001ce:	681a      	ldr	r2, [r3, #0]
200001d0:	2380      	movs	r3, #128	; 0x80
200001d2:	009b      	lsls	r3, r3, #2
200001d4:	4053      	eors	r3, r2
200001d6:	22c0      	movs	r2, #192	; 0xc0
200001d8:	0092      	lsls	r2, r2, #2
200001da:	4013      	ands	r3, r2
200001dc:	4a02      	ldr	r2, [pc, #8]	; (200001e8 <flash_cs_force.constprop.1+0x1c>)
200001de:	6013      	str	r3, [r2, #0]
200001e0:	4770      	bx	lr
200001e2:	46c0      	nop			; (mov r8, r8)
200001e4:	4001800c 	.word	0x4001800c
200001e8:	4001900c 	.word	0x4001900c

200001ec <flash_do_cmd>:
200001ec:	2314      	movs	r3, #20
200001ee:	b5f0      	push	{r4, r5, r6, r7, lr}
200001f0:	46d6      	mov	lr, sl
200001f2:	464f      	mov	r7, r9
200001f4:	4646      	mov	r6, r8
200001f6:	469a      	mov	sl, r3
200001f8:	4681      	mov	r9, r0
200001fa:	8818      	ldrh	r0, [r3, #0]
200001fc:	3304      	adds	r3, #4
200001fe:	b5c0      	push	{r6, r7, lr}
20000200:	4698      	mov	r8, r3
20000202:	000e      	movs	r6, r1
20000204:	881b      	ldrh	r3, [r3, #0]
20000206:	4927      	ldr	r1, [pc, #156]	; (200002a4 <flash_do_cmd+0xb8>)
20000208:	0014      	movs	r4, r2
2000020a:	4798      	blx	r3
2000020c:	4653      	mov	r3, sl
2000020e:	0007      	movs	r7, r0
20000210:	8818      	ldrh	r0, [r3, #0]
20000212:	4643      	mov	r3, r8
20000214:	4924      	ldr	r1, [pc, #144]	; (200002a8 <flash_do_cmd+0xbc>)
20000216:	881b      	ldrh	r3, [r3, #0]
20000218:	4798      	blx	r3
2000021a:	4653      	mov	r3, sl
2000021c:	0005      	movs	r5, r0
2000021e:	8818      	ldrh	r0, [r3, #0]
20000220:	4643      	mov	r3, r8
20000222:	4922      	ldr	r1, [pc, #136]	; (200002ac <flash_do_cmd+0xc0>)
20000224:	881b      	ldrh	r3, [r3, #0]
20000226:	4798      	blx	r3
20000228:	4680      	mov	r8, r0
2000022a:	f7ff ffa3 	bl	20000174 <flash_init_boot2_copyout>
2000022e:	47b8      	blx	r7
20000230:	47a8      	blx	r5
20000232:	f7ff ffcb 	bl	200001cc <flash_cs_force.constprop.1>
20000236:	2c00      	cmp	r4, #0
20000238:	d01b      	beq.n	20000272 <flash_do_cmd+0x86>
2000023a:	21c0      	movs	r1, #192	; 0xc0
2000023c:	0022      	movs	r2, r4
2000023e:	2708      	movs	r7, #8
20000240:	2002      	movs	r0, #2
20000242:	0549      	lsls	r1, r1, #21
20000244:	003d      	movs	r5, r7
20000246:	6a8b      	ldr	r3, [r1, #40]	; 0x28
20000248:	401d      	ands	r5, r3
2000024a:	4218      	tst	r0, r3
2000024c:	d00b      	beq.n	20000266 <flash_do_cmd+0x7a>
2000024e:	2c00      	cmp	r4, #0
20000250:	d009      	beq.n	20000266 <flash_do_cmd+0x7a>
20000252:	1b13      	subs	r3, r2, r4
20000254:	2b0d      	cmp	r3, #13
20000256:	d81f      	bhi.n	20000298 <flash_do_cmd+0xac>
20000258:	464b      	mov	r3, r9
2000025a:	781b      	ldrb	r3, [r3, #0]
2000025c:	3c01      	subs	r4, #1
2000025e:	660b      	str	r3, [r1, #96]	; 0x60
20000260:	2301      	movs	r3, #1
20000262:	469c      	mov	ip, r3
20000264:	44e1      	add	r9, ip
20000266:	0023      	movs	r3, r4
20000268:	2d00      	cmp	r5, #0
2000026a:	d10c      	bne.n	20000286 <flash_do_cmd+0x9a>
2000026c:	4313      	orrs	r3, r2
2000026e:	2b00      	cmp	r3, #0
20000270:	d1e8      	bne.n	20000244 <flash_do_cmd+0x58>
20000272:	f7ff ff9f 	bl	200001b4 <flash_cs_force.constprop.0>
20000276:	47c0      	blx	r8
20000278:	f7ff ff94 	bl	200001a4 <flash_enable_xip_via_boot2>
2000027c:	bce0      	pop	{r5, r6, r7}
2000027e:	46ba      	mov	sl, r7
20000280:	46b1      	mov	r9, r6
20000282:	46a8      	mov	r8, r5
20000284:	bdf0      	pop	{r4, r5, r6, r7, pc}
20000286:	2a00      	cmp	r2, #0
20000288:	d0f1      	beq.n	2000026e <flash_do_cmd+0x82>
2000028a:	6e0b      	ldr	r3, [r1, #96]	; 0x60
2000028c:	3a01      	subs	r2, #1
2000028e:	7033      	strb	r3, [r6, #0]
20000290:	0013      	movs	r3, r2
20000292:	3601      	adds	r6, #1
20000294:	4323      	orrs	r3, r4
20000296:	e7ea      	b.n	2000026e <flash_do_cmd+0x82>
20000298:	2d00      	cmp	r5, #0
2000029a:	d0d3      	beq.n	20000244 <flash_do_cmd+0x58>
2000029c:	2a00      	cmp	r2, #0
2000029e:	d0d1      	beq.n	20000244 <flash_do_cmd+0x58>
200002a0:	e7f3      	b.n	2000028a <flash_do_cmd+0x9e>
200002a2:	46c0      	nop			; (mov r8, r8)
200002a4:	00004649 	.word	0x00004649
200002a8:	00005845 	.word	0x00005845
200002ac:	00004346 	.word	0x00004346

200002b0 <spi_write_read_blocking>:
200002b0:	b5f0      	push	{r4, r5, r6, r7, lr}
200002b2:	464f      	mov	r7, r9
200002b4:	4646      	mov	r6, r8
200002b6:	46d6      	mov	lr, sl
200002b8:	4689      	mov	r9, r1
200002ba:	b5c0      	push	{r6, r7, lr}
200002bc:	0006      	movs	r6, r0
200002be:	1e18      	subs	r0, r3, #0
200002c0:	d01b      	beq.n	200002fa <spi_write_read_blocking+0x4a>
200002c2:	001d      	movs	r5, r3
200002c4:	001c      	movs	r4, r3
200002c6:	2302      	movs	r3, #2
200002c8:	4698      	mov	r8, r3
200002ca:	3302      	adds	r3, #2
200002cc:	469c      	mov	ip, r3
200002ce:	2d00      	cmp	r5, #0
200002d0:	d018      	beq.n	20000304 <spi_write_read_blocking+0x54>
200002d2:	002b      	movs	r3, r5
200002d4:	3308      	adds	r3, #8
200002d6:	4641      	mov	r1, r8
200002d8:	68f7      	ldr	r7, [r6, #12]
200002da:	4239      	tst	r1, r7
200002dc:	d01f      	beq.n	2000031e <spi_write_read_blocking+0x6e>
200002de:	42a3      	cmp	r3, r4
200002e0:	d91d      	bls.n	2000031e <spi_write_read_blocking+0x6e>
200002e2:	2101      	movs	r1, #1
200002e4:	464b      	mov	r3, r9
200002e6:	468a      	mov	sl, r1
200002e8:	781b      	ldrb	r3, [r3, #0]
200002ea:	3d01      	subs	r5, #1
200002ec:	60b3      	str	r3, [r6, #8]
200002ee:	44d1      	add	r9, sl
200002f0:	002b      	movs	r3, r5
200002f2:	2c00      	cmp	r4, #0
200002f4:	d108      	bne.n	20000308 <spi_write_read_blocking+0x58>
200002f6:	2b00      	cmp	r3, #0
200002f8:	d1e9      	bne.n	200002ce <spi_write_read_blocking+0x1e>
200002fa:	bce0      	pop	{r5, r6, r7}
200002fc:	46ba      	mov	sl, r7
200002fe:	46b1      	mov	r9, r6
20000300:	46a8      	mov	r8, r5
20000302:	bdf0      	pop	{r4, r5, r6, r7, pc}
20000304:	2c00      	cmp	r4, #0
20000306:	d0f8      	beq.n	200002fa <spi_write_read_blocking+0x4a>
20000308:	4663      	mov	r3, ip
2000030a:	68f7      	ldr	r7, [r6, #12]
2000030c:	423b      	tst	r3, r7
2000030e:	d0de      	beq.n	200002ce <spi_write_read_blocking+0x1e>
20000310:	68b3      	ldr	r3, [r6, #8]
20000312:	3c01      	subs	r4, #1
20000314:	7013      	strb	r3, [r2, #0]
20000316:	0023      	movs	r3, r4
20000318:	3201      	adds	r2, #1
2000031a:	432b      	orrs	r3, r5
2000031c:	e7eb      	b.n	200002f6 <spi_write_read_blocking+0x46>
2000031e:	2c00      	cmp	r4, #0
20000320:	d1f2      	bne.n	20000308 <spi_write_read_blocking+0x58>
20000322:	e7d8      	b.n	200002d6 <spi_write_read_blocking+0x26>

20000324 <spi_write_blocking>:
20000324:	b530      	push	{r4, r5, lr}
20000326:	0004      	movs	r4, r0
20000328:	1e10      	subs	r0, r2, #0
2000032a:	d00a      	beq.n	20000342 <spi_write_blocking+0x1e>
2000032c:	000a      	movs	r2, r1
2000032e:	180d      	adds	r5, r1, r0
20000330:	2102      	movs	r1, #2
20000332:	68e3      	ldr	r3, [r4, #12]
20000334:	4219      	tst	r1, r3
20000336:	d0fc      	beq.n	20000332 <spi_write_blocking+0xe>
20000338:	7813      	ldrb	r3, [r2, #0]
2000033a:	3201      	adds	r2, #1
2000033c:	60a3      	str	r3, [r4, #8]
2000033e:	4295      	cmp	r5, r2
20000340:	d1f7      	bne.n	20000332 <spi_write_blocking+0xe>
20000342:	68e3      	ldr	r3, [r4, #12]
20000344:	075b      	lsls	r3, r3, #29
20000346:	d504      	bpl.n	20000352 <spi_write_blocking+0x2e>
20000348:	2104      	movs	r1, #4
2000034a:	68a3      	ldr	r3, [r4, #8]
2000034c:	68e3      	ldr	r3, [r4, #12]
2000034e:	4219      	tst	r1, r3
20000350:	d1fb      	bne.n	2000034a <spi_write_blocking+0x26>
20000352:	2110      	movs	r1, #16
20000354:	68e3      	ldr	r3, [r4, #12]
20000356:	4219      	tst	r1, r3
20000358:	d1fc      	bne.n	20000354 <spi_write_blocking+0x30>
2000035a:	68e3      	ldr	r3, [r4, #12]
2000035c:	075b      	lsls	r3, r3, #29
2000035e:	d504      	bpl.n	2000036a <spi_write_blocking+0x46>
20000360:	2104      	movs	r1, #4
20000362:	68a3      	ldr	r3, [r4, #8]
20000364:	68e3      	ldr	r3, [r4, #12]
20000366:	4219      	tst	r1, r3
20000368:	d1fb      	bne.n	20000362 <spi_write_blocking+0x3e>
2000036a:	2301      	movs	r3, #1
2000036c:	6223      	str	r3, [r4, #32]
2000036e:	bd30      	pop	{r4, r5, pc}

20000370 <spi_read_blocking>:
20000370:	b5f0      	push	{r4, r5, r6, r7, lr}
20000372:	4647      	mov	r7, r8
20000374:	46ce      	mov	lr, r9
20000376:	0005      	movs	r5, r0
20000378:	4688      	mov	r8, r1
2000037a:	0018      	movs	r0, r3
2000037c:	b580      	push	{r7, lr}
2000037e:	2b00      	cmp	r3, #0
20000380:	d017      	beq.n	200003b2 <spi_read_blocking+0x42>
20000382:	001e      	movs	r6, r3
20000384:	001c      	movs	r4, r3
20000386:	2302      	movs	r3, #2
20000388:	469c      	mov	ip, r3
2000038a:	3302      	adds	r3, #2
2000038c:	4699      	mov	r9, r3
2000038e:	2e00      	cmp	r6, #0
20000390:	d013      	beq.n	200003ba <spi_read_blocking+0x4a>
20000392:	0033      	movs	r3, r6
20000394:	3308      	adds	r3, #8
20000396:	4661      	mov	r1, ip
20000398:	68ef      	ldr	r7, [r5, #12]
2000039a:	4239      	tst	r1, r7
2000039c:	d01a      	beq.n	200003d4 <spi_read_blocking+0x64>
2000039e:	42a3      	cmp	r3, r4
200003a0:	d918      	bls.n	200003d4 <spi_read_blocking+0x64>
200003a2:	4643      	mov	r3, r8
200003a4:	3e01      	subs	r6, #1
200003a6:	60ab      	str	r3, [r5, #8]
200003a8:	0033      	movs	r3, r6
200003aa:	2c00      	cmp	r4, #0
200003ac:	d114      	bne.n	200003d8 <spi_read_blocking+0x68>
200003ae:	2b00      	cmp	r3, #0
200003b0:	d1ed      	bne.n	2000038e <spi_read_blocking+0x1e>
200003b2:	bcc0      	pop	{r6, r7}
200003b4:	46b9      	mov	r9, r7
200003b6:	46b0      	mov	r8, r6
200003b8:	bdf0      	pop	{r4, r5, r6, r7, pc}
200003ba:	2c00      	cmp	r4, #0
200003bc:	d0f9      	beq.n	200003b2 <spi_read_blocking+0x42>
200003be:	4649      	mov	r1, r9
200003c0:	68eb      	ldr	r3, [r5, #12]
200003c2:	4219      	tst	r1, r3
200003c4:	d0f9      	beq.n	200003ba <spi_read_blocking+0x4a>
200003c6:	68ab      	ldr	r3, [r5, #8]
200003c8:	3c01      	subs	r4, #1
200003ca:	7013      	strb	r3, [r2, #0]
200003cc:	0023      	movs	r3, r4
200003ce:	3201      	adds	r2, #1
200003d0:	4333      	orrs	r3, r6
200003d2:	e7ec      	b.n	200003ae <spi_read_blocking+0x3e>
200003d4:	2c00      	cmp	r4, #0
200003d6:	d0de      	beq.n	20000396 <spi_read_blocking+0x26>
200003d8:	4649      	mov	r1, r9
200003da:	68eb      	ldr	r3, [r5, #12]
200003dc:	4219      	tst	r1, r3
200003de:	d0d6      	beq.n	2000038e <spi_read_blocking+0x1e>
200003e0:	e7f1      	b.n	200003c6 <spi_read_blocking+0x56>
200003e2:	46c0      	nop			; (mov r8, r8)

200003e4 <spi_write16_read16_blocking>:
200003e4:	b5f0      	push	{r4, r5, r6, r7, lr}
200003e6:	464f      	mov	r7, r9
200003e8:	4646      	mov	r6, r8
200003ea:	46d6      	mov	lr, sl
200003ec:	4689      	mov	r9, r1
200003ee:	b5c0      	push	{r6, r7, lr}
200003f0:	0006      	movs	r6, r0
200003f2:	1e18      	subs	r0, r3, #0
200003f4:	d01b      	beq.n	2000042e <spi_write16_read16_blocking+0x4a>
200003f6:	001d      	movs	r5, r3
200003f8:	001c      	movs	r4, r3
200003fa:	2302      	movs	r3, #2
200003fc:	4698      	mov	r8, r3
200003fe:	3302      	adds	r3, #2
20000400:	469c      	mov	ip, r3
20000402:	2d00      	cmp	r5, #0
20000404:	d018      	beq.n	20000438 <spi_write16_read16_blocking+0x54>
20000406:	002b      	movs	r3, r5
20000408:	3308      	adds	r3, #8
2000040a:	4641      	mov	r1, r8
2000040c:	68f7      	ldr	r7, [r6, #12]
2000040e:	4239      	tst	r1, r7
20000410:	d01f      	beq.n	20000452 <spi_write16_read16_blocking+0x6e>
20000412:	42a3      	cmp	r3, r4
20000414:	d91d      	bls.n	20000452 <spi_write16_read16_blocking+0x6e>
20000416:	2102      	movs	r1, #2
20000418:	464b      	mov	r3, r9
2000041a:	468a      	mov	sl, r1
2000041c:	881b      	ldrh	r3, [r3, #0]
2000041e:	3d01      	subs	r5, #1
20000420:	60b3      	str	r3, [r6, #8]
20000422:	44d1      	add	r9, sl
20000424:	002b      	movs	r3, r5
20000426:	2c00      	cmp	r4, #0
20000428:	d108      	bne.n	2000043c <spi_write16_read16_blocking+0x58>
2000042a:	2b00      	cmp	r3, #0
2000042c:	d1e9      	bne.n	20000402 <spi_write16_read16_blocking+0x1e>
2000042e:	bce0      	pop	{r5, r6, r7}
20000430:	46ba      	mov	sl, r7
20000432:	46b1      	mov	r9, r6
20000434:	46a8      	mov	r8, r5
20000436:	bdf0      	pop	{r4, r5, r6, r7, pc}
20000438:	2c00      	cmp	r4, #0
2000043a:	d0f8      	beq.n	2000042e <spi_write16_read16_blocking+0x4a>
2000043c:	4663      	mov	r3, ip
2000043e:	68f7      	ldr	r7, [r6, #12]
20000440:	423b      	tst	r3, r7
20000442:	d0de      	beq.n	20000402 <spi_write16_read16_blocking+0x1e>
20000444:	68b3      	ldr	r3, [r6, #8]
20000446:	3c01      	subs	r4, #1
20000448:	8013      	strh	r3, [r2, #0]
2000044a:	0023      	movs	r3, r4
2000044c:	3202      	adds	r2, #2
2000044e:	432b      	orrs	r3, r5
20000450:	e7eb      	b.n	2000042a <spi_write16_read16_blocking+0x46>
20000452:	2c00      	cmp	r4, #0
20000454:	d1f2      	bne.n	2000043c <spi_write16_read16_blocking+0x58>
20000456:	e7d8      	b.n	2000040a <spi_write16_read16_blocking+0x26>

20000458 <spi_write16_blocking>:
20000458:	b530      	push	{r4, r5, lr}
2000045a:	0004      	movs	r4, r0
2000045c:	1e10      	subs	r0, r2, #0
2000045e:	d00b      	beq.n	20000478 <spi_write16_blocking+0x20>
20000460:	0045      	lsls	r5, r0, #1
20000462:	000a      	movs	r2, r1
20000464:	194d      	adds	r5, r1, r5
20000466:	2102      	movs	r1, #2
20000468:	68e3      	ldr	r3, [r4, #12]
2000046a:	4219      	tst	r1, r3
2000046c:	d0fc      	beq.n	20000468 <spi_write16_blocking+0x10>
2000046e:	8813      	ldrh	r3, [r2, #0]
20000470:	3202      	adds	r2, #2
20000472:	60a3      	str	r3, [r4, #8]
20000474:	4295      	cmp	r5, r2
20000476:	d1f7      	bne.n	20000468 <spi_write16_blocking+0x10>
20000478:	68e3      	ldr	r3, [r4, #12]
2000047a:	075b      	lsls	r3, r3, #29
2000047c:	d504      	bpl.n	20000488 <spi_write16_blocking+0x30>
2000047e:	2204      	movs	r2, #4
20000480:	68a3      	ldr	r3, [r4, #8]
20000482:	68e3      	ldr	r3, [r4, #12]
20000484:	421a      	tst	r2, r3
20000486:	d1fb      	bne.n	20000480 <spi_write16_blocking+0x28>
20000488:	2110      	movs	r1, #16
2000048a:	68e3      	ldr	r3, [r4, #12]
2000048c:	4219      	tst	r1, r3
2000048e:	d1fc      	bne.n	2000048a <spi_write16_blocking+0x32>
20000490:	68e3      	ldr	r3, [r4, #12]
20000492:	075b      	lsls	r3, r3, #29
20000494:	d504      	bpl.n	200004a0 <spi_write16_blocking+0x48>
20000496:	2204      	movs	r2, #4
20000498:	68a3      	ldr	r3, [r4, #8]
2000049a:	68e3      	ldr	r3, [r4, #12]
2000049c:	421a      	tst	r2, r3
2000049e:	d1fb      	bne.n	20000498 <spi_write16_blocking+0x40>
200004a0:	2301      	movs	r3, #1
200004a2:	6223      	str	r3, [r4, #32]
200004a4:	bd30      	pop	{r4, r5, pc}
200004a6:	46c0      	nop			; (mov r8, r8)

200004a8 <spi_read16_blocking>:
200004a8:	b5f0      	push	{r4, r5, r6, r7, lr}
200004aa:	4647      	mov	r7, r8
200004ac:	46ce      	mov	lr, r9
200004ae:	0005      	movs	r5, r0
200004b0:	4688      	mov	r8, r1
200004b2:	0018      	movs	r0, r3
200004b4:	b580      	push	{r7, lr}
200004b6:	2b00      	cmp	r3, #0
200004b8:	d017      	beq.n	200004ea <spi_read16_blocking+0x42>
200004ba:	001e      	movs	r6, r3
200004bc:	001c      	movs	r4, r3
200004be:	2302      	movs	r3, #2
200004c0:	469c      	mov	ip, r3
200004c2:	3302      	adds	r3, #2
200004c4:	4699      	mov	r9, r3
200004c6:	2e00      	cmp	r6, #0
200004c8:	d013      	beq.n	200004f2 <spi_read16_blocking+0x4a>
200004ca:	0033      	movs	r3, r6
200004cc:	3308      	adds	r3, #8
200004ce:	4661      	mov	r1, ip
200004d0:	68ef      	ldr	r7, [r5, #12]
200004d2:	4239      	tst	r1, r7
200004d4:	d01a      	beq.n	2000050c <spi_read16_blocking+0x64>
200004d6:	42a3      	cmp	r3, r4
200004d8:	d918      	bls.n	2000050c <spi_read16_blocking+0x64>
200004da:	4643      	mov	r3, r8
200004dc:	3e01      	subs	r6, #1
200004de:	60ab      	str	r3, [r5, #8]
200004e0:	0033      	movs	r3, r6
200004e2:	2c00      	cmp	r4, #0
200004e4:	d114      	bne.n	20000510 <spi_read16_blocking+0x68>
200004e6:	2b00      	cmp	r3, #0
200004e8:	d1ed      	bne.n	200004c6 <spi_read16_blocking+0x1e>
200004ea:	bcc0      	pop	{r6, r7}
200004ec:	46b9      	mov	r9, r7
200004ee:	46b0      	mov	r8, r6
200004f0:	bdf0      	pop	{r4, r5, r6, r7, pc}
200004f2:	2c00      	cmp	r4, #0
200004f4:	d0f9      	beq.n	200004ea <spi_read16_blocking+0x42>
200004f6:	4649      	mov	r1, r9
200004f8:	68eb      	ldr	r3, [r5, #12]
200004fa:	4219      	tst	r1, r3
200004fc:	d0f9      	beq.n	200004f2 <spi_read16_blocking+0x4a>
200004fe:	68ab      	ldr	r3, [r5, #8]
20000500:	3c01      	subs	r4, #1
20000502:	8013      	strh	r3, [r2, #0]
20000504:	0023      	movs	r3, r4
20000506:	3202      	adds	r2, #2
20000508:	4333      	orrs	r3, r6
2000050a:	e7ec      	b.n	200004e6 <spi_read16_blocking+0x3e>
2000050c:	2c00      	cmp	r4, #0
2000050e:	d0de      	beq.n	200004ce <spi_read16_blocking+0x26>
20000510:	4649      	mov	r1, r9
20000512:	68eb      	ldr	r3, [r5, #12]
20000514:	4219      	tst	r1, r3
20000516:	d0d6      	beq.n	200004c6 <spi_read16_blocking+0x1e>
20000518:	e7f1      	b.n	200004fe <spi_read16_blocking+0x56>
2000051a:	46c0      	nop			; (mov r8, r8)

2000051c <__aeabi_idiv0>:
2000051c:	4770      	bx	lr
2000051e:	46c0      	nop			; (mov r8, r8)

20000520 <striped_spin_lock_num>:
20000520:	0010 0000                                   ....

20000524 <irq_handler_chain_slots>:
20000524:	00000000 	.word	0x00000000
20000528:	00010000 	.word	0x00010000
	...
20000534:	00020000 	.word	0x00020000
	...
20000540:	00030000 	.word	0x00030000
	...
2000054c:	00ff0000 	.word	0x00ff0000
20000550:	00000000 	.word	0x00000000

20000554 <irq_handler_chain_first_slot>:
20000554:	b500      	push	{lr}
20000556:	6848      	ldr	r0, [r1, #4]
20000558:	3101      	adds	r1, #1
2000055a:	468e      	mov	lr, r1
2000055c:	4700      	bx	r0

2000055e <irq_handler_chain_remove_tail>:
2000055e:	4670      	mov	r0, lr
20000560:	3809      	subs	r0, #9
20000562:	4901      	ldr	r1, [pc, #4]	; (20000568 <irq_handler_chain_remove_tail+0xa>)
20000564:	4788      	blx	r1
20000566:	bd00      	pop	{pc}
20000568:	10007231 	.word	0x10007231

2000056c <default_alarm_pool>:
2000056c:	20000584 00000000 20000e28 200012c4     ... ....(.. ... 
	...

20000584 <default_alarm_pool_heap>:
20000584:	200012d4 00000000 00000000 00000010     ... ............
	...

200005a0 <aeabi_bits_funcs>:
200005a0:	00003350 	.word	0x00003350
200005a4:	0000334c 	.word	0x0000334c
200005a8:	00003354 	.word	0x00003354
200005ac:	00003352 	.word	0x00003352

200005b0 <aeabi_bits_funcs_end>:
200005b0:	0000534d 	.word	0x0000534d
200005b4:	0000434d 	.word	0x0000434d
200005b8:	00003453 	.word	0x00003453
200005bc:	00003443 	.word	0x00003443

200005c0 <_impure_ptr>:
200005c0:	200005c8 00000000                       ... ....

200005c8 <impure_data>:
200005c8:	00000000 200008b4 2000091c 20000984     ....... ... ... 
	...
20000670:	00000001 00000000 abcd330e e66d1234     .........3..4.m.
20000680:	0005deec 0000000b 00000000 00000000     ................
	...

200009f0 <__malloc_sbrk_base>:
200009f0:	ffffffff                                ....

200009f4 <__malloc_trim_threshold>:
200009f4:	00020000                                ....

200009f8 <__malloc_av_>:
	...
20000a00:	200009f8 200009f8 20000a00 20000a00     ... ... ... ... 
20000a10:	20000a08 20000a08 20000a10 20000a10     ... ... ... ... 
20000a20:	20000a18 20000a18 20000a20 20000a20     ... ...  ..  .. 
20000a30:	20000a28 20000a28 20000a30 20000a30     (.. (.. 0.. 0.. 
20000a40:	20000a38 20000a38 20000a40 20000a40     8.. 8.. @.. @.. 
20000a50:	20000a48 20000a48 20000a50 20000a50     H.. H.. P.. P.. 
20000a60:	20000a58 20000a58 20000a60 20000a60     X.. X.. `.. `.. 
20000a70:	20000a68 20000a68 20000a70 20000a70     h.. h.. p.. p.. 
20000a80:	20000a78 20000a78 20000a80 20000a80     x.. x.. ... ... 
20000a90:	20000a88 20000a88 20000a90 20000a90     ... ... ... ... 
20000aa0:	20000a98 20000a98 20000aa0 20000aa0     ... ... ... ... 
20000ab0:	20000aa8 20000aa8 20000ab0 20000ab0     ... ... ... ... 
20000ac0:	20000ab8 20000ab8 20000ac0 20000ac0     ... ... ... ... 
20000ad0:	20000ac8 20000ac8 20000ad0 20000ad0     ... ... ... ... 
20000ae0:	20000ad8 20000ad8 20000ae0 20000ae0     ... ... ... ... 
20000af0:	20000ae8 20000ae8 20000af0 20000af0     ... ... ... ... 
20000b00:	20000af8 20000af8 20000b00 20000b00     ... ... ... ... 
20000b10:	20000b08 20000b08 20000b10 20000b10     ... ... ... ... 
20000b20:	20000b18 20000b18 20000b20 20000b20     ... ...  ..  .. 
20000b30:	20000b28 20000b28 20000b30 20000b30     (.. (.. 0.. 0.. 
20000b40:	20000b38 20000b38 20000b40 20000b40     8.. 8.. @.. @.. 
20000b50:	20000b48 20000b48 20000b50 20000b50     H.. H.. P.. P.. 
20000b60:	20000b58 20000b58 20000b60 20000b60     X.. X.. `.. `.. 
20000b70:	20000b68 20000b68 20000b70 20000b70     h.. h.. p.. p.. 
20000b80:	20000b78 20000b78 20000b80 20000b80     x.. x.. ... ... 
20000b90:	20000b88 20000b88 20000b90 20000b90     ... ... ... ... 
20000ba0:	20000b98 20000b98 20000ba0 20000ba0     ... ... ... ... 
20000bb0:	20000ba8 20000ba8 20000bb0 20000bb0     ... ... ... ... 
20000bc0:	20000bb8 20000bb8 20000bc0 20000bc0     ... ... ... ... 
20000bd0:	20000bc8 20000bc8 20000bd0 20000bd0     ... ... ... ... 
20000be0:	20000bd8 20000bd8 20000be0 20000be0     ... ... ... ... 
20000bf0:	20000be8 20000be8 20000bf0 20000bf0     ... ... ... ... 
20000c00:	20000bf8 20000bf8 20000c00 20000c00     ... ... ... ... 
20000c10:	20000c08 20000c08 20000c10 20000c10     ... ... ... ... 
20000c20:	20000c18 20000c18 20000c20 20000c20     ... ...  ..  .. 
20000c30:	20000c28 20000c28 20000c30 20000c30     (.. (.. 0.. 0.. 
20000c40:	20000c38 20000c38 20000c40 20000c40     8.. 8.. @.. @.. 
20000c50:	20000c48 20000c48 20000c50 20000c50     H.. H.. P.. P.. 
20000c60:	20000c58 20000c58 20000c60 20000c60     X.. X.. `.. `.. 
20000c70:	20000c68 20000c68 20000c70 20000c70     h.. h.. p.. p.. 
20000c80:	20000c78 20000c78 20000c80 20000c80     x.. x.. ... ... 
20000c90:	20000c88 20000c88 20000c90 20000c90     ... ... ... ... 
20000ca0:	20000c98 20000c98 20000ca0 20000ca0     ... ... ... ... 
20000cb0:	20000ca8 20000ca8 20000cb0 20000cb0     ... ... ... ... 
20000cc0:	20000cb8 20000cb8 20000cc0 20000cc0     ... ... ... ... 
20000cd0:	20000cc8 20000cc8 20000cd0 20000cd0     ... ... ... ... 
20000ce0:	20000cd8 20000cd8 20000ce0 20000ce0     ... ... ... ... 
20000cf0:	20000ce8 20000ce8 20000cf0 20000cf0     ... ... ... ... 
20000d00:	20000cf8 20000cf8 20000d00 20000d00     ... ... ... ... 
20000d10:	20000d08 20000d08 20000d10 20000d10     ... ... ... ... 
20000d20:	20000d18 20000d18 20000d20 20000d20     ... ...  ..  .. 
20000d30:	20000d28 20000d28 20000d30 20000d30     (.. (.. 0.. 0.. 
20000d40:	20000d38 20000d38 20000d40 20000d40     8.. 8.. @.. @.. 
20000d50:	20000d48 20000d48 20000d50 20000d50     H.. H.. P.. P.. 
20000d60:	20000d58 20000d58 20000d60 20000d60     X.. X.. `.. `.. 
20000d70:	20000d68 20000d68 20000d70 20000d70     h.. h.. p.. p.. 
20000d80:	20000d78 20000d78 20000d80 20000d80     x.. x.. ... ... 
20000d90:	20000d88 20000d88 20000d90 20000d90     ... ... ... ... 
20000da0:	20000d98 20000d98 20000da0 20000da0     ... ... ... ... 
20000db0:	20000da8 20000da8 20000db0 20000db0     ... ... ... ... 
20000dc0:	20000db8 20000db8 20000dc0 20000dc0     ... ... ... ... 
20000dd0:	20000dc8 20000dc8 20000dd0 20000dd0     ... ... ... ... 
20000de0:	20000dd8 20000dd8 20000de0 20000de0     ... ... ... ... 
20000df0:	20000de8 20000de8 20000df0 20000df0     ... ... ... ... 

20000e00 <print_mutex>:
	...

20000e08 <__mutex_array_end>:
20000e08:	100087dd 	.word	0x100087dd
20000e0c:	10008485 	.word	0x10008485
20000e10:	10008595 	.word	0x10008595
20000e14:	10008721 	.word	0x10008721

20000e18 <__frame_dummy_init_array_entry>:
20000e18:	10000339 10008aa9 10008c2d              9.......-...
